
jiwy_demonstrator.elf:     file format elf32-littlenios2
jiwy_demonstrator.elf
architecture: nios2:r1, flags 0x00000112:
EXEC_P, HAS_SYMS, D_PAGED
start address 0x00010180

Program Header:
    LOAD off    0x00001000 vaddr 0x00010000 paddr 0x00010000 align 2**12
         filesz 0x00000020 memsz 0x00000020 flags r-x
    LOAD off    0x00001020 vaddr 0x00010020 paddr 0x00010020 align 2**12
         filesz 0x00009254 memsz 0x00009254 flags r-x
    LOAD off    0x0000a274 vaddr 0x00019274 paddr 0x000197fc align 2**12
         filesz 0x00000588 memsz 0x00000588 flags rw-
    LOAD off    0x0000ad84 vaddr 0x00019d84 paddr 0x00019d84 align 2**12
         filesz 0x00000000 memsz 0x000002d4 flags rw-

Sections:
Idx Name          Size      VMA       LMA       File off  Algn
  0 .entry        00000020  00010000  00010000  00001000  2**5
                  CONTENTS, ALLOC, LOAD, READONLY, CODE
  1 .exceptions   00000160  00010020  00010020  00001020  2**2
                  CONTENTS, ALLOC, LOAD, READONLY, CODE
  2 .text         00008614  00010180  00010180  00001180  2**2
                  CONTENTS, ALLOC, LOAD, READONLY, CODE
  3 .rodata       00000ae0  00018794  00018794  00009794  2**2
                  CONTENTS, ALLOC, LOAD, READONLY, DATA
  4 .rwdata       00000588  00019274  000197fc  0000a274  2**2
                  CONTENTS, ALLOC, LOAD, DATA, SMALL_DATA
  5 .bss          000002d4  00019d84  00019d84  0000ad84  2**2
                  ALLOC, SMALL_DATA
  6 .onchip_mem   00000000  0001a058  0001a058  0000a7fc  2**0
                  CONTENTS
  7 .comment      0000002d  00000000  00000000  0000a7fc  2**0
                  CONTENTS, READONLY
  8 .debug_aranges 00000be8  00000000  00000000  0000a830  2**3
                  CONTENTS, READONLY, DEBUGGING, OCTETS
  9 .debug_info   00023d33  00000000  00000000  0000b418  2**0
                  CONTENTS, READONLY, DEBUGGING, OCTETS
 10 .debug_abbrev 0000c418  00000000  00000000  0002f14b  2**0
                  CONTENTS, READONLY, DEBUGGING, OCTETS
 11 .debug_line   00012165  00000000  00000000  0003b563  2**0
                  CONTENTS, READONLY, DEBUGGING, OCTETS
 12 .debug_frame  00001dc4  00000000  00000000  0004d6c8  2**2
                  CONTENTS, READONLY, DEBUGGING, OCTETS
 13 .debug_str    0000ad2c  00000000  00000000  0004f48c  2**0
                  CONTENTS, READONLY, DEBUGGING, OCTETS
 14 .debug_loc    0000f88a  00000000  00000000  0005a1b8  2**0
                  CONTENTS, READONLY, DEBUGGING, OCTETS
 15 .debug_alt_sim_info 00000040  00000000  00000000  00069a44  2**2
                  CONTENTS, READONLY, DEBUGGING, OCTETS
 16 .debug_ranges 00002a20  00000000  00000000  00069a88  2**3
                  CONTENTS, READONLY, DEBUGGING, OCTETS
 17 .thread_model 00000003  00000000  00000000  000739f3  2**0
                  CONTENTS, READONLY
 18 .cpu          00000003  00000000  00000000  000739f6  2**0
                  CONTENTS, READONLY
 19 .qsys         00000001  00000000  00000000  000739f9  2**0
                  CONTENTS, READONLY
 20 .simulation_enabled 00000001  00000000  00000000  000739fa  2**0
                  CONTENTS, READONLY
 21 .sysid_hash   00000004  00000000  00000000  000739fb  2**0
                  CONTENTS, READONLY
 22 .sysid_base   00000004  00000000  00000000  000739ff  2**0
                  CONTENTS, READONLY
 23 .sysid_time   00000004  00000000  00000000  00073a03  2**0
                  CONTENTS, READONLY
 24 .stderr_dev   00000009  00000000  00000000  00073a07  2**0
                  CONTENTS, READONLY
 25 .stdin_dev    00000009  00000000  00000000  00073a10  2**0
                  CONTENTS, READONLY
 26 .stdout_dev   00000009  00000000  00000000  00073a19  2**0
                  CONTENTS, READONLY
 27 .sopc_system_name 00000013  00000000  00000000  00073a22  2**0
                  CONTENTS, READONLY
 28 .quartus_project_dir 0000002a  00000000  00000000  00073a35  2**0
                  CONTENTS, READONLY
SYMBOL TABLE:
00010000 l    d  .entry	00000000 .entry
00010020 l    d  .exceptions	00000000 .exceptions
00010180 l    d  .text	00000000 .text
00018794 l    d  .rodata	00000000 .rodata
00019274 l    d  .rwdata	00000000 .rwdata
00019d84 l    d  .bss	00000000 .bss
0001a058 l    d  .onchip_mem	00000000 .onchip_mem
00000000 l    d  .comment	00000000 .comment
00000000 l    d  .debug_aranges	00000000 .debug_aranges
00000000 l    d  .debug_info	00000000 .debug_info
00000000 l    d  .debug_abbrev	00000000 .debug_abbrev
00000000 l    d  .debug_line	00000000 .debug_line
00000000 l    d  .debug_frame	00000000 .debug_frame
00000000 l    d  .debug_str	00000000 .debug_str
00000000 l    d  .debug_loc	00000000 .debug_loc
00000000 l    d  .debug_alt_sim_info	00000000 .debug_alt_sim_info
00000000 l    d  .debug_ranges	00000000 .debug_ranges
00000000 l    df *ABS*	00000000 c:/Users/gteho/Repositories/EMSYS-LAB/nios/software/jiwy_demonstrator_bsp//obj/HAL/src/crt0.o
000101b8 l       .text	00000000 alt_after_alt_main
00000000 l    df *ABS*	00000000 alt_irq_handler.c
00000000 l    df *ABS*	00000000 alt_instruction_exception_entry.c
00000000 l    df *ABS*	00000000 xxinteg.cpp
00000000 l    df *ABS*	00000000 PositionControllerPan.cpp
00010258 l     F .text	000000f8 .LTHUNK2
00010ad8 l     F .text	000000a8 .LTHUNK0
00000000 l    df *ABS*	00000000 PositionControllerTilt.cpp
00010e58 l     F .text	0000010c .LTHUNK2
000116e4 l     F .text	000000a8 .LTHUNK0
00000000 l    df *ABS*	00000000 main.cpp
00011edc l     F .text	0000019c _GLOBAL__sub_I_uart
00012078 l     F .text	0000002c _GLOBAL__sub_D_uart
00000000 l    df *ABS*	00000000 motor.cpp
00000000 l    df *ABS*	00000000 uart.cpp
000126fc l     F .text	0000000c _GLOBAL__sub_I__ZN6Serial4UART10uart_readyE
00012708 l     F .text	0000000c _GLOBAL__sub_D__ZN6Serial4UART10uart_readyE
00000000 l    df *ABS*	00000000 timer.cpp
0001289c l     F .text	0000000c _GLOBAL__sub_I__ZN5Timer17timer_isr_contextE
000128a8 l     F .text	0000000c _GLOBAL__sub_D__ZN5Timer17timer_isr_contextE
00000000 l    df *ABS*	00000000 class_type_info.cc
00000000 l    df *ABS*	00000000 del_ops.cc
00000000 l    df *ABS*	00000000 del_opv.cc
00000000 l    df *ABS*	00000000 eh_personality.cc
00012b60 l     F .text	00000090 _ZL16get_adjusted_ptrPKSt9type_infoS1_PPv
00012bf0 l     F .text	000001e8 _ZL28read_encoded_value_with_basehjPKhPj
00012dd8 l     F .text	00000070 _ZL21base_of_encoded_valuehP15_Unwind_Context
00012e48 l     F .text	0000012c _ZL17parse_lsda_headerP15_Unwind_ContextPKhP16lsda_header_info
00012f74 l     F .text	00000110 _ZL20check_exception_specP16lsda_header_infoPKSt9type_infoPvl
00000000 l    df *ABS*	00000000 eh_terminate.cc
00000000 l    df *ABS*	00000000 eh_throw.cc
000139f8 l     F .text	00000068 _ZL23__gxx_exception_cleanup19_Unwind_Reason_CodeP17_Unwind_Exception
00000000 l    df *ABS*	00000000 eh_unex_handler.cc
00000000 l    df *ABS*	00000000 function_type_info.cc
00000000 l    df *ABS*	00000000 new_opv.cc
00000000 l    df *ABS*	00000000 pointer_type_info.cc
00000000 l    df *ABS*	00000000 si_class_type_info.cc
00000000 l    df *ABS*	00000000 tinfo.cc
00000000 l    df *ABS*	00000000 vmi_class_type_info.cc
00000000 l    df *ABS*	00000000 functional.cc
00000000 l    df *ABS*	00000000 del_op.cc
00000000 l    df *ABS*	00000000 eh_alloc.cc
00014a90 l     F .text	000000cc _ZN12_GLOBAL__N_14pool4freeEPv.constprop.0
00019f48 l     O .bss	00000010 _ZN12_GLOBAL__N_114emergency_poolE
00014b5c l     F .text	00000090 _ZN12_GLOBAL__N_14pool8allocateEj.constprop.0
00014d0c l     F .text	00000064 _GLOBAL__sub_I__ZN9__gnu_cxx9__freeresEv
00000000 l    df *ABS*	00000000 eh_call.cc
00000000 l    df *ABS*	00000000 eh_catch.cc
00000000 l    df *ABS*	00000000 eh_exception.cc
00000000 l    df *ABS*	00000000 eh_globals.cc
00019da8 l     O .bss	00000008 _ZL10eh_globals
00000000 l    df *ABS*	00000000 eh_term_handler.cc
00000000 l    df *ABS*	00000000 fundamental_type_info.cc
00000000 l    df *ABS*	00000000 new_op.cc
00000000 l    df *ABS*	00000000 pbase_type_info.cc
000197c0 l     O .rwdata	00000008 _ZZNK10__cxxabiv117__pbase_type_info10__do_catchEPKSt9type_infoPPvjE3pmf
000197bc l     O .rwdata	00000004 _ZZNK10__cxxabiv117__pbase_type_info10__do_catchEPKSt9type_infoPPvjE2pm
00000000 l    df *ABS*	00000000 pmem_type_info.cc
00000000 l    df *ABS*	00000000 pure.cc
00000000 l    df *ABS*	00000000 bad_alloc.cc
00000000 l    df *ABS*	00000000 eh_aux_runtime.cc
00000000 l    df *ABS*	00000000 new_handler.cc
00019db0 l     O .bss	00000004 _ZN12_GLOBAL__N_113__new_handlerE
00000000 l    df *ABS*	00000000 bad_array_new.cc
00000000 l    df *ABS*	00000000 bad_cast.cc
00000000 l    df *ABS*	00000000 bad_typeid.cc
00000000 l    df *ABS*	00000000 divdf3.c
00000000 l    df *ABS*	00000000 muldf3.c
00000000 l    df *ABS*	00000000 extendsfdf2.c
00000000 l    df *ABS*	00000000 truncdfsf2.c
00000000 l    df *ABS*	00000000 unwind-sjlj.c
000169a0 l     F .text	00000114 _Unwind_ForcedUnwind_Phase2
00019db4 l     O .bss	00000004 fc_static
00016ab4 l     F .text	000000d8 _Unwind_RaiseException_Phase2
00016b8c l     F .text	0000002c uw_install_context.constprop.0.isra.0
00000000 l    df *ABS*	00000000 libgcc2.c
00000000 l    df *ABS*	00000000 lib2-divmod.c
00000000 l    df *ABS*	00000000 lib2-mul.c
00000000 l    df *ABS*	00000000 libgcc2.c
00000000 l    df *ABS*	00000000 abort.c
00000000 l    df *ABS*	00000000 malloc.c
00000000 l    df *ABS*	00000000 memset.c
00000000 l    df *ABS*	00000000 nano-mallocr.c
00000000 l    df *ABS*	00000000 nano-mallocr.c
00000000 l    df *ABS*	00000000 sbrkr.c
00000000 l    df *ABS*	00000000 signal.c
00000000 l    df *ABS*	00000000 signalr.c
00000000 l    df *ABS*	00000000 strcmp.c
00000000 l    df *ABS*	00000000 impure.c
00019274 l     O .rwdata	000000e4 impure_data
00000000 l    df *ABS*	00000000 int_errno.c
00000000 l    df *ABS*	00000000 alt_exit.c
00000000 l    df *ABS*	00000000 alt_getpid.c
00000000 l    df *ABS*	00000000 alt_iic.c
00000000 l    df *ABS*	00000000 alt_iic_isr_register.c
00000000 l    df *ABS*	00000000 alt_irq_vars.c
00000000 l    df *ABS*	00000000 alt_kill.c
00000000 l    df *ABS*	00000000 alt_load.c
00000000 l    df *ABS*	00000000 alt_main.c
00000000 l    df *ABS*	00000000 alt_malloc_lock.c
00000000 l    df *ABS*	00000000 alt_sbrk.c
000197d8 l     O .rwdata	00000004 heap_end
00000000 l    df *ABS*	00000000 alt_usleep.c
00000000 l    df *ABS*	00000000 alt_sys_init.c
00019384 l     O .rwdata	0000002c jtag_uart
00019358 l     O .rwdata	0000002c uart_0
00000000 l    df *ABS*	00000000 altera_avalon_jtag_uart_fd.c
00000000 l    df *ABS*	00000000 altera_avalon_jtag_uart_read.c
00000000 l    df *ABS*	00000000 altera_avalon_jtag_uart_write.c
00000000 l    df *ABS*	00000000 altera_avalon_timer_sc.c
00017b00 l     F .text	0000003c alt_avalon_timer_sc_irq
00000000 l    df *ABS*	00000000 altera_avalon_uart_fd.c
00000000 l    df *ABS*	00000000 altera_avalon_uart_read.c
00000000 l    df *ABS*	00000000 altera_avalon_uart_write.c
00000000 l    df *ABS*	00000000 alt_busy_sleep.c
00000000 l    df *ABS*	00000000 alt_close.c
00000000 l    df *ABS*	00000000 alt_dcache_flush_all.c
00000000 l    df *ABS*	00000000 alt_dev.c
00017e04 l     F .text	00000008 alt_dev_null_write
00000000 l    df *ABS*	00000000 alt_dev_llist_insert.c
00000000 l    df *ABS*	00000000 alt_do_ctors.c
00000000 l    df *ABS*	00000000 alt_do_dtors.c
00000000 l    df *ABS*	00000000 alt_errno.c
00000000 l    df *ABS*	00000000 alt_icache_flush_all.c
00000000 l    df *ABS*	00000000 alt_io_redirect.c
00017f7c l     F .text	00000078 alt_open_fd.constprop.0
00000000 l    df *ABS*	00000000 alt_open.c
00000000 l    df *ABS*	00000000 alt_release_fd.c
00000000 l    df *ABS*	00000000 alt_tick.c
00000000 l    df *ABS*	00000000 altera_nios2_gen2_irq.c
00000000 l    df *ABS*	00000000 alt_find_dev.c
00000000 l    df *ABS*	00000000 alt_find_file.c
00000000 l    df *ABS*	00000000 alt_get_fd.c
00000000 l    df *ABS*	00000000 atexit.c
00000000 l    df *ABS*	00000000 exit.c
00000000 l    df *ABS*	00000000 memcmp.c
00000000 l    df *ABS*	00000000 memcpy.c
00000000 l    df *ABS*	00000000 strlen.c
00000000 l    df *ABS*	00000000 __atexit.c
00000000 l    df *ABS*	00000000 __call_atexit.c
00019dd4 g     O .bss	00000004 alt_instruction_exception_handler
000103b0 g     F .text	00000150 _ZN21PositionControllerPan5ResetEf
00014c74 g     F .text	00000028 __cxa_free_exception
00013fbc g     F .text	00000008 _ZNKSt9type_info15__is_function_pEv
0001886c  w    O .rodata	00000018 _ZTI22PositionControllerTilt
00018ee4  w    O .rodata	00000010 _ZTIPKDs
00013984 g     F .text	00000014 _ZSt10unexpectedv
00012470 g     F .text	000000a8 _ZN6Serial4UART10uart_0_isrEPv
000197a4  w    O .rwdata	00000008 _ZTIw
00019784  w    O .rwdata	00000008 _ZTIc
00017938 g     F .text	00000060 alt_main
00019f58 g     O .bss	00000100 alt_irq
00014fa8 g     F .text	00000004 _ZN10__cxxabiv115__forced_unwindD1Ev
0001977c  w    O .rwdata	00000008 _ZTIa
00013bf8 g     F .text	00000004 _Znaj
00010254  w    F .text	00000004 _ZN13Submodel20sim16CalculateDynamicEv
00010240 g     F .text	00000014 _ZN8DiscreteC2Ev
0001117c g     F .text	00000004 _ZN22PositionControllerTilt14CalculateFinalEv
00016c38 g     F .text	00000020 .hidden _Unwind_GetIPInfo
000197fc g       *ABS*	00000000 __flash_rwdata_start
000120a4 g     F .text	000000e0 _ZN5Plant5MotorC2Emmmmm
00018d74  w    O .rodata	00000010 _ZTIPy
00019620  w    O .rwdata	00000002 _ZTSa
00018b34  w    O .rodata	00000014 _ZTVSt17bad_function_call
00013b24 g     F .text	00000084 __cxa_rethrow
000187ec  w    O .rodata	00000018 _ZTS21PositionControllerPan
00010240 g     F .text	00000014 _ZN8DiscreteC1Ev
00016bd0 g     F .text	00000010 .hidden _Unwind_SjLj_Unregister
000139c8 g     F .text	00000024 _ZSt14set_unexpectedPFvvE
00018e04  w    O .rodata	00000010 _ZTIPKi
00016c28 g     F .text	00000010 .hidden _Unwind_GetIP
0001239c g     F .text	00000024 _ZN5Plant5Motor7disableEv
0001a058 g       *ABS*	00000000 __alt_heap_start
00019660  w    O .rwdata	00000003 _ZTSPj
00017624 g     F .text	00000044 _kill_r
00015458 g     F .text	00000010 _ZNSt9bad_allocD2Ev
00017428 g     F .text	00000078 _signal_r
00019684  w    O .rwdata	00000003 _ZTSPx
0001978c  w    O .rwdata	00000008 _ZTIDi
000196e4  w    O .rwdata	00000005 _ZTSPKDd
00019678  w    O .rwdata	00000003 _ZTSPm
00014ce0 g     F .text	0000002c __cxa_free_dependent_exception
00013cf0 g     F .text	00000010 _ZN10__cxxabiv120__si_class_type_infoD2Ev
00018a0c  w    O .rodata	00000025 _ZTSN10__cxxabiv120__si_class_type_infoE
00010e58 g     F .text	0000010c _ZN22PositionControllerTilt16CalculateDynamicEv
0001799c g     F .text	00000004 __malloc_unlock
000195ec  w    O .rwdata	00000005 _ZTSPKDu
00019014  w    O .rodata	00000024 _ZTVN10__cxxabiv129__pointer_to_member_type_infoE
00014fa8 g     F .text	00000004 _ZN10__cxxabiv115__forced_unwindD2Ev
000147a4 g     F .text	00000264 _ZNK10__cxxabiv121__vmi_class_type_info11__do_upcastEPKNS_17__class_type_infoEPKvRNS1_15__upcast_resultE
00014f3c g     F .text	00000020 _ZSt18uncaught_exceptionv
00010548 g     F .text	00000004 _ZN21PositionControllerPan14CalculateInputEv
00015440 g     F .text	0000000c __cxa_deleted_virtual
00018cf4  w    O .rodata	00000010 _ZTIPDn
000188f8  w    O .rodata	00000010 _ZTIPFvvE
0001965c  w    O .rwdata	00000002 _ZTSj
00014f78 g     F .text	00000004 _ZNSt9exceptionD2Ev
000189b8  w    O .rodata	00000024 _ZTSN10__cxxabiv119__pointer_type_infoE
00019d9c g     O .bss	00000001 timer
00013c04 g     F .text	00000010 _ZN10__cxxabiv119__pointer_type_infoD1Ev
000190ec  w    O .rodata	0000000c _ZTISt8bad_cast
00018bf4  w    O .rodata	00000014 _ZTVSt13bad_exception
000182c8 g     F .text	00000008 altera_nios2_gen2_irq_init
00019608  w    O .rwdata	00000004 _ZTSPDi
00018794  w    O .rodata	00000014 _ZTS17IntegrationMethod
00015568 g     F .text	00000010 _ZNSt20bad_array_new_lengthD1Ev
000195cc  w    O .rwdata	00000002 _ZTSb
00010000 g     F .entry	0000000c __reset
0001961c  w    O .rwdata	00000004 _ZTSPKc
00016c74 g     F .text	00000008 .hidden _Unwind_GetRegionStart
00019694  w    O .rwdata	00000004 _ZTSPKy
000195d4  w    O .rwdata	00000004 _ZTSPKb
00010020 g       *ABS*	00000000 __flash_exceptions_start
00011a54 g     F .text	000001b8 _Z16handleTimerEventv
00018e24  w    O .rodata	00000010 _ZTIPKt
00019624  w    O .rwdata	00000003 _ZTSPa
00019dc0 g     O .bss	00000004 errno
00019d9f g     O .bss	00000004 _ZN6Serial4UART7rx_dataE
000195c8  w    O .rwdata	00000004 _ZTSPKv
00018884  w    O .rodata	00000034 _ZTV22PositionControllerTilt
00016e3c g     F .text	00000088 .hidden _Unwind_Backtrace
00018f44  w    O .rodata	00000010 _ZTIPKb
00012518 g     F .text	00000164 _ZN6Serial4UARTC1ESt8functionIFvRNS_7messageEEE
00019dcc g     O .bss	00000004 alt_argv
00021558 g       *ABS*	00000000 _gp
000179ec g     F .text	00000004 usleep
00015620 g     F .text	00000038 _ZNSt10bad_typeidD0Ev
00014fe0 g     F .text	00000010 _ZN10__cxxabiv123__fundamental_type_infoD1Ev
00019ed8 g     O .bss	00000028 pan_motor
000155cc g     F .text	00000038 _ZNSt8bad_castD0Ev
000176c4 g     F .text	00000008 getpid
0001371c g     F .text	0000017c __cxa_call_unexpected
00014dc8 g     F .text	00000008 __cxa_get_exception_ptr
00019670  w    O .rwdata	00000004 _ZTSPKl
000193b0 g     O .rwdata	00000180 alt_fd_list
000150c0 g     F .text	00000038 _ZN10__cxxabiv117__pbase_type_infoD0Ev
00018dd4  w    O .rodata	00000010 _ZTIPl
00016d5c g     F .text	00000044 .hidden _Unwind_SjLj_ForcedUnwind
00016bf8 g     F .text	00000018 .hidden _Unwind_GetCFA
00019764  w    O .rwdata	00000008 _ZTIt
00013998 g     F .text	00000024 _ZSt13set_terminatePFvvE
000182d0 g     F .text	00000070 alt_find_dev
00018494 g     F .text	00000028 memcpy
000195c4  w    O .rwdata	00000003 _ZTSPv
00014c9c g     F .text	00000044 __cxa_allocate_dependent_exception
00011944 g     F .text	00000110 _ZN22PositionControllerTilt9CalculateEPfS0_
00019f28 g     O .bss	00000010 _ZN6Serial4UART8callbackE
0001292c g     F .text	00000018 _ZNK10__cxxabiv117__class_type_info20__do_find_public_srcEiPKvPKS0_S2_
00017ff4 g     F .text	00000064 alt_io_redirect
00019d8c g     O .bss	00000008 y_pan
00018794 g       *ABS*	00000000 __DTOR_END__
00018fd8  w    O .rodata	0000002e _ZTSN10__cxxabiv129__pointer_to_member_type_infoE
00018f74  w    O .rodata	00000010 _ZTIPv
00012944 g     F .text	00000010 _ZN10__cxxabiv117__class_type_infoD1Ev
000197ac  w    O .rwdata	00000008 _ZTIb
00018ac4  w    O .rodata	0000000c _ZTIN10__cxxabiv121__vmi_class_type_infoE
00018fa8  w    O .rodata	0000000c _ZTIN10__cxxabiv117__pbase_type_infoE
00017f0c g     F .text	00000070 alt_exception_cause_generated_bad_addr
0001960c  w    O .rwdata	00000005 _ZTSPKDi
00019eb8 g     O .bss	00000010 u_pan
00018dc4  w    O .rodata	00000010 _ZTIPKl
00012744 g     F .text	0000011c _ZN5TimerC2ESt8functionIFvvEE
00013c14 g     F .text	00000038 _ZN10__cxxabiv119__pointer_type_infoD0Ev
00015568 g     F .text	00000010 _ZNSt20bad_array_new_lengthD2Ev
00017a78 g     F .text	00000058 altera_avalon_jtag_uart_read
0001710c g     F .text	0000000c malloc
00019094  w    O .rodata	00000019 _ZTSSt20bad_array_new_length
000117d0 g     F .text	00000038 _ZTv0_n16_N22PositionControllerTiltD0Ev
0001700c g     F .text	00000064 .hidden __udivsi3
00010540 g     F .text	00000004 _ZN21PositionControllerPan16CalculateInitialEv
000174a0 g     F .text	000000b4 _raise_r
00019580  w    O .rwdata	00000005 _ZTSFvvE
00018ce4  w    O .rodata	00000010 _ZTIPKDn
00010350 g     F .text	00000018 _ZTv0_n12_N21PositionControllerPan16CalculateDynamicEv
00019648  w    O .rwdata	00000003 _ZTSPt
00014ff0 g     F .text	00000038 _ZN10__cxxabiv123__fundamental_type_infoD0Ev
00017668 g     F .text	00000004 _getpid_r
00014f5c g     F .text	0000001c _ZSt19uncaught_exceptionsv
00014bec g     F .text	00000030 _ZN9__gnu_cxx9__freeresEv
00014018 g     F .text	00000010 _ZN10__cxxabiv121__vmi_class_type_infoD1Ev
00019704  w    O .rwdata	00000008 _ZTIDd
000129f8 g     F .text	0000009c _ZNK10__cxxabiv117__class_type_info10__do_catchEPKSt9type_infoPPvj
000196ac  w    O .rwdata	00000004 _ZTSPKd
00017554 g     F .text	000000a0 __sigtramp_r
000120a4 g     F .text	000000e0 _ZN5Plant5MotorC1Emmmmm
0001738c g     F .text	00000040 _sbrk_r
00014f80 g     F .text	0000000c _ZGTtNKSt9exception4whatEv
00019590  w    O .rwdata	00000006 _ZTSPFvvE
00018a7c  w    O .rodata	00000020 _ZTVSt9type_info
00018804  w    O .rodata	00000018 _ZTI21PositionControllerPan
000150b0 g     F .text	00000010 _ZN10__cxxabiv117__pbase_type_infoD1Ev
00014f80 g     F .text	0000000c _ZNKSt9exception4whatEv
0001967c  w    O .rwdata	00000004 _ZTSPKm
000197dc g     O .rwdata	00000004 alt_max_fd
00018ed4  w    O .rodata	00000010 _ZTIPDi
00019058  w    O .rodata	0000000c _ZTISt9bad_alloc
00018d54  w    O .rodata	00000010 _ZTIPf
00016734 g     F .text	000000fc .hidden __extendsfdf2
000189e8  w    O .rodata	00000024 _ZTVN10__cxxabiv119__pointer_type_infoE
00018cb4  w    O .rodata	00000010 _ZTIPDd
000188e8  w    O .rodata	00000010 _ZTIPFvRN6Serial7messageEE
00018b28  w    O .rodata	0000000c _ZTISt17bad_function_call
00010b80 g     F .text	00000018 _ZTv0_n16_N21PositionControllerPanD1Ev
000123c0 g     F .text	00000020 _ZN5Plant5Motor8getAngleEv
00018a40  w    O .rodata	0000002c _ZTVN10__cxxabiv120__si_class_type_infoE
000187a8  w    O .rodata	0000000a _ZTS8Discrete
000155bc g     F .text	00000010 _ZNSt8bad_castD1Ev
0001298c g     F .text	0000006c _ZNK10__cxxabiv117__class_type_info11__do_upcastEPKS0_PKvRNS0_15__upcast_resultE
00010570 g     F .text	00000004 _ZN21PositionControllerPan14CalculateFinalEv
00014a8c g     F .text	00000004 _ZdlPv
000197cc g     O .rwdata	00000004 _global_impure_ptr
00014028 g     F .text	00000038 _ZN10__cxxabiv121__vmi_class_type_infoD0Ev
0001a058 g       *ABS*	00000000 __bss_end
00015550 g     F .text	0000000c _ZSt15get_new_handlerv
00019690  w    O .rwdata	00000003 _ZTSPy
000195e4  w    O .rwdata	00000003 _ZTSDu
00017758 g     F .text	00000068 alt_iic_isr_register
00019658  w    O .rwdata	00000004 _ZTSPKi
00018f54  w    O .rodata	00000010 _ZTIPb
00018210 g     F .text	000000b8 alt_tick
00016bb8 g     F .text	00000018 .hidden _Unwind_SjLj_Register
000170f4 g     F .text	00000018 abort
0001178c g     F .text	00000018 _ZTv0_n16_N22PositionControllerTiltD1Ev
00011114 g     F .text	0000000c _ZN22PositionControllerTilt10IsFinishedEv
00019734  w    O .rwdata	00000008 _ZTIy
00018c84  w    O .rodata	00000010 _ZTIPKDe
000123e0 g     F .text	0000000c _ZN5Plant5Motor8readDataEv
00014e88 g     F .text	000000b4 __cxa_end_catch
00011c78  w    F .text	00000048 _ZNSt17_Function_handlerIFvvEPS0_E10_M_managerERSt9_Any_dataRKS3_St18_Manager_operation
00017740 g     F .text	00000018 alt_ic_irq_enabled
00014f7c g     F .text	00000004 _ZNSt13bad_exceptionD2Ev
00019d94 g     O .bss	00000008 y_tilt
00018d44  w    O .rodata	00000010 _ZTIPKf
00011808 g     F .text	0000013c _ZN22PositionControllerTilt10InitializeEPfS0_f
000181e0 g     F .text	00000030 alt_alarm_stop
00011c70  w    F .text	00000008 _ZNSt17_Function_handlerIFvvEPS0_E9_M_invokeERKSt9_Any_data
000117a4 g     F .text	0000002c _ZN22PositionControllerTiltD0Ev
00018d34  w    O .rodata	00000010 _ZTIPd
00019dc4 g     O .bss	00000004 alt_irq_active
000101d0 g     F .text	00000004 _ZN8Discrete9TerminateEv
00013960 g     F .text	00000014 _ZSt9terminatev
00019638  w    O .rwdata	00000002 _ZTSs
000196c0  w    O .rwdata	00000004 _ZTSPDn
00010000 g       *ABS*	00000000 __alt_mem_onchip_mem
00018fb4  w    O .rodata	00000024 _ZTVN10__cxxabiv117__pbase_type_infoE
000100fc g     F .exceptions	00000060 alt_irq_handler
00011d08  w    F .text	00000064 _ZNSt14_Function_baseD2Ev
00019530 g     O .rwdata	00000028 alt_dev_null
00014060 g     F .text	00000128 _ZNK10__cxxabiv121__vmi_class_type_info20__do_find_public_srcEiPKvPKNS_17__class_type_infoES2_
00019654  w    O .rwdata	00000003 _ZTSPi
00014fb4 g     F .text	00000004 _ZN10__cxxabiv119__foreign_exceptionD2Ev
0001969c  w    O .rwdata	00000003 _ZTSPf
00018f24  w    O .rodata	00000010 _ZTIPKw
000196a8  w    O .rwdata	00000003 _ZTSPd
000196d0  w    O .rwdata	00000004 _ZTSPDf
00018908  w    O .rodata	00000022 _ZTSN10__cxxabiv117__class_type_infoE
00017e00 g     F .text	00000004 alt_dcache_flush_all
0001973c  w    O .rwdata	00000008 _ZTIx
000195dc  w    O .rwdata	00000003 _ZTSPw
000195a4  w    O .rwdata	00000008 _ZTISt9exception
000196dc  w    O .rwdata	00000003 _ZTSDd
000196d4  w    O .rwdata	00000005 _ZTSPKDf
00010368 g     F .text	00000024 _ZN21PositionControllerPan21CopyInputsToVariablesEPf
00019674  w    O .rwdata	00000002 _ZTSm
000197fc g       *ABS*	00000000 __ram_rwdata_end
00018e14  w    O .rodata	00000010 _ZTIPi
00012340 g     F .text	00000030 _ZN5Plant5Motor12setDirectionENS0_9DirectionE
00013fb8 g     F .text	00000004 _ZNSt9type_infoD1Ev
000197e0 g     O .rwdata	00000008 alt_dev_list
00014fb4 g     F .text	00000004 _ZN10__cxxabiv119__foreign_exceptionD1Ev
00013bc0 g     F .text	00000038 _ZN10__cxxabiv120__function_type_infoD0Ev
000195f8  w    O .rwdata	00000004 _ZTSPDs
00013fcc g     F .text	00000008 _ZNSt9type_infoD0Ev
000187b4  w    O .rodata	0000000c _ZTI8Discrete
00019274 g       *ABS*	00000000 __ram_rodata_end
00012b58 g     F .text	00000004 _ZdlPvj
0001972c  w    O .rwdata	00000008 _ZTIf
000177c0 g     F .text	000000f4 kill
00019da4 g     O .bss	00000004 _ZN5Timer17timer_isr_contextE
0001966c  w    O .rwdata	00000003 _ZTSPl
00013ba8 g     F .text	00000008 _ZNK10__cxxabiv120__function_type_info15__is_function_pEv
000195fc  w    O .rwdata	00000005 _ZTSPKDs
00018e54  w    O .rodata	00000010 _ZTIPs
00017070 g     F .text	0000005c .hidden __umodsi3
00013fc4 g     F .text	00000008 _ZNKSt9type_info11__do_upcastEPKN10__cxxabiv117__class_type_infoEPPv
000195f4  w    O .rwdata	00000003 _ZTSDs
00019688  w    O .rwdata	00000004 _ZTSPKx
00013a60 g     F .text	00000064 __cxa_init_primary_exception
00010840 g     F .text	00000190 _ZN21PositionControllerPanC1Ev
000139bc g     F .text	0000000c _ZSt13get_terminatev
0001a058 g       *ABS*	00000000 end
000196cc  w    O .rwdata	00000003 _ZTSDf
00014a14 g     F .text	00000010 _ZNSt17bad_function_callD2Ev
000116e4 g     F .text	000000a8 _ZN22PositionControllerTiltD1Ev
00019614  w    O .rwdata	00000002 _ZTSc
00017c1c g     F .text	00000084 altera_avalon_uart_write
00016e24 g     F .text	00000018 .hidden _Unwind_DeleteException
00011120 g     F .text	00000034 _ZN22PositionControllerTilt9TerminateEPfS0_
00019664  w    O .rwdata	00000004 _ZTSPKj
0001015c g     F .exceptions	00000024 alt_instruction_exception_entry
00012a94 g     F .text	000000c4 _ZNK10__cxxabiv117__class_type_info12__do_dyncastEiNS0_10__sub_kindEPKS0_PKvS3_S5_RNS0_16__dyncast_resultE
00014018 g     F .text	00000010 _ZN10__cxxabiv121__vmi_class_type_infoD2Ev
00018775 g       *ABS*	00000000 __CTOR_LIST__
0001b400 g       *ABS*	00000000 __alt_stack_pointer
00018db4  w    O .rodata	00000010 _ZTIPm
00017b3c g     F .text	00000048 alt_avalon_timer_sc_init
00017b94 g     F .text	00000010 altera_avalon_uart_write_fd
00016ec4 g     F .text	00000054 .hidden __clzsi2
000128b4 g     F .text	00000078 _ZNK10__cxxabiv117__class_type_info11__do_upcastEPKS0_PPv
00017ad0 g     F .text	00000030 altera_avalon_jtag_uart_write
0001038c g     F .text	00000024 _ZN21PositionControllerPan22CopyVariablesToOutputsEPf
00018b7c  w    O .rodata	00000012 _ZTSSt13bad_exception
0001962c  w    O .rwdata	00000002 _ZTSh
00012860 g     F .text	0000003c _ZN5Timer6enableEv
00012184 g     F .text	00000134 _ZN5Plant5Motor20setSpeedAndDirectionEa
0001555c g     F .text	0000000c _ZNKSt20bad_array_new_length4whatEv
00017144 g     F .text	000000f8 _free_r
000155b0 g     F .text	0000000c _ZNKSt8bad_cast4whatEv
0001144c g     F .text	00000190 _ZN22PositionControllerTiltC1Ev
000185e8 g     F .text	00000128 __call_exitprocs
00010180 g     F .text	0000003c _start
00019ddc g     O .bss	00000004 _alt_tick_rate
00018a6c  w    O .rodata	0000000d _ZTSSt9type_info
000150b0 g     F .text	00000010 _ZN10__cxxabiv117__pbase_type_infoD2Ev
0001544c g     F .text	0000000c _ZNKSt9bad_alloc4whatEv
00015434 g     F .text	0000000c __cxa_pure_virtual
000101bc g     F .text	00000004 _ZN8DiscreteD2Ev
00019064  w    O .rodata	00000014 _ZTVSt9bad_alloc
00019dd8 g     O .bss	00000004 _alt_nticks
00017600 g     F .text	00000010 signal
00017a10 g     F .text	00000048 alt_sys_init
000195d0  w    O .rwdata	00000003 _ZTSPb
00019794  w    O .rwdata	00000008 _ZTIDs
00018e74  w    O .rodata	00000010 _ZTIPh
00018f34  w    O .rodata	00000010 _ZTIPw
0001912c  w    O .rodata	0000000c _ZTISt10bad_typeid
000184d8 g     F .text	00000110 __register_exitproc
000190bc  w    O .rodata	00000014 _ZTVSt20bad_array_new_length
00019048  w    O .rodata	0000000d _ZTSSt9bad_alloc
00019f38 g     O .bss	00000010 _ZN5Timer8callbackE
00014f8c g     F .text	0000000c _ZGTtNKSt13bad_exception4whatEv
00013d38 g     F .text	00000160 _ZNK10__cxxabiv120__si_class_type_info12__do_dyncastEiNS_17__class_type_info10__sub_kindEPKS1_PKvS4_S6_RNS1_16__dyncast_resultE
00019774  w    O .rwdata	00000008 _ZTIh
00018d84  w    O .rodata	00000010 _ZTIPKx
00012370 g     F .text	0000002c _ZN5Plant5Motor6enableEv
000170cc g     F .text	00000028 .hidden __mulsi3
00019274 g       *ABS*	00000000 __ram_rwdata_start
00016c94 g     F .text	000000c8 .hidden _Unwind_SjLj_RaiseException
00018794 g       *ABS*	00000000 __ram_rodata_start
00016da0 g     F .text	00000044 .hidden _Unwind_SjLj_Resume
00018c1c  w    O .rodata	00000014 _ZTVN10__cxxabiv119__foreign_exceptionE
00019754  w    O .rwdata	00000008 _ZTIj
00015578 g     F .text	00000038 _ZNSt20bad_array_new_lengthD0Ev
00019724  w    O .rwdata	00000008 _ZTId
00015508 g     F .text	00000034 __cxa_throw_bad_array_new_length
00013fb8 g     F .text	00000004 _ZNSt9type_infoD2Ev
000196bc  w    O .rwdata	00000003 _ZTSDn
00014fb8 g     F .text	00000008 _ZN10__cxxabiv119__foreign_exceptionD0Ev
00011c64  w    F .text	0000000c _ZNSt17_Function_handlerIFvRN6Serial7messageEEPS3_E9_M_invokeERKSt9_Any_dataS2_
00015354 g     F .text	00000010 _ZN10__cxxabiv129__pointer_to_member_type_infoD2Ev
00013f34 g     F .text	00000084 _ZNK10__cxxabiv120__si_class_type_info11__do_upcastEPKNS_17__class_type_infoEPKvRNS1_15__upcast_resultE
00018de4  w    O .rodata	00000010 _ZTIPKj
00018a9c  w    O .rodata	00000026 _ZTSN10__cxxabiv121__vmi_class_type_infoE
00010d40 g     F .text	00000118 _ZN21PositionControllerPan9CalculateEPfS0_
00013bfc g     F .text	00000008 _ZNK10__cxxabiv119__pointer_type_info14__is_pointer_pEv
00018c58  w    O .rodata	0000000c _ZTIN10__cxxabiv123__fundamental_type_infoE
00017a58 g     F .text	00000010 altera_avalon_jtag_uart_read_fd
000183dc g     F .text	00000054 alt_get_fd
00017ca0 g     F .text	000000ac alt_busy_sleep
000196c4  w    O .rwdata	00000005 _ZTSPKDn
000195b4  w    O .rwdata	00000008 _ZTIN10__cxxabiv119__foreign_exceptionE
0001898c  w    O .rodata	0000000c _ZTIN10__cxxabiv120__function_type_infoE
00011c0c g     F .text	00000058 _Z15handleUartEventRN6Serial7messageE
00019d84 g     O .bss	00000004 angle
000196a0  w    O .rwdata	00000004 _ZTSPKf
000101c0 g     F .text	00000010 _ZN8Discrete10InitializeEP13Submodel20sim
00019628  w    O .rwdata	00000004 _ZTSPKa
00018464 g     F .text	00000030 memcmp
0001a058 g       *ABS*	00000000 __alt_stack_base
00015468 g     F .text	00000038 _ZNSt9bad_allocD0Ev
00013cf0 g     F .text	00000010 _ZN10__cxxabiv120__si_class_type_infoD1Ev
00014fe0 g     F .text	00000010 _ZN10__cxxabiv123__fundamental_type_infoD2Ev
00011180 g     F .text	00000038 _ZN22PositionControllerTilt13SetFinishTimeEf
00011160 g     F .text	0000001c _ZN22PositionControllerTilt15CalculateOutputEv
000195e8  w    O .rwdata	00000004 _ZTSPDu
00016de4 g     F .text	00000040 .hidden _Unwind_SjLj_Resume_or_Rethrow
00019588  w    O .rwdata	00000008 _ZTIFvvE
00015658 g     F .text	00000930 .hidden __divdf3
000190e0  w    O .rodata	0000000c _ZTSSt8bad_cast
00013fbc g     F .text	00000008 _ZNKSt9type_info14__is_pointer_pEv
00013c04 g     F .text	00000010 _ZN10__cxxabiv119__pointer_type_infoD2Ev
00019578  w    O .rwdata	00000008 _ZTIFvRN6Serial7messageEE
00010f7c g     F .text	0000002c _ZN22PositionControllerTilt21CopyInputsToVariablesEPf
00015f88 g     F .text	000007ac .hidden __muldf3
00018be0  w    O .rodata	00000014 _ZTVSt9exception
00014fac g     F .text	00000008 _ZN10__cxxabiv115__forced_unwindD0Ev
00018340 g     F .text	0000009c alt_find_file
00017e0c g     F .text	0000006c alt_dev_llist_insert
00017998 g     F .text	00000004 __malloc_lock
000179a0 g     F .text	0000004c sbrk
00015364 g     F .text	00000038 _ZN10__cxxabiv129__pointer_to_member_type_infoD0Ev
00018938  w    O .rodata	0000002c _ZTVN10__cxxabiv117__class_type_infoE
00013ac4 g     F .text	00000060 __cxa_throw
00016c58 g     F .text	00000010 .hidden _Unwind_SetIP
00018cd4  w    O .rodata	00000010 _ZTIPDf
00019596 g     O .rwdata	00000001 tilt_homing_done
00010500 g     F .text	0000000c _ZN21PositionControllerPan10IsFinishedEv
0001975c  w    O .rwdata	00000008 _ZTIi
00019de0 g     O .bss	0000006c pan_model
00018d64  w    O .rodata	00000010 _ZTIPKy
00018f14  w    O .rodata	00000010 _ZTIPDu
00019d84 g       *ABS*	00000000 __bss_start
00017124 g     F .text	00000020 memset
00011d6c g     F .text	00000170 main
000196b0  w    O .rwdata	00000002 _ZTSe
00019da3 g     O .bss	00000001 _ZN6Serial4UART10uart_readyE
00019dc8 g     O .bss	00000004 alt_envp
00019138  w    O .rodata	00000014 _ZTVSt10bad_typeid
00017a68 g     F .text	00000010 altera_avalon_jtag_uart_write_fd
0001971c  w    O .rwdata	00000008 _ZTIe
00014fc0 g     F .text	00000004 _ZGTtNKSt9exceptionD1Ev
00014fc8 g     F .text	0000000c __cxa_get_globals_fast
00014a58 g     F .text	00000034 _ZSt25__throw_bad_function_callv
000190f8  w    O .rodata	00000014 _ZTVSt8bad_cast
00012b5c g     F .text	00000004 _ZdaPv
0001b400 g       *ABS*	00000000 __alt_heap_limit
00019698  w    O .rwdata	00000002 _ZTSf
00015604 g     F .text	0000000c _ZNKSt10bad_typeid4whatEv
00016830 g     F .text	00000170 .hidden __truncdfsf2
00018ea4  w    O .rodata	00000010 _ZTIPKc
00012714 g     F .text	00000030 _ZN5Timer11timer_0_isrEPv
000188d0  w    O .rodata	00000017 _ZTSPFvRN6Serial7messageEE
0001723c g     F .text	00000150 _malloc_r
00014a08 g     F .text	0000000c _ZNKSt17bad_function_call4whatEv
00018da4  w    O .rodata	00000010 _ZTIPKm
00014f8c g     F .text	0000000c _ZNKSt13bad_exception4whatEv
000197f0 g     O .rwdata	00000004 alt_errno
00019570  w    O .rwdata	00000008 _ZTT22PositionControllerTilt
00017610 g     F .text	00000008 _init_signal
0001892c  w    O .rodata	0000000c _ZTIN10__cxxabiv117__class_type_infoE
000122b8 g     F .text	00000088 _ZN5Plant5Motor12setDutyCycleEh
00018ec4  w    O .rodata	00000010 _ZTIPKDi
000115dc g     F .text	00000108 _ZN22PositionControllerTiltD2Ev
00014f7c g     F .text	00000004 _ZNSt13bad_exceptionD1Ev
000190b0  w    O .rodata	0000000c _ZTISt20bad_array_new_length
00016f18 g     F .text	00000080 .hidden __divsi3
00015354 g     F .text	00000010 _ZN10__cxxabiv129__pointer_to_member_type_infoD1Ev
00018d04  w    O .rodata	00000010 _ZTIPKe
00018788 g       *ABS*	00000000 __CTOR_END__
00011d08  w    F .text	00000064 _ZNSt14_Function_baseD1Ev
00019568  w    O .rwdata	00000008 _ZTT21PositionControllerPan
000109d0 g     F .text	00000108 _ZN21PositionControllerPanD2Ev
00019604  w    O .rwdata	00000003 _ZTSDi
00019d9e g     O .bss	00000001 _ZN6Serial4UART6rx_lenE
0001766c g     F .text	00000044 strcmp
00018e44  w    O .rodata	00000010 _ZTIPKs
00018eb4  w    O .rodata	00000010 _ZTIPc
00019714  w    O .rwdata	00000008 _ZTIDn
00018794 g       *ABS*	00000000 __flash_rodata_start
00018c08  w    O .rodata	00000014 _ZTVN10__cxxabiv115__forced_unwindE
0001267c g     F .text	00000048 _ZN6Serial4UART8sendDataENS_7messageE
00018788 g       *ABS*	00000000 __DTOR_LIST__
0001970c  w    O .rwdata	00000008 _ZTIDf
000155bc g     F .text	00000010 _ZNSt8bad_castD2Ev
000196b4  w    O .rwdata	00000003 _ZTSPe
000195d8  w    O .rwdata	00000002 _ZTSw
000179f0 g     F .text	00000020 alt_irq_init
00019618  w    O .rwdata	00000003 _ZTSPc
000181b4 g     F .text	0000002c alt_release_fd
00013d00 g     F .text	00000038 _ZN10__cxxabiv120__si_class_type_infoD0Ev
000150f8 g     F .text	0000025c _ZNK10__cxxabiv117__pbase_type_info10__do_catchEPKSt9type_infoPPvj
00018cc4  w    O .rodata	00000010 _ZTIPKDf
0001914c g     O .rodata	00000100 .hidden __clz_tab
000196f4  w    O .rwdata	00000005 _ZTSPKDe
00018430 g     F .text	00000014 atexit
000154a0 g     F .text	00000034 __cxa_bad_cast
00016c8c g     F .text	00000008 .hidden _Unwind_GetTextRelBase
00018ad0  w    O .rodata	0000002c _ZTVN10__cxxabiv121__vmi_class_type_infoE
00014d70 g     F .text	00000058 __cxa_call_terminate
00018850  w    O .rodata	00000019 _ZTS22PositionControllerTilt
00019744  w    O .rwdata	00000008 _ZTIm
000197d0 g     O .rwdata	00000004 _impure_ptr
000195ac  w    O .rwdata	00000008 _ZTIN10__cxxabiv115__forced_unwindE
00018998  w    O .rodata	00000020 _ZTVN10__cxxabiv120__function_type_infoE
00019dd0 g     O .bss	00000004 alt_argc
00019e4c g     O .bss	0000006c tilt_model
00018c64  w    O .rodata	00000020 _ZTVN10__cxxabiv123__fundamental_type_infoE
00017ec0 g     F .text	00000048 _do_dtors
00019008  w    O .rodata	0000000c _ZTIN10__cxxabiv129__pointer_to_member_type_infoE
0001115c g     F .text	00000004 _ZN22PositionControllerTilt14CalculateInputEv
00018f04  w    O .rodata	00000010 _ZTIPKDu
0001054c g     F .text	00000024 _ZN21PositionControllerPan15CalculateOutputEv
000139ec g     F .text	0000000c _ZSt14get_unexpectedv
00010020 g       .exceptions	00000000 alt_irq_entry
000196ec  w    O .rwdata	00000003 _ZTSDe
00016c7c g     F .text	00000008 .hidden _Unwind_FindEnclosingFunction
00018e84  w    O .rodata	00000010 _ZTIPKa
000197e8 g     O .rwdata	00000008 alt_fs_list
00018bbc  w    O .rodata	00000024 _ZTSN10__cxxabiv119__foreign_exceptionE
00019ec8 g     O .bss	00000010 u_tilt
0001979c  w    O .rwdata	00000008 _ZTIDu
00018df4  w    O .rodata	00000010 _ZTIPj
00016c68 g     F .text	0000000c .hidden _Unwind_GetLanguageSpecificData
000196f0  w    O .rwdata	00000004 _ZTSPDe
00014dd0 g     F .text	000000b8 __cxa_begin_catch
00019634  w    O .rwdata	00000004 _ZTSPKh
00012944 g     F .text	00000010 _ZN10__cxxabiv117__class_type_infoD2Ev
00013974 g     F .text	00000010 _ZN10__cxxabiv112__unexpectedEPFvvE
00018f64  w    O .rodata	00000010 _ZTIPKv
000196b8  w    O .rwdata	00000004 _ZTSPKe
00014a24 g     F .text	00000034 _ZNSt17bad_function_callD0Ev
00010020 g       *ABS*	00000000 __ram_exceptions_start
00018b10  w    O .rodata	00000016 _ZTSSt17bad_function_call
000195c0  w    O .rwdata	00000002 _ZTSv
00014a14 g     F .text	00000010 _ZNSt17bad_function_callD1Ev
00010bc4 g     F .text	00000038 _ZTv0_n16_N21PositionControllerPanD0Ev
00014fa0 g     F .text	00000008 _ZNSt13bad_exceptionD0Ev
000195bc g     O .rwdata	00000004 _ZN10__cxxabiv119__terminate_handlerE
00019644  w    O .rwdata	00000002 _ZTSt
00013c4c g     F .text	000000a4 _ZNK10__cxxabiv119__pointer_type_info15__pointer_catchEPKNS_17__pbase_type_infoEPPvj
00018e34  w    O .rodata	00000010 _ZTIPt
00019560  w    O .rwdata	00000008 _ZTI13Submodel20sim
000176cc g     F .text	00000004 alt_ic_isr_register
00014c1c g     F .text	00000058 __cxa_allocate_exception
00018d24  w    O .rodata	00000010 _ZTIPKd
00018a34  w    O .rodata	0000000c _ZTIN10__cxxabiv120__si_class_type_infoE
00018e64  w    O .rodata	00000010 _ZTIPKh
0001553c g     F .text	00000014 _ZSt15set_new_handlerPFvvE
000197fc g       *ABS*	00000000 _edata
00017b84 g     F .text	00000010 altera_avalon_uart_read_fd
0001a058 g       *ABS*	00000000 _end
000197c8 g     O .rwdata	00000001 _ZSt7nothrow
00014188 g     F .text	0000061c _ZNK10__cxxabiv121__vmi_class_type_info12__do_dyncastEiNS_17__class_type_info10__sub_kindEPKS1_PKvS4_S6_RNS1_16__dyncast_resultE
00013084 g     F .text	00000698 __gxx_personality_sj0
00010180 g       *ABS*	00000000 __ram_exceptions_end
00019650  w    O .rwdata	00000002 _ZTSi
00010258 g     F .text	000000f8 _ZN21PositionControllerPan16CalculateDynamicEv
000101dc g     F .text	00000064 _ZN8Discrete4StepEv
0001968c  w    O .rwdata	00000002 _ZTSy
00014f78 g     F .text	00000004 _ZNSt9exceptionD1Ev
00011158 g     F .text	00000004 _ZN22PositionControllerTilt15CalculateStaticEv
00018f84  w    O .rodata	00000022 _ZTSN10__cxxabiv117__pbase_type_infoE
00010fa8 g     F .text	0000001c _ZN22PositionControllerTilt22CopyVariablesToOutputsEPf
00017708 g     F .text	00000038 alt_ic_irq_disable
00019668  w    O .rwdata	00000002 _ZTSl
00015028 g     F .text	00000070 _Znwj
000197b4  w    O .rwdata	00000008 _ZTIv
0001963c  w    O .rwdata	00000003 _ZTSPs
0001881c  w    O .rodata	00000034 _ZTV21PositionControllerPan
00018444 g     F .text	00000020 exit
00016c10 g     F .text	00000018 .hidden _Unwind_SetGR
00013e98 g     F .text	0000009c _ZNK10__cxxabiv120__si_class_type_info20__do_find_public_srcEiPKvPKNS_17__class_type_infoES2_
00013898 g     F .text	000000c8 _ZN10__cxxabiv111__terminateEPFvvE
00019d88 g     O .bss	00000001 pan_homing_done
00018964  w    O .rodata	00000025 _ZTSN10__cxxabiv120__function_type_infoE
00016f98 g     F .text	00000074 .hidden __modsi3
00015458 g     F .text	00000010 _ZNSt9bad_allocD1Ev
0001b400 g       *ABS*	00000000 __alt_data_end
00010020 g     F .exceptions	00000000 alt_exception
00019d9d g     O .bss	00000001 uart
000196a4  w    O .rwdata	00000002 _ZTSd
0001974c  w    O .rwdata	00000008 _ZTIl
000196e0  w    O .rwdata	00000004 _ZTSPDd
00018b90  w    O .rodata	0000000c _ZTISt13bad_exception
00018c94  w    O .rodata	00000010 _ZTIPDe
000123ec g     F .text	00000084 _ZN5Plant5Motor19isAtInitialPositionEv
000126c4 g     F .text	00000038 _ZN6Serial4UART14convertToArrayENS_7messageE
000101bc g     F .text	00000004 _ZN8DiscreteD1Ev
000187dc  w    O .rodata	00000010 _ZTS13Submodel20sim
00015098  w    F .text	00000018 _ZNK10__cxxabiv117__pbase_type_info15__pointer_catchEPKS0_PPvj
00013bb0 g     F .text	00000010 _ZN10__cxxabiv120__function_type_infoD2Ev
00018d94  w    O .rodata	00000010 _ZTIPx
000176b0 g     F .text	00000014 _exit
000187c0  w    O .rodata	0000001c _ZTV8Discrete
00016be0 g     F .text	00000018 .hidden _Unwind_GetGR
00014fd4 g     F .text	0000000c __cxa_get_globals
00019598 g     O .rwdata	00000004 _ZN10__cxxabiv120__unexpected_handlerE
000184bc g     F .text	0000001c strlen
00010f64 g     F .text	00000018 _ZTv0_n12_N22PositionControllerTilt16CalculateDynamicEv
00010544 g     F .text	00000004 _ZN21PositionControllerPan15CalculateStaticEv
000173cc g     F .text	0000005c _init_signal_r
0001959c  w    O .rwdata	00000008 _ZTISt9type_info
00018058 g     F .text	0000015c open
00018d14  w    O .rodata	00000010 _ZTIPe
00014fc4 g     F .text	00000004 _ZGTtNKSt13bad_exceptionD1Ev
00018b6c  w    O .rodata	0000000d _ZTSSt9exception
00019db8 g     O .bss	00000004 __malloc_sbrk_start
00011154 g     F .text	00000004 _ZN22PositionControllerTilt16CalculateInitialEv
0001911c  w    O .rodata	0000000f _ZTSSt10bad_typeid
000196fc  w    O .rwdata	00000008 _ZTIDe
00019f00 g     O .bss	00000028 tilt_motor
000154d4 g     F .text	00000034 __cxa_bad_typeid
00014f98 g     F .text	00000008 _ZNSt9exceptionD0Ev
00017f08 g     F .text	00000004 alt_icache_flush_all
00010ad8 g     F .text	000000a8 _ZN21PositionControllerPanD1Ev
000105ac g     F .text	00000294 _ZN21PositionControllerPanC2Ev
0001050c g     F .text	00000034 _ZN21PositionControllerPan9TerminateEPfS0_
00019680  w    O .rwdata	00000002 _ZTSx
00015610 g     F .text	00000010 _ZNSt10bad_typeidD1Ev
00016c84 g     F .text	00000008 .hidden _Unwind_GetDataRelBase
000197d4 g     O .rwdata	00000004 alt_priority_mask
00019dbc g     O .bss	00000004 __malloc_free_list
00011cc0  w    F .text	00000048 _ZNSt17_Function_handlerIFvRN6Serial7messageEEPS3_E10_M_managerERSt9_Any_dataRKS6_St18_Manager_operation
000176d0 g     F .text	00000038 alt_ic_irq_enable
0001976c  w    O .rwdata	00000008 _ZTIs
00017ba4 g     F .text	00000078 altera_avalon_uart_read
00018e94  w    O .rodata	00000010 _ZTIPa
000195e0  w    O .rwdata	00000004 _ZTSPKw
00010bfc g     F .text	00000144 _ZN21PositionControllerPan10InitializeEPfS0_f
00013bb0 g     F .text	00000010 _ZN10__cxxabiv120__function_type_infoD1Ev
00015610 g     F .text	00000010 _ZNSt10bad_typeidD2Ev
00018ef4  w    O .rodata	00000010 _ZTIPDs
00018ca4  w    O .rodata	00000010 _ZTIPKDd
000197f4 g     O .rwdata	00000008 alt_alarm_list
00018c30  w    O .rodata	00000028 _ZTSN10__cxxabiv123__fundamental_type_infoE
00017e78 g     F .text	00000048 _do_ctors
00017618 g     F .text	0000000c __sigtramp
000101d4 g     F .text	00000008 _ZN8DiscreteD0Ev
000189dc  w    O .rodata	0000000c _ZTIN10__cxxabiv119__pointer_type_infoE
00017d4c g     F .text	000000b4 close
00019630  w    O .rwdata	00000003 _ZTSPh
000188b8  w    O .rodata	00000016 _ZTSFvRN6Serial7messageEE
00010fc4 g     F .text	00000150 _ZN22PositionControllerTilt5ResetEf
00018b9c  w    O .rodata	00000020 _ZTSN10__cxxabiv115__forced_unwindE
000178b4 g     F .text	00000084 alt_load
00019558  w    O .rwdata	00000008 _ZTI17IntegrationMethod
00013fd4 g     F .text	00000044 _ZNKSt9type_info10__do_catchEPKS_PPvj
00019640  w    O .rwdata	00000004 _ZTSPKs
0001539c g     F .text	00000098 _ZNK10__cxxabiv129__pointer_to_member_type_info15__pointer_catchEPKNS_17__pbase_type_infoEPPvj
00010b98 g     F .text	0000002c _ZN21PositionControllerPanD0Ev
000175f4 g     F .text	0000000c raise
0001964c  w    O .rwdata	00000004 _ZTSPKt
00017118 g     F .text	0000000c free
00012954 g     F .text	00000038 _ZN10__cxxabiv117__class_type_infoD0Ev
00012518 g     F .text	00000164 _ZN6Serial4UARTC2ESt8functionIFvRNS_7messageEEE
000111b8 g     F .text	00000294 _ZN22PositionControllerTiltC2Ev
00010574 g     F .text	00000038 _ZN21PositionControllerPan13SetFinishTimeEf
00012744 g     F .text	0000011c _ZN5TimerC1ESt8functionIFvvEE



Disassembly of section .entry:

00010000 <__reset>:
 * Jump to the _start entry point in the .text section if reset code
 * is allowed or if optimizing for RTL simulation.
 */
#if defined(ALT_ALLOW_CODE_AT_RESET) || defined(ALT_SIM_OPTIMIZE)
    /* Jump to the _start entry point in the .text section. */
    movhi r1, %hi(_start)
   10000:	00400074 	movhi	at,1
    ori r1, r1, %lo(_start)
   10004:	08406014 	ori	at,at,384
    jmp r1
   10008:	0800683a 	jmp	at
	...

Disassembly of section .exceptions:

00010020 <alt_exception>:

#else /* ALT_EXCEPTION_STACK disabled */
        /* 
         * Reserve space on normal stack for registers about to be pushed.
         */
        addi  sp, sp, -76
   10020:	deffed04 	addi	sp,sp,-76
         * documentation for details).
         *
         * Leave a gap in the stack frame at 4(sp) for the muldiv handler to
         * store zero into.
         */
        stw   ra,  0(sp)
   10024:	dfc00015 	stw	ra,0(sp)
        stw   r1,   8(sp)
   10028:	d8400215 	stw	at,8(sp)
        stw   r2,  12(sp)
   1002c:	d8800315 	stw	r2,12(sp)
        stw   r3,  16(sp)
   10030:	d8c00415 	stw	r3,16(sp)
        stw   r4,  20(sp)
   10034:	d9000515 	stw	r4,20(sp)
        stw   r5,  24(sp)
   10038:	d9400615 	stw	r5,24(sp)
        stw   r6,  28(sp)
   1003c:	d9800715 	stw	r6,28(sp)
        stw   r7,  32(sp)
   10040:	d9c00815 	stw	r7,32(sp)
        rdctl r5, estatus   /* Read early to avoid usage stall */
   10044:	000b307a 	rdctl	r5,estatus
        stw   r8,  36(sp)
   10048:	da000915 	stw	r8,36(sp)
        stw   r9,  40(sp)
   1004c:	da400a15 	stw	r9,40(sp)
        stw   r10, 44(sp)
   10050:	da800b15 	stw	r10,44(sp)
        stw   r11, 48(sp)
   10054:	dac00c15 	stw	r11,48(sp)
        stw   r12, 52(sp)
   10058:	db000d15 	stw	r12,52(sp)
        stw   r13, 56(sp)
   1005c:	db400e15 	stw	r13,56(sp)
        stw   r14, 60(sp)
   10060:	db800f15 	stw	r14,60(sp)
        stw   r15, 64(sp)
   10064:	dbc01015 	stw	r15,64(sp)
        /*
         * ea-4 contains the address of the instruction being executed
         * when the exception occured. For interrupt exceptions, we will
         * will be re-issue the isntruction. Store it in 72(sp)
         */
        stw   r5,  68(sp)  /* estatus */
   10068:	d9401115 	stw	r5,68(sp)
        addi  r15, ea, -4  /* instruction that caused exception */
   1006c:	ebffff04 	addi	r15,ea,-4
        stw   r15,  72(sp)
   10070:	dbc01215 	stw	r15,72(sp)
#else
        /*
         * Test to see if the exception was a software exception or caused 
         * by an external interrupt, and vector accordingly.
         */
        rdctl r4, ipending
   10074:	0009313a 	rdctl	r4,ipending
        andi  r2, r5, 1
   10078:	2880004c 	andi	r2,r5,1
        beq   r2, zero, .Lnot_irq
   1007c:	10000326 	beq	r2,zero,1008c <alt_exception+0x6c>
        beq   r4, zero, .Lnot_irq
   10080:	20000226 	beq	r4,zero,1008c <alt_exception+0x6c>
        /*
         * Now that all necessary registers have been preserved, call 
         * alt_irq_handler() to process the interrupts.
         */

        call alt_irq_handler
   10084:	00100fc0 	call	100fc <alt_irq_handler>

        .section .exceptions.irqreturn, "xa"

        br    .Lexception_exit
   10088:	00000706 	br	100a8 <alt_exception+0x88>
         * upon completion, so we write ea (address of instruction *after*
         * the one where the exception occured) into 72(sp). The actual
         * instruction that caused the exception is written in r2, which these
         * handlers will utilize.
         */
        stw ea, 72(sp) /* EA is PC+4 so will skip over instruction causing exception */
   1008c:	df401215 	stw	ea,72(sp)
.Lunknown_16bit:
        addi.n r4, r4, 2 /* Need PC+2 to skip over instruction causing exception */
        stw r4, 72(sp)

#else /* CDX is not Enabled and all instructions are 32bits */
        ldw r2, -4(ea) /* Instruction value that caused exception */
   10090:	e8bfff17 	ldw	r2,-4(ea)
         * debugger is present) or go into an infinite loop since the
         * handling behavior is undefined; in that case we will not return here.
         */

        /* Load exception-causing address as first argument (r4) */
        addi   r4, ea, -4
   10094:	e93fff04 	addi	r4,ea,-4

        /* Call the instruction-exception entry */
        call   alt_instruction_exception_entry
   10098:	001015c0 	call	1015c <alt_instruction_exception_entry>
         * instruction
         *
         * Return code was 0: Skip. The instruction after the exception is
         * already stored in 72(sp).
         */
        bne   r2, r0, .Lexception_exit
   1009c:	1000021e 	bne	r2,zero,100a8 <alt_exception+0x88>

        /*
         * Otherwise, modify 72(sp) to re-issue the instruction that caused the
         * exception.
         */
        addi  r15, ea, -4  /* instruction that caused exception */
   100a0:	ebffff04 	addi	r15,ea,-4
        stw   r15,  72(sp)
   100a4:	dbc01215 	stw	r15,72(sp)
        /* 
         * Restore the saved registers, so that all general purpose registers 
         * have been restored to their state at the time the interrupt occured.
         */

        ldw   r5,  68(sp)
   100a8:	d9401117 	ldw	r5,68(sp)
        ldw   ea,  72(sp)  /* This becomes the PC once eret is executed */
   100ac:	df401217 	ldw	ea,72(sp)
        ldw   ra,   0(sp)
   100b0:	dfc00017 	ldw	ra,0(sp)

        wrctl estatus, r5
   100b4:	2801707a 	wrctl	estatus,r5

        ldw   r1,   8(sp)
   100b8:	d8400217 	ldw	at,8(sp)
        ldw   r2,  12(sp)
   100bc:	d8800317 	ldw	r2,12(sp)
        ldw   r3,  16(sp)
   100c0:	d8c00417 	ldw	r3,16(sp)
        ldw   r4,  20(sp)
   100c4:	d9000517 	ldw	r4,20(sp)
        ldw   r5,  24(sp)
   100c8:	d9400617 	ldw	r5,24(sp)
        ldw   r6,  28(sp)
   100cc:	d9800717 	ldw	r6,28(sp)
        ldw   r7,  32(sp)
   100d0:	d9c00817 	ldw	r7,32(sp)

#if defined(ALT_EXCEPTION_STACK) && defined(ALT_STACK_CHECK)
        ldw   et, %gprel(alt_exception_old_stack_limit)(gp)
#endif

        ldw   r8,  36(sp)
   100d4:	da000917 	ldw	r8,36(sp)
        ldw   r9,  40(sp)
   100d8:	da400a17 	ldw	r9,40(sp)
        ldw   r10, 44(sp)
   100dc:	da800b17 	ldw	r10,44(sp)
        ldw   r11, 48(sp)
   100e0:	dac00c17 	ldw	r11,48(sp)
        ldw   r12, 52(sp)
   100e4:	db000d17 	ldw	r12,52(sp)
        ldw   r13, 56(sp)
   100e8:	db400e17 	ldw	r13,56(sp)
        ldw   r14, 60(sp)
   100ec:	db800f17 	ldw	r14,60(sp)
        ldw   r15, 64(sp)
   100f0:	dbc01017 	ldw	r15,64(sp)
        stw   et, %gprel(alt_stack_limit_value)(gp)
        stw   zero, %gprel(alt_exception_old_stack_limit)(gp)
#endif /* ALT_STACK_CHECK */
        ldw   sp,  76(sp)
#else /* ALT_EXCEPTION_STACK disabled */
        addi  sp, sp, 76
   100f4:	dec01304 	addi	sp,sp,76

        /*
         * Return to the interrupted instruction.
         */

        eret
   100f8:	ef80083a 	eret

000100fc <alt_irq_handler>:
   100fc:	defffe04 	addi	sp,sp,-8
   10100:	dfc00115 	stw	ra,4(sp)
   10104:	dc000015 	stw	r16,0(sp)
   10108:	0009313a 	rdctl	r4,ipending
   1010c:	040000b4 	movhi	r16,2
   10110:	8427d604 	addi	r16,r16,-24744
   10114:	0005883a 	mov	r2,zero
   10118:	00c00044 	movi	r3,1
   1011c:	20ca703a 	and	r5,r4,r3
   10120:	28000b26 	beq	r5,zero,10150 <alt_irq_handler+0x54>
   10124:	100490fa 	slli	r2,r2,3
   10128:	8085883a 	add	r2,r16,r2
   1012c:	10c00017 	ldw	r3,0(r2)
   10130:	11000117 	ldw	r4,4(r2)
   10134:	183ee83a 	callr	r3
   10138:	0009313a 	rdctl	r4,ipending
   1013c:	203ff51e 	bne	r4,zero,10114 <alt_irq_handler+0x18>
   10140:	dfc00117 	ldw	ra,4(sp)
   10144:	dc000017 	ldw	r16,0(sp)
   10148:	dec00204 	addi	sp,sp,8
   1014c:	f800283a 	ret
   10150:	1806907a 	slli	r3,r3,1
   10154:	10800044 	addi	r2,r2,1
   10158:	003ff006 	br	1011c <alt_irq_handler+0x20>

0001015c <alt_instruction_exception_entry>:
   1015c:	d0a21f17 	ldw	r2,-30596(gp)
   10160:	200b883a 	mov	r5,r4
   10164:	10000326 	beq	r2,zero,10174 <alt_instruction_exception_entry+0x18>
   10168:	000d883a 	mov	r6,zero
   1016c:	013fffc4 	movi	r4,-1
   10170:	1000683a 	jmp	r2
   10174:	003da03a 	break	0
   10178:	0005883a 	mov	r2,zero
   1017c:	f800283a 	ret

Disassembly of section .text:

00010180 <_start>:

    /*
     * Now that the caches are initialized, set up the stack pointer and global pointer.
     * The values provided by the linker are assumed to be correctly aligned.
     */
    movhi sp, %hi(__alt_stack_pointer)
   10180:	06c00074 	movhi	sp,1
    ori sp, sp, %lo(__alt_stack_pointer)
   10184:	deed0014 	ori	sp,sp,46080
    movhi gp, %hi(_gp)
   10188:	068000b4 	movhi	gp,2
    ori gp, gp, %lo(_gp)
   1018c:	d6855614 	ori	gp,gp,5464
 */
#ifndef ALT_SIM_OPTIMIZE
    /* Log that the BSS is about to be cleared. */
    ALT_LOG_PUTS(alt_log_msg_bss)

    movhi r2, %hi(__bss_start)
   10190:	00800074 	movhi	r2,1
    ori r2, r2, %lo(__bss_start)
   10194:	10a76114 	ori	r2,r2,40324

    movhi r3, %hi(__bss_end)
   10198:	00c00074 	movhi	r3,1
    ori r3, r3, %lo(__bss_end)
   1019c:	18e81614 	ori	r3,r3,41048

    beq r2, r3, 1f
   101a0:	10c00326 	beq	r2,r3,101b0 <_start+0x30>

0:
    stw zero, (r2)
   101a4:	10000015 	stw	zero,0(r2)
    addi r2, r2, 4
   101a8:	10800104 	addi	r2,r2,4
    bltu r2, r3, 0b
   101ac:	10fffd36 	bltu	r2,r3,101a4 <_start+0x24>
     * section aren't defined until alt_load() has been called).
     */
    mov   et, zero
#endif

    call alt_load
   101b0:	00178b40 	call	178b4 <alt_load>

    /* Log that alt_main is about to be called. */
    ALT_LOG_PUTS(alt_log_msg_alt_main)

    /* Call the C entry point. It should never return. */
    call alt_main
   101b4:	00179380 	call	17938 <alt_main>

000101b8 <alt_after_alt_main>:

    /* Wait in infinite loop in case alt_main does return. */
alt_after_alt_main:
    br alt_after_alt_main
   101b8:	003fff06 	br	101b8 <alt_after_alt_main>

000101bc <_ZN8DiscreteD1Ev>:
	model = NULL;
}

Discrete::~Discrete(void)
{
}
   101bc:	f800283a 	ret

000101c0 <_ZN8Discrete10InitializeEP13Submodel20sim>:
/*
 * the initialization of the Discrete integration method
 */
void Discrete::Initialize (Submodel20sim* themodel)
{
	model = themodel;
   101c0:	21400115 	stw	r5,4(r4)
	model->m_major = true;
   101c4:	00800044 	movi	r2,1
   101c8:	28800145 	stb	r2,5(r5)
}
   101cc:	f800283a 	ret

000101d0 <_ZN8Discrete9TerminateEv>:

/* the termination of the Discrete integration method */
void Discrete::Terminate ()
{
	/* nothing to be done */
}
   101d0:	f800283a 	ret

000101d4 <_ZN8DiscreteD0Ev>:
}
   101d4:	01400204 	movi	r5,8
   101d8:	0012b581 	jmpi	12b58 <_ZdlPvj>

000101dc <_ZN8Discrete4StepEv>:
void Discrete::Step ()
{
	XXInteger index;

	/* for each of the supplied states */
	for (index = 0; index < model->m_number_states; index++)
   101dc:	21000117 	ldw	r4,4(r4)
   101e0:	21800a17 	ldw	r6,40(r4)
   101e4:	0180090e 	bge	zero,r6,1020c <_ZN8Discrete4StepEv+0x30>
   101e8:	20801317 	ldw	r2,76(r4)
   101ec:	300c90ba 	slli	r6,r6,2
   101f0:	20c01217 	ldw	r3,72(r4)
   101f4:	308d883a 	add	r6,r6,r2
	{
		/* just a move of the new state */
		model->m_s [index] = model->m_R [index];
   101f8:	11400017 	ldw	r5,0(r2)
	for (index = 0; index < model->m_number_states; index++)
   101fc:	10800104 	addi	r2,r2,4
   10200:	18c00104 	addi	r3,r3,4
		model->m_s [index] = model->m_R [index];
   10204:	197fff15 	stw	r5,-4(r3)
	for (index = 0; index < model->m_number_states; index++)
   10208:	11bffb1e 	bne	r2,r6,101f8 <_ZN8Discrete4StepEv+0x1c>
	}

	/* increment the simulation time */
	model->m_time += model->m_step_size;
   1020c:	20c00517 	ldw	r3,20(r4)
   10210:	20800217 	ldw	r2,8(r4)
	model->m_major = true;

	/* evaluate the dynamic part to calculate the new rates */
	model->CalculateDynamic ();
   10214:	21400017 	ldw	r5,0(r4)
	model->m_time += model->m_step_size;
   10218:	1887ff72 	custom	253,r3,r3,r2
	model->CalculateDynamic ();
   1021c:	2a400017 	ldw	r9,0(r5)
   10220:	00800074 	movhi	r2,1
	model->m_time += model->m_step_size;
   10224:	20c00515 	stw	r3,20(r4)
	model->m_major = true;
   10228:	00c00044 	movi	r3,1
   1022c:	20c00145 	stb	r3,5(r4)
	model->CalculateDynamic ();
   10230:	10809504 	addi	r2,r2,596
   10234:	4880011e 	bne	r9,r2,1023c <_ZN8Discrete4StepEv+0x60>
}
   10238:	f800283a 	ret
	model->CalculateDynamic ();
   1023c:	4800683a 	jmp	r9

00010240 <_ZN8DiscreteC1Ev>:
Discrete::Discrete(void)
   10240:	008000b4 	movhi	r2,2
   10244:	10a1f204 	addi	r2,r2,-30776
   10248:	20800015 	stw	r2,0(r4)
	model = NULL;
   1024c:	20000115 	stw	zero,4(r4)
}
   10250:	f800283a 	ret

00010254 <_ZN13Submodel20sim16CalculateDynamicEv>:
		friend class IntegrationMethod;
		friend class Discrete;
		friend class Euler;
		friend class RungeKutta2;
		friend class RungeKutta4;
		virtual void CalculateDynamic (void) {};
   10254:	f800283a 	ret

00010258 <_ZN21PositionControllerPan16CalculateDynamicEv>:
 * to calculate the new model rates (that are then integrated).
 */
void PositionControllerPan::CalculateDynamic (void)
{
	/* PID1\factor = 1 / (sampletime + PID1\tauD * PID1\beta); */
	m_V[2] = 1.0 / (m_step_size + m_P[2] * m_P[3]);
   10258:	20c00017 	ldw	r3,0(r4)
   1025c:	008fe034 	movhi	r2,16256
   10260:	18fffd17 	ldw	r3,-12(r3)
   10264:	20c9883a 	add	r4,r4,r3
   10268:	21400f17 	ldw	r5,60(r4)
   1026c:	20c01117 	ldw	r3,68(r4)
   10270:	22400217 	ldw	r9,8(r4)
   10274:	2a800317 	ldw	r10,12(r5)
   10278:	2a000217 	ldw	r8,8(r5)

	/* PlusMinus1\plus1 = in; */
	m_V[3] = m_V[7];

	/* Splitter1\input = position; */
	m_V[5] = m_V[8];
   1027c:	19c00817 	ldw	r7,32(r3)
	m_V[3] = m_V[7];
   10280:	19800717 	ldw	r6,28(r3)
	m_V[2] = 1.0 / (m_step_size + m_P[2] * m_P[3]);
   10284:	4291ff32 	custom	252,r8,r8,r10
   10288:	4251ff72 	custom	253,r8,r8,r9
   1028c:	1211fff2 	custom	255,r8,r2,r8
   10290:	1a000215 	stw	r8,8(r3)
	m_V[5] = m_V[8];
   10294:	19c00515 	stw	r7,20(r3)
	m_V[3] = m_V[7];
   10298:	19800315 	stw	r6,12(r3)

	/* corrGain\corr = corrGain\K * Splitter1\input; */
	m_V[0] = m_P[0] * m_V[5];
   1029c:	28800017 	ldw	r2,0(r5)

	/* PID1\error = PlusMinus1\plus1 - Splitter1\input; */
	m_R[1] = m_V[3] - m_V[5];
   102a0:	22801317 	ldw	r10,76(r4)

	/* PID1\uD = PID1\factor * (((PID1\tauD * PID1\uD_previous) * PID1\beta + (PID1\tauD * PID1\kp) * (PID1\error - PID1\error_previous)) + (sampletime * PID1\kp) * PID1\error); */
	m_R[0] = m_V[2] * (((m_P[2] * m_s[0]) * m_P[3] + (m_P[2] * m_P[1]) * (m_R[1] - m_s[1])) + (m_step_size * m_P[1]) * m_R[1]);
   102a4:	22c01217 	ldw	r11,72(r4)
	m_V[0] = m_P[0] * m_V[5];
   102a8:	11c5ff32 	custom	252,r2,r2,r7
   102ac:	18800015 	stw	r2,0(r3)
	m_R[1] = m_V[3] - m_V[5];
   102b0:	31cfffb2 	custom	254,r7,r6,r7
   102b4:	51c00115 	stw	r7,4(r10)
	m_R[0] = m_V[2] * (((m_P[2] * m_s[0]) * m_P[3] + (m_P[2] * m_P[1]) * (m_R[1] - m_s[1])) + (m_step_size * m_P[1]) * m_R[1]);
   102b8:	2a400217 	ldw	r9,8(r5)
   102bc:	29800117 	ldw	r6,4(r5)
   102c0:	58800017 	ldw	r2,0(r11)
   102c4:	5a000117 	ldw	r8,4(r11)
   102c8:	23400217 	ldw	r13,8(r4)
   102cc:	2b800317 	ldw	r14,12(r5)
   102d0:	4885ff32 	custom	252,r2,r9,r2
   102d4:	3a11ffb2 	custom	254,r8,r7,r8
   102d8:	4993ff32 	custom	252,r9,r9,r6
   102dc:	1b000217 	ldw	r12,8(r3)
   102e0:	1385ff32 	custom	252,r2,r2,r14
   102e4:	4251ff32 	custom	252,r8,r8,r9
   102e8:	334dff32 	custom	252,r6,r6,r13
   102ec:	31cdff32 	custom	252,r6,r6,r7
   102f0:	1205ff72 	custom	253,r2,r2,r8
   102f4:	1185ff72 	custom	253,r2,r2,r6
   102f8:	1305ff32 	custom	252,r2,r2,r12
   102fc:	50800015 	stw	r2,0(r10)

	/* PID1\uI = PID1\uI_previous + (sampletime * PID1\uD) / PID1\tauI; */
	m_R[2] = m_s[2] + (m_step_size * m_R[0]) / m_P[4];
   10300:	21000217 	ldw	r4,8(r4)
   10304:	29c00417 	ldw	r7,16(r5)
   10308:	59800217 	ldw	r6,8(r11)
   1030c:	1109ff32 	custom	252,r4,r2,r4
   10310:	21c9fff2 	custom	255,r4,r4,r7
   10314:	2189ff72 	custom	253,r4,r4,r6

	/* PID1\output = PID1\uI + PID1\uD; */
	m_V[1] = m_R[2] + m_R[0];
   10318:	1105ff72 	custom	253,r2,r2,r4
	m_R[2] = m_s[2] + (m_step_size * m_R[0]) / m_P[4];
   1031c:	51000215 	stw	r4,8(r10)
	m_V[1] = m_R[2] + m_R[0];
   10320:	18800115 	stw	r2,4(r3)

	/* SignalLimiter2\output = (if PID1\output < SignalLimiter2\minimum then SignalLimiter2\minimum else (if PID1\output > SignalLimiter2\maximum then SignalLimiter2\maximum else PID1\output end) end); */
	m_V[4] = ((m_V[1] < m_P[5]) ? 
   10324:	29000517 	ldw	r4,20(r5)
   10328:	110df9f2 	custom	231,r6,r2,r4
   1032c:	3000031e 	bne	r6,zero,1033c <_ZN21PositionControllerPan16CalculateDynamicEv+0xe4>
		/* SignalLimiter2\minimum */
		m_P[5]
	:
		/* (if PID1\output > SignalLimiter2\maximum then SignalLimiter2\maximum else PID1\output end) */
		((m_V[1] > m_P[6]) ? 
   10330:	29000617 	ldw	r4,24(r5)
   10334:	110bf972 	custom	229,r5,r2,r4
   10338:	28000226 	beq	r5,zero,10344 <_ZN21PositionControllerPan16CalculateDynamicEv+0xec>
	m_V[4] = ((m_V[1] < m_P[5]) ? 
   1033c:	19000415 	stw	r4,16(r3)
			/* PID1\output */
			m_V[1]
		)
	);

}
   10340:	f800283a 	ret
		((m_V[1] > m_P[6]) ? 
   10344:	1009883a 	mov	r4,r2
	m_V[4] = ((m_V[1] < m_P[5]) ? 
   10348:	19000415 	stw	r4,16(r3)
}
   1034c:	f800283a 	ret

00010350 <_ZTv0_n12_N21PositionControllerPan16CalculateDynamicEv>:
		 * CalculateDynamic()
		 * This function calculates the dynamic equations of the model.
		 * These equations are called from the integration method
		 * to calculate the new model rates (that are then integrated).
		 */
		void CalculateDynamic (void);
   10350:	2009883a 	mov	r4,r4
   10354:	20800017 	ldw	r2,0(r4)
   10358:	10bffd04 	addi	r2,r2,-12
   1035c:	10800017 	ldw	r2,0(r2)
   10360:	2089883a 	add	r4,r4,r2
   10364:	00102581 	jmpi	10258 <_ZN21PositionControllerPan16CalculateDynamicEv>

00010368 <_ZN21PositionControllerPan21CopyInputsToVariablesEPf>:
	m_V[7] = u[0];		/* in */
   10368:	20800017 	ldw	r2,0(r4)
   1036c:	28c00017 	ldw	r3,0(r5)
   10370:	10bffd17 	ldw	r2,-12(r2)
   10374:	2089883a 	add	r4,r4,r2
   10378:	20801117 	ldw	r2,68(r4)
   1037c:	10c00715 	stw	r3,28(r2)
	m_V[8] = u[1];		/* position */
   10380:	28c00117 	ldw	r3,4(r5)
   10384:	10c00815 	stw	r3,32(r2)
}
   10388:	f800283a 	ret

0001038c <_ZN21PositionControllerPan22CopyVariablesToOutputsEPf>:
	y[0] = 	m_V[6];		/* corr */
   1038c:	20800017 	ldw	r2,0(r4)
   10390:	10bffd17 	ldw	r2,-12(r2)
   10394:	2089883a 	add	r4,r4,r2
   10398:	20801117 	ldw	r2,68(r4)
   1039c:	10c00617 	ldw	r3,24(r2)
   103a0:	28c00015 	stw	r3,0(r5)
	y[1] = 	m_V[9];		/* out */
   103a4:	10800917 	ldw	r2,36(r2)
   103a8:	28800115 	stw	r2,4(r5)
}
   103ac:	f800283a 	ret

000103b0 <_ZN21PositionControllerPan5ResetEf>:
	m_start_time = starttime;
   103b0:	20800017 	ldw	r2,0(r4)
{
   103b4:	defffe04 	addi	sp,sp,-8
   103b8:	dc000015 	stw	r16,0(sp)
	m_start_time = starttime;
   103bc:	10bffd17 	ldw	r2,-12(r2)
{
   103c0:	2021883a 	mov	r16,r4
	m_step_size = 0.0001;
   103c4:	010e34b4 	movhi	r4,14546
	m_start_time = starttime;
   103c8:	8085883a 	add	r2,r16,r2
{
   103cc:	dfc00115 	stw	ra,4(sp)
	memset(m_C, 0, (0 + 1) * sizeof(XXDouble));
   103d0:	10c00e17 	ldw	r3,56(r2)
	m_step_size = 0.0001;
   103d4:	212dc5c4 	addi	r4,r4,-18665
   103d8:	11000215 	stw	r4,8(r2)
	m_major = true;
   103dc:	01000044 	movi	r4,1
	m_start_time = starttime;
   103e0:	11400315 	stw	r5,12(r2)
	m_time = starttime;
   103e4:	11400515 	stw	r5,20(r2)
	m_major = true;
   103e8:	11000145 	stb	r4,5(r2)
	m_stop_run = false;
   103ec:	10000185 	stb	zero,6(r2)
	memset(m_C, 0, (0 + 1) * sizeof(XXDouble));
   103f0:	18000005 	stb	zero,0(r3)
   103f4:	18000045 	stb	zero,1(r3)
   103f8:	18000085 	stb	zero,2(r3)
   103fc:	180000c5 	stb	zero,3(r3)
	memset(m_P, 0, (7 + 1) * sizeof(XXDouble));
   10400:	80800017 	ldw	r2,0(r16)
   10404:	01800804 	movi	r6,32
   10408:	000b883a 	mov	r5,zero
   1040c:	10bffd17 	ldw	r2,-12(r2)
   10410:	8085883a 	add	r2,r16,r2
   10414:	11000f17 	ldw	r4,60(r2)
   10418:	00171240 	call	17124 <memset>
	memset(m_I, 0, (3 + 1) * sizeof(XXDouble));
   1041c:	80800017 	ldw	r2,0(r16)
   10420:	01800404 	movi	r6,16
   10424:	000b883a 	mov	r5,zero
   10428:	10bffd17 	ldw	r2,-12(r2)
   1042c:	8085883a 	add	r2,r16,r2
   10430:	11001017 	ldw	r4,64(r2)
   10434:	00171240 	call	17124 <memset>
	memset(m_V, 0, (10 + 1) * sizeof(XXDouble));
   10438:	80800017 	ldw	r2,0(r16)
   1043c:	01800b04 	movi	r6,44
   10440:	000b883a 	mov	r5,zero
   10444:	10bffd17 	ldw	r2,-12(r2)
   10448:	8085883a 	add	r2,r16,r2
   1044c:	11001117 	ldw	r4,68(r2)
   10450:	00171240 	call	17124 <memset>
	memset(m_s, 0, (3 + 1) * sizeof(XXDouble));
   10454:	80800017 	ldw	r2,0(r16)
   10458:	01800404 	movi	r6,16
   1045c:	000b883a 	mov	r5,zero
   10460:	10bffd17 	ldw	r2,-12(r2)
   10464:	8085883a 	add	r2,r16,r2
   10468:	11001217 	ldw	r4,72(r2)
   1046c:	00171240 	call	17124 <memset>
	memset(m_R, 0, (3 + 1) * sizeof(XXDouble));
   10470:	80800017 	ldw	r2,0(r16)
   10474:	01800404 	movi	r6,16
   10478:	000b883a 	mov	r5,zero
   1047c:	10bffd17 	ldw	r2,-12(r2)
   10480:	8085883a 	add	r2,r16,r2
   10484:	11001317 	ldw	r4,76(r2)
   10488:	00171240 	call	17124 <memset>
	memset(m_M, 0, (0 + 1) * sizeof(XXDouble));
   1048c:	80800017 	ldw	r2,0(r16)
   10490:	10bffd17 	ldw	r2,-12(r2)
   10494:	8085883a 	add	r2,r16,r2
   10498:	10801417 	ldw	r2,80(r2)
   1049c:	10000005 	stb	zero,0(r2)
   104a0:	10000045 	stb	zero,1(r2)
   104a4:	10000085 	stb	zero,2(r2)
   104a8:	100000c5 	stb	zero,3(r2)
	memset(m_U, 0, (0 + 1) * sizeof(XXDouble));
   104ac:	80800017 	ldw	r2,0(r16)
   104b0:	10bffd17 	ldw	r2,-12(r2)
   104b4:	8085883a 	add	r2,r16,r2
   104b8:	10801517 	ldw	r2,84(r2)
   104bc:	10000005 	stb	zero,0(r2)
   104c0:	10000045 	stb	zero,1(r2)
   104c4:	10000085 	stb	zero,2(r2)
   104c8:	100000c5 	stb	zero,3(r2)
	memset(m_workarray, 0, (0 + 1) * sizeof(XXDouble));
   104cc:	80800017 	ldw	r2,0(r16)
   104d0:	10bffd17 	ldw	r2,-12(r2)
   104d4:	8085883a 	add	r2,r16,r2
   104d8:	10801617 	ldw	r2,88(r2)
   104dc:	10000005 	stb	zero,0(r2)
   104e0:	10000045 	stb	zero,1(r2)
   104e4:	10000085 	stb	zero,2(r2)
   104e8:	100000c5 	stb	zero,3(r2)
	state = initialrun;
   104ec:	80000115 	stw	zero,4(r16)
}
   104f0:	dfc00117 	ldw	ra,4(sp)
   104f4:	dc000017 	ldw	r16,0(sp)
   104f8:	dec00204 	addi	sp,sp,8
   104fc:	f800283a 	ret

00010500 <_ZN21PositionControllerPan10IsFinishedEv>:
	return (state == finished);
   10500:	20800117 	ldw	r2,4(r4)
   10504:	108000a0 	cmpeqi	r2,r2,2
}
   10508:	f800283a 	ret

0001050c <_ZN21PositionControllerPan9TerminateEPfS0_>:
	m_V[7] = u[0];		/* in */
   1050c:	20800017 	ldw	r2,0(r4)
   10510:	28c00017 	ldw	r3,0(r5)
   10514:	10bffd17 	ldw	r2,-12(r2)
   10518:	2089883a 	add	r4,r4,r2
   1051c:	20801117 	ldw	r2,68(r4)
   10520:	10c00715 	stw	r3,28(r2)
	m_V[8] = u[1];		/* position */
   10524:	29000117 	ldw	r4,4(r5)
	y[0] = 	m_V[6];		/* corr */
   10528:	10c00617 	ldw	r3,24(r2)
	m_V[8] = u[1];		/* position */
   1052c:	11000815 	stw	r4,32(r2)
	y[0] = 	m_V[6];		/* corr */
   10530:	30c00015 	stw	r3,0(r6)
	y[1] = 	m_V[9];		/* out */
   10534:	10800917 	ldw	r2,36(r2)
   10538:	30800115 	stw	r2,4(r6)
}
   1053c:	f800283a 	ret

00010540 <_ZN21PositionControllerPan16CalculateInitialEv>:
}
   10540:	f800283a 	ret

00010544 <_ZN21PositionControllerPan15CalculateStaticEv>:
   10544:	f800283a 	ret

00010548 <_ZN21PositionControllerPan14CalculateInputEv>:
   10548:	f800283a 	ret

0001054c <_ZN21PositionControllerPan15CalculateOutputEv>:
 * integration step that is taken. This makes model computation much faster.
 */
void PositionControllerPan::CalculateOutput (void)
{
	/* corr = corrGain\corr; */
	m_V[6] = m_V[0];
   1054c:	20800017 	ldw	r2,0(r4)
   10550:	10bffd17 	ldw	r2,-12(r2)
   10554:	2089883a 	add	r4,r4,r2
   10558:	20801117 	ldw	r2,68(r4)
   1055c:	11000017 	ldw	r4,0(r2)

	/* out = SignalLimiter2\output; */
	m_V[9] = m_V[4];
   10560:	10c00417 	ldw	r3,16(r2)
	m_V[6] = m_V[0];
   10564:	11000615 	stw	r4,24(r2)
	m_V[9] = m_V[4];
   10568:	10c00915 	stw	r3,36(r2)

}
   1056c:	f800283a 	ret

00010570 <_ZN21PositionControllerPan14CalculateFinalEv>:
   10570:	f800283a 	ret

00010574 <_ZN21PositionControllerPan13SetFinishTimeEf>:



bool PositionControllerPan::SetFinishTime(XXDouble newtime)
{
	if ((newtime <= 0.0) || ( newtime > m_time))
   10574:	20c00017 	ldw	r3,0(r4)
   10578:	0005883a 	mov	r2,zero
   1057c:	2885f9b2 	custom	230,r2,r5,r2
   10580:	18fffd17 	ldw	r3,-12(r3)
   10584:	20c9883a 	add	r4,r4,r3
   10588:	1000051e 	bne	r2,zero,105a0 <_ZN21PositionControllerPan13SetFinishTimeEf+0x2c>
   1058c:	20800517 	ldw	r2,20(r4)
   10590:	1145f9f2 	custom	231,r2,r2,r5
   10594:	1000021e 	bne	r2,zero,105a0 <_ZN21PositionControllerPan13SetFinishTimeEf+0x2c>
	{
		m_finish_time = newtime;
		return true;
	}

	return false;
   10598:	0005883a 	mov	r2,zero
}
   1059c:	f800283a 	ret
		m_finish_time = newtime;
   105a0:	21400415 	stw	r5,16(r4)
		return true;
   105a4:	00800044 	movi	r2,1
   105a8:	f800283a 	ret

000105ac <_ZN21PositionControllerPanC2Ev>:
PositionControllerPan::PositionControllerPan(void)
   105ac:	deffee04 	addi	sp,sp,-72
   105b0:	01800074 	movhi	r6,1
   105b4:	00c000b4 	movhi	r3,2
   105b8:	00800074 	movhi	r2,1
   105bc:	318c2104 	addi	r6,r6,12420
   105c0:	18e1c404 	addi	r3,r3,-30960
   105c4:	10820804 	addi	r2,r2,2080
   105c8:	d9400115 	stw	r5,4(sp)
   105cc:	200b883a 	mov	r5,r4
   105d0:	d9000304 	addi	r4,sp,12
   105d4:	d9800915 	stw	r6,36(sp)
   105d8:	dfc01115 	stw	ra,68(sp)
   105dc:	d9400015 	stw	r5,0(sp)
   105e0:	d8c00a15 	stw	r3,40(sp)
   105e4:	d8800c15 	stw	r2,48(sp)
   105e8:	df001015 	stw	fp,64(sp)
   105ec:	df000b15 	stw	fp,44(sp)
   105f0:	dec00d15 	stw	sp,52(sp)
   105f4:	0016bb80 	call	16bb8 <_Unwind_SjLj_Register>
   105f8:	d8800117 	ldw	r2,4(sp)
   105fc:	d9c00017 	ldw	r7,0(sp)
   10600:	10c00017 	ldw	r3,0(r2)
   10604:	11400117 	ldw	r5,4(r2)
   10608:	39000204 	addi	r4,r7,8
   1060c:	18bffd17 	ldw	r2,-12(r3)
   10610:	38c00015 	stw	r3,0(r7)
   10614:	d9000215 	stw	r4,8(sp)
   10618:	3885883a 	add	r2,r7,r2
   1061c:	11400015 	stw	r5,0(r2)
   10620:	00bfffc4 	movi	r2,-1
   10624:	d8800415 	stw	r2,16(sp)
   10628:	00102400 	call	10240 <_ZN8DiscreteC1Ev>
	m_number_constants = 0;
   1062c:	d9c00017 	ldw	r7,0(sp)
	m_number_parameters = 7;
   10630:	018001c4 	movi	r6,7
	m_number_initialvalues = 3;
   10634:	014000c4 	movi	r5,3
	m_number_constants = 0;
   10638:	38800017 	ldw	r2,0(r7)
	m_C = new XXDouble[0 + 1];		/* constants */
   1063c:	01000104 	movi	r4,4
	m_number_constants = 0;
   10640:	10fffd17 	ldw	r3,-12(r2)
   10644:	38c7883a 	add	r3,r7,r3
   10648:	18000615 	stw	zero,24(r3)
	m_number_parameters = 7;
   1064c:	10fffd17 	ldw	r3,-12(r2)
   10650:	38c7883a 	add	r3,r7,r3
   10654:	19800715 	stw	r6,28(r3)
	m_number_initialvalues = 3;
   10658:	10fffd17 	ldw	r3,-12(r2)
	m_number_variables = 10;
   1065c:	01800284 	movi	r6,10
	m_number_initialvalues = 3;
   10660:	38c7883a 	add	r3,r7,r3
   10664:	19400815 	stw	r5,32(r3)
	m_number_variables = 10;
   10668:	10fffd17 	ldw	r3,-12(r2)
   1066c:	38c7883a 	add	r3,r7,r3
   10670:	19800915 	stw	r6,36(r3)
	m_number_states = 3;
   10674:	10fffd17 	ldw	r3,-12(r2)
   10678:	38c7883a 	add	r3,r7,r3
   1067c:	19400a15 	stw	r5,40(r3)
	m_number_rates = 3;
   10680:	10fffd17 	ldw	r3,-12(r2)
   10684:	38c7883a 	add	r3,r7,r3
   10688:	19400b15 	stw	r5,44(r3)
	m_number_matrices = 0;
   1068c:	10fffd17 	ldw	r3,-12(r2)
   10690:	38c7883a 	add	r3,r7,r3
   10694:	18000c15 	stw	zero,48(r3)
	m_number_unnamed = 0;
   10698:	10fffd17 	ldw	r3,-12(r2)
   1069c:	38c7883a 	add	r3,r7,r3
   106a0:	18000d15 	stw	zero,52(r3)
	m_C = new XXDouble[0 + 1];		/* constants */
   106a4:	10bffd17 	ldw	r2,-12(r2)
   106a8:	00c00044 	movi	r3,1
   106ac:	d8c00415 	stw	r3,16(sp)
   106b0:	3885883a 	add	r2,r7,r2
   106b4:	d8800115 	stw	r2,4(sp)
   106b8:	0013bf80 	call	13bf8 <_Znaj>
	m_P = new XXDouble[7 + 1];		/* parameters */
   106bc:	d9400017 	ldw	r5,0(sp)
	m_C = new XXDouble[0 + 1];		/* constants */
   106c0:	d9000117 	ldw	r4,4(sp)
	m_P = new XXDouble[7 + 1];		/* parameters */
   106c4:	28c00017 	ldw	r3,0(r5)
	m_C = new XXDouble[0 + 1];		/* constants */
   106c8:	20800e15 	stw	r2,56(r4)
	m_P = new XXDouble[7 + 1];		/* parameters */
   106cc:	01000804 	movi	r4,32
   106d0:	18bffd17 	ldw	r2,-12(r3)
   106d4:	2885883a 	add	r2,r5,r2
   106d8:	d8800115 	stw	r2,4(sp)
   106dc:	0013bf80 	call	13bf8 <_Znaj>
	m_I = new XXDouble[3 + 1];		/* initial values */
   106e0:	d9400017 	ldw	r5,0(sp)
	m_P = new XXDouble[7 + 1];		/* parameters */
   106e4:	d9000117 	ldw	r4,4(sp)
	m_I = new XXDouble[3 + 1];		/* initial values */
   106e8:	28c00017 	ldw	r3,0(r5)
	m_P = new XXDouble[7 + 1];		/* parameters */
   106ec:	20800f15 	stw	r2,60(r4)
	m_I = new XXDouble[3 + 1];		/* initial values */
   106f0:	01000404 	movi	r4,16
   106f4:	18bffd17 	ldw	r2,-12(r3)
   106f8:	2885883a 	add	r2,r5,r2
   106fc:	d8800115 	stw	r2,4(sp)
   10700:	0013bf80 	call	13bf8 <_Znaj>
	m_V = new XXDouble[10 + 1];		/* variables */
   10704:	d9400017 	ldw	r5,0(sp)
	m_I = new XXDouble[3 + 1];		/* initial values */
   10708:	d9000117 	ldw	r4,4(sp)
	m_V = new XXDouble[10 + 1];		/* variables */
   1070c:	28c00017 	ldw	r3,0(r5)
	m_I = new XXDouble[3 + 1];		/* initial values */
   10710:	20801015 	stw	r2,64(r4)
	m_V = new XXDouble[10 + 1];		/* variables */
   10714:	01000b04 	movi	r4,44
   10718:	18bffd17 	ldw	r2,-12(r3)
   1071c:	2885883a 	add	r2,r5,r2
   10720:	d8800115 	stw	r2,4(sp)
   10724:	0013bf80 	call	13bf8 <_Znaj>
	m_s = new XXDouble[3 + 1];		/* states */
   10728:	d9400017 	ldw	r5,0(sp)
	m_V = new XXDouble[10 + 1];		/* variables */
   1072c:	d9000117 	ldw	r4,4(sp)
	m_s = new XXDouble[3 + 1];		/* states */
   10730:	28c00017 	ldw	r3,0(r5)
	m_V = new XXDouble[10 + 1];		/* variables */
   10734:	20801115 	stw	r2,68(r4)
	m_s = new XXDouble[3 + 1];		/* states */
   10738:	01000404 	movi	r4,16
   1073c:	18bffd17 	ldw	r2,-12(r3)
   10740:	2885883a 	add	r2,r5,r2
   10744:	d8800115 	stw	r2,4(sp)
   10748:	0013bf80 	call	13bf8 <_Znaj>
	m_R = new XXDouble[3 + 1];		/* rates (or new states) */
   1074c:	d9400017 	ldw	r5,0(sp)
	m_s = new XXDouble[3 + 1];		/* states */
   10750:	d9000117 	ldw	r4,4(sp)
	m_R = new XXDouble[3 + 1];		/* rates (or new states) */
   10754:	28c00017 	ldw	r3,0(r5)
	m_s = new XXDouble[3 + 1];		/* states */
   10758:	20801215 	stw	r2,72(r4)
	m_R = new XXDouble[3 + 1];		/* rates (or new states) */
   1075c:	01000404 	movi	r4,16
   10760:	18bffd17 	ldw	r2,-12(r3)
   10764:	2885883a 	add	r2,r5,r2
   10768:	d8800115 	stw	r2,4(sp)
   1076c:	0013bf80 	call	13bf8 <_Znaj>
	m_M = new XXMatrix[0 + 1];		/* matrices */
   10770:	d9400017 	ldw	r5,0(sp)
	m_R = new XXDouble[3 + 1];		/* rates (or new states) */
   10774:	d9000117 	ldw	r4,4(sp)
	m_M = new XXMatrix[0 + 1];		/* matrices */
   10778:	28c00017 	ldw	r3,0(r5)
	m_R = new XXDouble[3 + 1];		/* rates (or new states) */
   1077c:	20801315 	stw	r2,76(r4)
	m_M = new XXMatrix[0 + 1];		/* matrices */
   10780:	01000304 	movi	r4,12
   10784:	18bffd17 	ldw	r2,-12(r3)
   10788:	2885883a 	add	r2,r5,r2
   1078c:	d8800115 	stw	r2,4(sp)
   10790:	0013bf80 	call	13bf8 <_Znaj>
	m_U = new XXDouble[0 + 1];		/* unnamed */
   10794:	d9400017 	ldw	r5,0(sp)
	m_M = new XXMatrix[0 + 1];		/* matrices */
   10798:	d9000117 	ldw	r4,4(sp)
	m_U = new XXDouble[0 + 1];		/* unnamed */
   1079c:	28c00017 	ldw	r3,0(r5)
	m_M = new XXMatrix[0 + 1];		/* matrices */
   107a0:	20801415 	stw	r2,80(r4)
	m_U = new XXDouble[0 + 1];		/* unnamed */
   107a4:	01000104 	movi	r4,4
   107a8:	18bffd17 	ldw	r2,-12(r3)
   107ac:	2885883a 	add	r2,r5,r2
   107b0:	d8800115 	stw	r2,4(sp)
   107b4:	0013bf80 	call	13bf8 <_Znaj>
	m_workarray = new XXDouble[0 + 1];
   107b8:	d9400017 	ldw	r5,0(sp)
	m_U = new XXDouble[0 + 1];		/* unnamed */
   107bc:	d9000117 	ldw	r4,4(sp)
	m_workarray = new XXDouble[0 + 1];
   107c0:	28c00017 	ldw	r3,0(r5)
	m_U = new XXDouble[0 + 1];		/* unnamed */
   107c4:	20801515 	stw	r2,84(r4)
	m_workarray = new XXDouble[0 + 1];
   107c8:	01000104 	movi	r4,4
   107cc:	18bffd17 	ldw	r2,-12(r3)
   107d0:	2885883a 	add	r2,r5,r2
   107d4:	d8800115 	stw	r2,4(sp)
   107d8:	0013bf80 	call	13bf8 <_Znaj>
   107dc:	d8c00117 	ldw	r3,4(sp)
	Reset(0.0);
   107e0:	d9000017 	ldw	r4,0(sp)
   107e4:	000b883a 	mov	r5,zero
	m_workarray = new XXDouble[0 + 1];
   107e8:	18801615 	stw	r2,88(r3)
	Reset(0.0);
   107ec:	00103b00 	call	103b0 <_ZN21PositionControllerPan5ResetEf>
	m_finish_time = 20.0;
   107f0:	d9400017 	ldw	r5,0(sp)
   107f4:	00d06834 	movhi	r3,16800
   107f8:	d9000304 	addi	r4,sp,12
   107fc:	28800017 	ldw	r2,0(r5)
   10800:	10bffd17 	ldw	r2,-12(r2)
   10804:	2885883a 	add	r2,r5,r2
   10808:	10c00415 	stw	r3,16(r2)
   1080c:	0016bd00 	call	16bd0 <_Unwind_SjLj_Unregister>
}
   10810:	dfc01117 	ldw	ra,68(sp)
   10814:	df001017 	ldw	fp,64(sp)
   10818:	dec01204 	addi	sp,sp,72
   1081c:	f800283a 	ret
PositionControllerPan::PositionControllerPan(void)
   10820:	d8800517 	ldw	r2,20(sp)
   10824:	d9000217 	ldw	r4,8(sp)
   10828:	d8800015 	stw	r2,0(sp)
   1082c:	00101bc0 	call	101bc <_ZN8DiscreteD1Ev>
   10830:	d9000017 	ldw	r4,0(sp)
   10834:	00bfffc4 	movi	r2,-1
   10838:	d8800415 	stw	r2,16(sp)
   1083c:	0016da00 	call	16da0 <_Unwind_SjLj_Resume>

00010840 <_ZN21PositionControllerPanC1Ev>:
   10840:	deffef04 	addi	sp,sp,-68
   10844:	01400074 	movhi	r5,1
   10848:	00c000b4 	movhi	r3,2
   1084c:	00800074 	movhi	r2,1
   10850:	200d883a 	mov	r6,r4
   10854:	294c2104 	addi	r5,r5,12420
   10858:	18e1c584 	addi	r3,r3,-30954
   1085c:	10826c04 	addi	r2,r2,2480
   10860:	d9000204 	addi	r4,sp,8
   10864:	dfc01015 	stw	ra,64(sp)
   10868:	d9800015 	stw	r6,0(sp)
   1086c:	d9400815 	stw	r5,32(sp)
   10870:	d8c00915 	stw	r3,36(sp)
   10874:	d8800b15 	stw	r2,44(sp)
   10878:	df000f15 	stw	fp,60(sp)
   1087c:	df000a15 	stw	fp,40(sp)
   10880:	dec00c15 	stw	sp,48(sp)
   10884:	0016bb80 	call	16bb8 <_Unwind_SjLj_Register>
   10888:	d9400017 	ldw	r5,0(sp)
   1088c:	00c000b4 	movhi	r3,2
   10890:	008000b4 	movhi	r2,2
   10894:	18e20a04 	addi	r3,r3,-30680
   10898:	10a21104 	addi	r2,r2,-30652
   1089c:	29000204 	addi	r4,r5,8
   108a0:	28c00015 	stw	r3,0(r5)
   108a4:	28800415 	stw	r2,16(r5)
   108a8:	00bfffc4 	movi	r2,-1
   108ac:	d9000115 	stw	r4,4(sp)
   108b0:	d8800315 	stw	r2,12(sp)
   108b4:	00102400 	call	10240 <_ZN8DiscreteC1Ev>
	m_number_constants = 0;
   108b8:	d9400017 	ldw	r5,0(sp)
	m_number_parameters = 7;
   108bc:	00c001c4 	movi	r3,7
	m_number_initialvalues = 3;
   108c0:	008000c4 	movi	r2,3
	m_number_parameters = 7;
   108c4:	28c00b15 	stw	r3,44(r5)
	m_number_variables = 10;
   108c8:	00c00284 	movi	r3,10
	m_number_initialvalues = 3;
   108cc:	28800c15 	stw	r2,48(r5)
	m_number_states = 3;
   108d0:	28800e15 	stw	r2,56(r5)
	m_number_rates = 3;
   108d4:	28800f15 	stw	r2,60(r5)
	m_number_constants = 0;
   108d8:	28000a15 	stw	zero,40(r5)
	m_number_variables = 10;
   108dc:	28c00d15 	stw	r3,52(r5)
	m_number_matrices = 0;
   108e0:	28001015 	stw	zero,64(r5)
	m_number_unnamed = 0;
   108e4:	28001115 	stw	zero,68(r5)
	m_C = new XXDouble[0 + 1];		/* constants */
   108e8:	00800044 	movi	r2,1
   108ec:	01000104 	movi	r4,4
   108f0:	d8800315 	stw	r2,12(sp)
   108f4:	0013bf80 	call	13bf8 <_Znaj>
   108f8:	d9400017 	ldw	r5,0(sp)
	m_P = new XXDouble[7 + 1];		/* parameters */
   108fc:	01000804 	movi	r4,32
	m_C = new XXDouble[0 + 1];		/* constants */
   10900:	28801215 	stw	r2,72(r5)
	m_P = new XXDouble[7 + 1];		/* parameters */
   10904:	0013bf80 	call	13bf8 <_Znaj>
   10908:	d9400017 	ldw	r5,0(sp)
	m_I = new XXDouble[3 + 1];		/* initial values */
   1090c:	01000404 	movi	r4,16
	m_P = new XXDouble[7 + 1];		/* parameters */
   10910:	28801315 	stw	r2,76(r5)
	m_I = new XXDouble[3 + 1];		/* initial values */
   10914:	0013bf80 	call	13bf8 <_Znaj>
   10918:	d9400017 	ldw	r5,0(sp)
	m_V = new XXDouble[10 + 1];		/* variables */
   1091c:	01000b04 	movi	r4,44
	m_I = new XXDouble[3 + 1];		/* initial values */
   10920:	28801415 	stw	r2,80(r5)
	m_V = new XXDouble[10 + 1];		/* variables */
   10924:	0013bf80 	call	13bf8 <_Znaj>
   10928:	d9400017 	ldw	r5,0(sp)
	m_s = new XXDouble[3 + 1];		/* states */
   1092c:	01000404 	movi	r4,16
	m_V = new XXDouble[10 + 1];		/* variables */
   10930:	28801515 	stw	r2,84(r5)
	m_s = new XXDouble[3 + 1];		/* states */
   10934:	0013bf80 	call	13bf8 <_Znaj>
   10938:	d9400017 	ldw	r5,0(sp)
	m_R = new XXDouble[3 + 1];		/* rates (or new states) */
   1093c:	01000404 	movi	r4,16
	m_s = new XXDouble[3 + 1];		/* states */
   10940:	28801615 	stw	r2,88(r5)
	m_R = new XXDouble[3 + 1];		/* rates (or new states) */
   10944:	0013bf80 	call	13bf8 <_Znaj>
   10948:	d9400017 	ldw	r5,0(sp)
	m_M = new XXMatrix[0 + 1];		/* matrices */
   1094c:	01000304 	movi	r4,12
	m_R = new XXDouble[3 + 1];		/* rates (or new states) */
   10950:	28801715 	stw	r2,92(r5)
	m_M = new XXMatrix[0 + 1];		/* matrices */
   10954:	0013bf80 	call	13bf8 <_Znaj>
   10958:	d9400017 	ldw	r5,0(sp)
	m_U = new XXDouble[0 + 1];		/* unnamed */
   1095c:	01000104 	movi	r4,4
	m_M = new XXMatrix[0 + 1];		/* matrices */
   10960:	28801815 	stw	r2,96(r5)
	m_U = new XXDouble[0 + 1];		/* unnamed */
   10964:	0013bf80 	call	13bf8 <_Znaj>
   10968:	d9400017 	ldw	r5,0(sp)
	m_workarray = new XXDouble[0 + 1];
   1096c:	01000104 	movi	r4,4
	m_U = new XXDouble[0 + 1];		/* unnamed */
   10970:	28801915 	stw	r2,100(r5)
	m_workarray = new XXDouble[0 + 1];
   10974:	0013bf80 	call	13bf8 <_Znaj>
   10978:	d8c00017 	ldw	r3,0(sp)
	Reset(0.0);
   1097c:	000b883a 	mov	r5,zero
	m_workarray = new XXDouble[0 + 1];
   10980:	18801a15 	stw	r2,104(r3)
	Reset(0.0);
   10984:	1809883a 	mov	r4,r3
   10988:	00103b00 	call	103b0 <_ZN21PositionControllerPan5ResetEf>
	m_finish_time = 20.0;
   1098c:	d9400017 	ldw	r5,0(sp)
   10990:	00906834 	movhi	r2,16800
   10994:	d9000204 	addi	r4,sp,8
   10998:	28800815 	stw	r2,32(r5)
   1099c:	0016bd00 	call	16bd0 <_Unwind_SjLj_Unregister>
}
   109a0:	dfc01017 	ldw	ra,64(sp)
   109a4:	df000f17 	ldw	fp,60(sp)
   109a8:	dec01104 	addi	sp,sp,68
   109ac:	f800283a 	ret
PositionControllerPan::PositionControllerPan(void)
   109b0:	d8800417 	ldw	r2,16(sp)
   109b4:	d9000117 	ldw	r4,4(sp)
   109b8:	d8800015 	stw	r2,0(sp)
   109bc:	00101bc0 	call	101bc <_ZN8DiscreteD1Ev>
   109c0:	d9000017 	ldw	r4,0(sp)
   109c4:	00bfffc4 	movi	r2,-1
   109c8:	d8800315 	stw	r2,12(sp)
   109cc:	0016da00 	call	16da0 <_Unwind_SjLj_Resume>

000109d0 <_ZN21PositionControllerPanD2Ev>:
PositionControllerPan::~PositionControllerPan(void)
   109d0:	28c00017 	ldw	r3,0(r5)
   109d4:	defffe04 	addi	sp,sp,-8
   109d8:	dc000015 	stw	r16,0(sp)
   109dc:	18bffd17 	ldw	r2,-12(r3)
   109e0:	dfc00115 	stw	ra,4(sp)
   109e4:	20c00015 	stw	r3,0(r4)
   109e8:	2085883a 	add	r2,r4,r2
   109ec:	28c00117 	ldw	r3,4(r5)
   109f0:	2021883a 	mov	r16,r4
	delete[] m_C;
   109f4:	11000e17 	ldw	r4,56(r2)
PositionControllerPan::~PositionControllerPan(void)
   109f8:	10c00015 	stw	r3,0(r2)
	delete[] m_C;
   109fc:	20000126 	beq	r4,zero,10a04 <_ZN21PositionControllerPanD2Ev+0x34>
   10a00:	0012b5c0 	call	12b5c <_ZdaPv>
	delete[] m_P;
   10a04:	80800017 	ldw	r2,0(r16)
   10a08:	10bffd17 	ldw	r2,-12(r2)
   10a0c:	8085883a 	add	r2,r16,r2
   10a10:	11000f17 	ldw	r4,60(r2)
   10a14:	20000426 	beq	r4,zero,10a28 <_ZN21PositionControllerPanD2Ev+0x58>
   10a18:	0012b5c0 	call	12b5c <_ZdaPv>
	delete[] m_I;
   10a1c:	80800017 	ldw	r2,0(r16)
   10a20:	10bffd17 	ldw	r2,-12(r2)
   10a24:	8085883a 	add	r2,r16,r2
   10a28:	11001017 	ldw	r4,64(r2)
   10a2c:	20000426 	beq	r4,zero,10a40 <_ZN21PositionControllerPanD2Ev+0x70>
   10a30:	0012b5c0 	call	12b5c <_ZdaPv>
	delete[] m_V;
   10a34:	80800017 	ldw	r2,0(r16)
   10a38:	10bffd17 	ldw	r2,-12(r2)
   10a3c:	8085883a 	add	r2,r16,r2
   10a40:	11001117 	ldw	r4,68(r2)
   10a44:	20000426 	beq	r4,zero,10a58 <_ZN21PositionControllerPanD2Ev+0x88>
   10a48:	0012b5c0 	call	12b5c <_ZdaPv>
	delete[] m_s;
   10a4c:	80800017 	ldw	r2,0(r16)
   10a50:	10bffd17 	ldw	r2,-12(r2)
   10a54:	8085883a 	add	r2,r16,r2
   10a58:	11001217 	ldw	r4,72(r2)
   10a5c:	20000426 	beq	r4,zero,10a70 <_ZN21PositionControllerPanD2Ev+0xa0>
   10a60:	0012b5c0 	call	12b5c <_ZdaPv>
	delete[] m_R;
   10a64:	80800017 	ldw	r2,0(r16)
   10a68:	10bffd17 	ldw	r2,-12(r2)
   10a6c:	8085883a 	add	r2,r16,r2
   10a70:	11001317 	ldw	r4,76(r2)
   10a74:	20000426 	beq	r4,zero,10a88 <_ZN21PositionControllerPanD2Ev+0xb8>
   10a78:	0012b5c0 	call	12b5c <_ZdaPv>
	delete[] m_M;
   10a7c:	80800017 	ldw	r2,0(r16)
   10a80:	10bffd17 	ldw	r2,-12(r2)
   10a84:	8085883a 	add	r2,r16,r2
   10a88:	11001417 	ldw	r4,80(r2)
   10a8c:	20000426 	beq	r4,zero,10aa0 <_ZN21PositionControllerPanD2Ev+0xd0>
   10a90:	0012b5c0 	call	12b5c <_ZdaPv>
	delete[] m_U;
   10a94:	80800017 	ldw	r2,0(r16)
   10a98:	10bffd17 	ldw	r2,-12(r2)
   10a9c:	8085883a 	add	r2,r16,r2
   10aa0:	11001517 	ldw	r4,84(r2)
   10aa4:	20000426 	beq	r4,zero,10ab8 <_ZN21PositionControllerPanD2Ev+0xe8>
   10aa8:	0012b5c0 	call	12b5c <_ZdaPv>
	delete[] m_workarray;
   10aac:	80800017 	ldw	r2,0(r16)
   10ab0:	10bffd17 	ldw	r2,-12(r2)
   10ab4:	8085883a 	add	r2,r16,r2
   10ab8:	11001617 	ldw	r4,88(r2)
   10abc:	20000126 	beq	r4,zero,10ac4 <_ZN21PositionControllerPanD2Ev+0xf4>
   10ac0:	0012b5c0 	call	12b5c <_ZdaPv>
PositionControllerPan::~PositionControllerPan(void)
   10ac4:	81000204 	addi	r4,r16,8
}
   10ac8:	dfc00117 	ldw	ra,4(sp)
   10acc:	dc000017 	ldw	r16,0(sp)
   10ad0:	dec00204 	addi	sp,sp,8
PositionControllerPan::~PositionControllerPan(void)
   10ad4:	00101bc1 	jmpi	101bc <_ZN8DiscreteD1Ev>

00010ad8 <_ZN21PositionControllerPanD1Ev>:
   10ad8:	defffe04 	addi	sp,sp,-8
   10adc:	dc000015 	stw	r16,0(sp)
   10ae0:	00c000b4 	movhi	r3,2
   10ae4:	2021883a 	mov	r16,r4
   10ae8:	008000b4 	movhi	r2,2
	delete[] m_C;
   10aec:	21001217 	ldw	r4,72(r4)
PositionControllerPan::~PositionControllerPan(void)
   10af0:	dfc00115 	stw	ra,4(sp)
   10af4:	18e20a04 	addi	r3,r3,-30680
   10af8:	10a21104 	addi	r2,r2,-30652
   10afc:	80c00015 	stw	r3,0(r16)
   10b00:	80800415 	stw	r2,16(r16)
	delete[] m_C;
   10b04:	20000126 	beq	r4,zero,10b0c <_ZN21PositionControllerPanD1Ev+0x34>
   10b08:	0012b5c0 	call	12b5c <_ZdaPv>
	delete[] m_P;
   10b0c:	81001317 	ldw	r4,76(r16)
   10b10:	20000126 	beq	r4,zero,10b18 <_ZN21PositionControllerPanD1Ev+0x40>
   10b14:	0012b5c0 	call	12b5c <_ZdaPv>
	delete[] m_I;
   10b18:	81001417 	ldw	r4,80(r16)
   10b1c:	20000126 	beq	r4,zero,10b24 <_ZN21PositionControllerPanD1Ev+0x4c>
   10b20:	0012b5c0 	call	12b5c <_ZdaPv>
	delete[] m_V;
   10b24:	81001517 	ldw	r4,84(r16)
   10b28:	20000126 	beq	r4,zero,10b30 <_ZN21PositionControllerPanD1Ev+0x58>
   10b2c:	0012b5c0 	call	12b5c <_ZdaPv>
	delete[] m_s;
   10b30:	81001617 	ldw	r4,88(r16)
   10b34:	20000126 	beq	r4,zero,10b3c <_ZN21PositionControllerPanD1Ev+0x64>
   10b38:	0012b5c0 	call	12b5c <_ZdaPv>
	delete[] m_R;
   10b3c:	81001717 	ldw	r4,92(r16)
   10b40:	20000126 	beq	r4,zero,10b48 <_ZN21PositionControllerPanD1Ev+0x70>
   10b44:	0012b5c0 	call	12b5c <_ZdaPv>
	delete[] m_M;
   10b48:	81001817 	ldw	r4,96(r16)
   10b4c:	20000126 	beq	r4,zero,10b54 <_ZN21PositionControllerPanD1Ev+0x7c>
   10b50:	0012b5c0 	call	12b5c <_ZdaPv>
	delete[] m_U;
   10b54:	81001917 	ldw	r4,100(r16)
   10b58:	20000126 	beq	r4,zero,10b60 <_ZN21PositionControllerPanD1Ev+0x88>
   10b5c:	0012b5c0 	call	12b5c <_ZdaPv>
	delete[] m_workarray;
   10b60:	81001a17 	ldw	r4,104(r16)
   10b64:	20000126 	beq	r4,zero,10b6c <_ZN21PositionControllerPanD1Ev+0x94>
   10b68:	0012b5c0 	call	12b5c <_ZdaPv>
PositionControllerPan::~PositionControllerPan(void)
   10b6c:	81000204 	addi	r4,r16,8
}
   10b70:	dfc00117 	ldw	ra,4(sp)
   10b74:	dc000017 	ldw	r16,0(sp)
   10b78:	dec00204 	addi	sp,sp,8
PositionControllerPan::~PositionControllerPan(void)
   10b7c:	00101bc1 	jmpi	101bc <_ZN8DiscreteD1Ev>

00010b80 <_ZTv0_n16_N21PositionControllerPanD1Ev>:
		virtual ~PositionControllerPan(void);
   10b80:	2009883a 	mov	r4,r4
   10b84:	20800017 	ldw	r2,0(r4)
   10b88:	10bffc04 	addi	r2,r2,-16
   10b8c:	10800017 	ldw	r2,0(r2)
   10b90:	2089883a 	add	r4,r4,r2
   10b94:	0010ad81 	jmpi	10ad8 <_ZN21PositionControllerPanD1Ev>

00010b98 <_ZN21PositionControllerPanD0Ev>:
   10b98:	defffe04 	addi	sp,sp,-8
   10b9c:	dc000015 	stw	r16,0(sp)
   10ba0:	dfc00115 	stw	ra,4(sp)
   10ba4:	2021883a 	mov	r16,r4
}
   10ba8:	0010ad80 	call	10ad8 <_ZN21PositionControllerPanD1Ev>
   10bac:	01401b04 	movi	r5,108
   10bb0:	8009883a 	mov	r4,r16
   10bb4:	dfc00117 	ldw	ra,4(sp)
   10bb8:	dc000017 	ldw	r16,0(sp)
   10bbc:	dec00204 	addi	sp,sp,8
   10bc0:	0012b581 	jmpi	12b58 <_ZdlPvj>

00010bc4 <_ZTv0_n16_N21PositionControllerPanD0Ev>:
   10bc4:	20800017 	ldw	r2,0(r4)
   10bc8:	defffe04 	addi	sp,sp,-8
   10bcc:	dc000015 	stw	r16,0(sp)
   10bd0:	143ffc17 	ldw	r16,-16(r2)
   10bd4:	dfc00115 	stw	ra,4(sp)
   10bd8:	2421883a 	add	r16,r4,r16
   10bdc:	8009883a 	mov	r4,r16
   10be0:	0010ad80 	call	10ad8 <_ZN21PositionControllerPanD1Ev>
   10be4:	01401b04 	movi	r5,108
   10be8:	8009883a 	mov	r4,r16
   10bec:	dfc00117 	ldw	ra,4(sp)
   10bf0:	dc000017 	ldw	r16,0(sp)
   10bf4:	dec00204 	addi	sp,sp,8
   10bf8:	0012b581 	jmpi	12b58 <_ZdlPvj>

00010bfc <_ZN21PositionControllerPan10InitializeEPfS0_f>:
	m_initialize = true;
   10bfc:	20800017 	ldw	r2,0(r4)
{
   10c00:	defffb04 	addi	sp,sp,-20
   10c04:	dfc00415 	stw	ra,16(sp)
	m_initialize = true;
   10c08:	10bffd17 	ldw	r2,-12(r2)
{
   10c0c:	dcc00315 	stw	r19,12(sp)
   10c10:	dc800215 	stw	r18,8(sp)
	m_initialize = true;
   10c14:	2085883a 	add	r2,r4,r2
	m_P[0] = 0.0;		/* corrGain\K */
   10c18:	10c00f17 	ldw	r3,60(r2)
{
   10c1c:	dc400115 	stw	r17,4(sp)
   10c20:	dc000015 	stw	r16,0(sp)
	m_initialize = true;
   10c24:	02000044 	movi	r8,1
	m_P[3] = 0.17;		/* PID1\beta */
   10c28:	02cf8bb4 	movhi	r11,15918
	m_initialize = true;
   10c2c:	12000105 	stb	r8,4(r2)
	m_stop_run = false;
   10c30:	10000185 	stb	zero,6(r2)
{
   10c34:	2021883a 	mov	r16,r4
	m_P[3] = 0.17;		/* PID1\beta */
   10c38:	5ac51ec4 	addi	r11,r11,5243
	m_I[0] = 0.0;		/* PID1\uD_previous_initial */
   10c3c:	11001017 	ldw	r4,64(r2)
	m_P[1] = 2.6;		/* PID1\kp */
   10c40:	035009b4 	movhi	r13,16422
	m_P[2] = 0.05;		/* PID1\tauD */
   10c44:	030f5374 	movhi	r12,15693
	m_P[5] = -0.99;		/* SignalLimiter2\minimum */
   10c48:	02afdf74 	movhi	r10,49021
	m_P[6] = 0.99;		/* SignalLimiter2\maximum */
   10c4c:	024fdf74 	movhi	r9,16253
	m_s[0] = m_I[0];		/* PID1\uD_previous */
   10c50:	12001217 	ldw	r8,72(r2)
	m_P[1] = 2.6;		/* PID1\kp */
   10c54:	6b599984 	addi	r13,r13,26214
	m_P[3] = 0.17;		/* PID1\beta */
   10c58:	1ac00315 	stw	r11,12(r3)
	m_P[2] = 0.05;		/* PID1\tauD */
   10c5c:	63333344 	addi	r12,r12,-13107
	m_P[5] = -0.99;		/* SignalLimiter2\minimum */
   10c60:	529c2904 	addi	r10,r10,28836
	m_P[6] = 0.99;		/* SignalLimiter2\maximum */
   10c64:	4a5c2904 	addi	r9,r9,28836
	m_P[4] = 9.0;		/* PID1\tauI */
   10c68:	02d04434 	movhi	r11,16656
	m_P[1] = 2.6;		/* PID1\kp */
   10c6c:	1b400115 	stw	r13,4(r3)
	m_P[2] = 0.05;		/* PID1\tauD */
   10c70:	1b000215 	stw	r12,8(r3)
	m_P[4] = 9.0;		/* PID1\tauI */
   10c74:	1ac00415 	stw	r11,16(r3)
	m_P[5] = -0.99;		/* SignalLimiter2\minimum */
   10c78:	1a800515 	stw	r10,20(r3)
	m_P[6] = 0.99;		/* SignalLimiter2\maximum */
   10c7c:	1a400615 	stw	r9,24(r3)
	m_P[0] = 0.0;		/* corrGain\K */
   10c80:	18000015 	stw	zero,0(r3)
	m_I[1] = 0.0;		/* PID1\error_previous_initial */
   10c84:	20000115 	stw	zero,4(r4)
	m_I[2] = 0.0;		/* PID1\uI_previous_initial */
   10c88:	20000215 	stw	zero,8(r4)
	m_I[0] = 0.0;		/* PID1\uD_previous_initial */
   10c8c:	20000015 	stw	zero,0(r4)
	m_s[0] = m_I[0];		/* PID1\uD_previous */
   10c90:	40000015 	stw	zero,0(r8)
	m_s[1] = m_I[1];		/* PID1\error_previous */
   10c94:	20c00117 	ldw	r3,4(r4)
{
   10c98:	2825883a 	mov	r18,r5
	myintegmethod.Initialize(this);
   10c9c:	100b883a 	mov	r5,r2
	m_s[1] = m_I[1];		/* PID1\error_previous */
   10ca0:	40c00115 	stw	r3,4(r8)
	m_s[2] = m_I[2];		/* PID1\uI_previous */
   10ca4:	20c00217 	ldw	r3,8(r4)
	myintegmethod.Initialize(this);
   10ca8:	81000204 	addi	r4,r16,8
{
   10cac:	3023883a 	mov	r17,r6
	m_s[2] = m_I[2];		/* PID1\uI_previous */
   10cb0:	40c00215 	stw	r3,8(r8)
{
   10cb4:	3827883a 	mov	r19,r7
	myintegmethod.Initialize(this);
   10cb8:	00101c00 	call	101c0 <_ZN8Discrete10InitializeEP13Submodel20sim>
	m_time = t;
   10cbc:	80c00017 	ldw	r3,0(r16)
	CalculateDynamic ();
   10cc0:	8009883a 	mov	r4,r16
	m_time = t;
   10cc4:	18bffd17 	ldw	r2,-12(r3)
	CalculateDynamic ();
   10cc8:	18c00217 	ldw	r3,8(r3)
	m_time = t;
   10ccc:	8085883a 	add	r2,r16,r2
   10cd0:	14c00515 	stw	r19,20(r2)
	m_V[7] = u[0];		/* in */
   10cd4:	91400017 	ldw	r5,0(r18)
   10cd8:	10801117 	ldw	r2,68(r2)
   10cdc:	11400715 	stw	r5,28(r2)
	m_V[8] = u[1];		/* position */
   10ce0:	91400117 	ldw	r5,4(r18)
   10ce4:	11400815 	stw	r5,32(r2)
	CalculateDynamic ();
   10ce8:	183ee83a 	callr	r3
	m_V[6] = m_V[0];
   10cec:	80800017 	ldw	r2,0(r16)
   10cf0:	10fffd17 	ldw	r3,-12(r2)
   10cf4:	80c7883a 	add	r3,r16,r3
   10cf8:	18801117 	ldw	r2,68(r3)
   10cfc:	11000017 	ldw	r4,0(r2)
	m_V[9] = m_V[4];
   10d00:	11400417 	ldw	r5,16(r2)
	m_V[6] = m_V[0];
   10d04:	11000615 	stw	r4,24(r2)
	m_V[9] = m_V[4];
   10d08:	11400915 	stw	r5,36(r2)
	y[0] = 	m_V[6];		/* corr */
   10d0c:	89000015 	stw	r4,0(r17)
	y[1] = 	m_V[9];		/* out */
   10d10:	10800917 	ldw	r2,36(r2)
   10d14:	88800115 	stw	r2,4(r17)
	m_initialize = false;
   10d18:	18000105 	stb	zero,4(r3)
	state = mainrun;
   10d1c:	00800044 	movi	r2,1
   10d20:	80800115 	stw	r2,4(r16)
}
   10d24:	dfc00417 	ldw	ra,16(sp)
   10d28:	dcc00317 	ldw	r19,12(sp)
   10d2c:	dc800217 	ldw	r18,8(sp)
   10d30:	dc400117 	ldw	r17,4(sp)
   10d34:	dc000017 	ldw	r16,0(sp)
   10d38:	dec00504 	addi	sp,sp,20
   10d3c:	f800283a 	ret

00010d40 <_ZN21PositionControllerPan9CalculateEPfS0_>:
	switch (state)
   10d40:	20800117 	ldw	r2,4(r4)
   10d44:	10004226 	beq	r2,zero,10e50 <_ZN21PositionControllerPan9CalculateEPfS0_+0x110>
   10d48:	10800060 	cmpeqi	r2,r2,1
   10d4c:	10002526 	beq	r2,zero,10de4 <_ZN21PositionControllerPan9CalculateEPfS0_+0xa4>
			if ( ( m_time <= (m_finish_time - m_step_size  + c_delta )) || ( m_finish_time == 0.0 ) )
   10d50:	20800017 	ldw	r2,0(r4)
{
   10d54:	defffd04 	addi	sp,sp,-12
   10d58:	dc000015 	stw	r16,0(sp)
   10d5c:	2021883a 	mov	r16,r4
			if ( ( m_time <= (m_finish_time - m_step_size  + c_delta )) || ( m_finish_time == 0.0 ) )
   10d60:	113ffd17 	ldw	r4,-12(r2)
{
   10d64:	dc400115 	stw	r17,4(sp)
   10d68:	dfc00215 	stw	ra,8(sp)
			if ( ( m_time <= (m_finish_time - m_step_size  + c_delta )) || ( m_finish_time == 0.0 ) )
   10d6c:	8109883a 	add	r4,r16,r4
   10d70:	20800217 	ldw	r2,8(r4)
   10d74:	3023883a 	mov	r17,r6
   10d78:	21800417 	ldw	r6,16(r4)
   10d7c:	21c00517 	ldw	r7,20(r4)
   10d80:	2807883a 	mov	r3,r5
   10d84:	014cf5f4 	movhi	r5,13271
   10d88:	296fe544 	addi	r5,r5,-16491
   10d8c:	3085ffb2 	custom	254,r2,r6,r2
   10d90:	1145ff72 	custom	253,r2,r2,r5
   10d94:	3885f9b2 	custom	230,r2,r7,r2
   10d98:	1000131e 	bne	r2,zero,10de8 <_ZN21PositionControllerPan9CalculateEPfS0_+0xa8>
   10d9c:	3085f8b2 	custom	226,r2,r6,r2
   10da0:	10001126 	beq	r2,zero,10de8 <_ZN21PositionControllerPan9CalculateEPfS0_+0xa8>
			if ( ( m_stop_run == true ) || (( m_finish_time != 0.0 ) && ( m_time + c_delta >= m_finish_time)) )
   10da4:	20800183 	ldbu	r2,6(r4)
				state = finished;
   10da8:	00c00084 	movi	r3,2
   10dac:	80c00115 	stw	r3,4(r16)
			if ( ( m_stop_run == true ) || (( m_finish_time != 0.0 ) && ( m_time + c_delta >= m_finish_time)) )
   10db0:	1000051e 	bne	r2,zero,10dc8 <_ZN21PositionControllerPan9CalculateEPfS0_+0x88>
   10db4:	008cf5f4 	movhi	r2,13271
   10db8:	10afe544 	addi	r2,r2,-16491
   10dbc:	388fff72 	custom	253,r7,r7,r2
   10dc0:	398df932 	custom	228,r6,r7,r6
   10dc4:	30000226 	beq	r6,zero,10dd0 <_ZN21PositionControllerPan9CalculateEPfS0_+0x90>
				state = finished;
   10dc8:	00800084 	movi	r2,2
   10dcc:	80800115 	stw	r2,4(r16)
}
   10dd0:	dfc00217 	ldw	ra,8(sp)
   10dd4:	dc400117 	ldw	r17,4(sp)
   10dd8:	dc000017 	ldw	r16,0(sp)
   10ddc:	dec00304 	addi	sp,sp,12
   10de0:	f800283a 	ret
   10de4:	f800283a 	ret
	m_V[7] = u[0];		/* in */
   10de8:	20801117 	ldw	r2,68(r4)
   10dec:	19400017 	ldw	r5,0(r3)
				myintegmethod.Step();
   10df0:	81000204 	addi	r4,r16,8
	m_V[7] = u[0];		/* in */
   10df4:	11400715 	stw	r5,28(r2)
	m_V[8] = u[1];		/* position */
   10df8:	18c00117 	ldw	r3,4(r3)
   10dfc:	10c00815 	stw	r3,32(r2)
				myintegmethod.Step();
   10e00:	00101dc0 	call	101dc <_ZN8Discrete4StepEv>
	m_V[6] = m_V[0];
   10e04:	80800017 	ldw	r2,0(r16)
   10e08:	10fffd17 	ldw	r3,-12(r2)
   10e0c:	80c7883a 	add	r3,r16,r3
   10e10:	18801117 	ldw	r2,68(r3)
			if ( ( m_stop_run == true ) || (( m_finish_time != 0.0 ) && ( m_time + c_delta >= m_finish_time)) )
   10e14:	19400183 	ldbu	r5,6(r3)
	m_V[6] = m_V[0];
   10e18:	11000017 	ldw	r4,0(r2)
	m_V[9] = m_V[4];
   10e1c:	11800417 	ldw	r6,16(r2)
	m_V[6] = m_V[0];
   10e20:	11000615 	stw	r4,24(r2)
	m_V[9] = m_V[4];
   10e24:	11800915 	stw	r6,36(r2)
	y[0] = 	m_V[6];		/* corr */
   10e28:	89000015 	stw	r4,0(r17)
	y[1] = 	m_V[9];		/* out */
   10e2c:	10800917 	ldw	r2,36(r2)
   10e30:	88800115 	stw	r2,4(r17)
			if ( ( m_stop_run == true ) || (( m_finish_time != 0.0 ) && ( m_time + c_delta >= m_finish_time)) )
   10e34:	283fe41e 	bne	r5,zero,10dc8 <_ZN21PositionControllerPan9CalculateEPfS0_+0x88>
   10e38:	19800417 	ldw	r6,16(r3)
   10e3c:	0005883a 	mov	r2,zero
   10e40:	3085f8b2 	custom	226,r2,r6,r2
   10e44:	103fe226 	beq	r2,zero,10dd0 <_ZN21PositionControllerPan9CalculateEPfS0_+0x90>
   10e48:	19c00517 	ldw	r7,20(r3)
   10e4c:	003fd906 	br	10db4 <_ZN21PositionControllerPan9CalculateEPfS0_+0x74>
			Initialize(u, y, 0.0);
   10e50:	000f883a 	mov	r7,zero
   10e54:	0010bfc1 	jmpi	10bfc <_ZN21PositionControllerPan10InitializeEPfS0_f>

00010e58 <_ZN22PositionControllerTilt16CalculateDynamicEv>:
 * to calculate the new model rates (that are then integrated).
 */
void PositionControllerTilt::CalculateDynamic (void)
{
	/* PID1\factor = 1 / (sampletime + PID1\tauD * PID1\beta); */
	m_V[3] = 1.0 / (m_step_size + m_P[2] * m_P[3]);
   10e58:	20800017 	ldw	r2,0(r4)
   10e5c:	024fe034 	movhi	r9,16256
   10e60:	10bffd17 	ldw	r2,-12(r2)
   10e64:	2089883a 	add	r4,r4,r2
   10e68:	21400f17 	ldw	r5,60(r4)
   10e6c:	20c01117 	ldw	r3,68(r4)
   10e70:	22800217 	ldw	r10,8(r4)
   10e74:	2ac00317 	ldw	r11,12(r5)
   10e78:	2a000217 	ldw	r8,8(r5)

	/* corrGain\input = corr; */
	m_V[0] = m_V[8];
   10e7c:	18800817 	ldw	r2,32(r3)

	/* PlusMinus2\plus1 = in; */
	m_V[5] = m_V[9];
   10e80:	19800917 	ldw	r6,36(r3)

	/* PlusMinus2\minus1 = position; */
	m_V[6] = m_V[10];
   10e84:	19c00a17 	ldw	r7,40(r3)
	m_V[3] = 1.0 / (m_step_size + m_P[2] * m_P[3]);
   10e88:	42d1ff32 	custom	252,r8,r8,r11
   10e8c:	4291ff72 	custom	253,r8,r8,r10
   10e90:	4a11fff2 	custom	255,r8,r9,r8
   10e94:	1a000315 	stw	r8,12(r3)
	m_V[6] = m_V[10];
   10e98:	19c00615 	stw	r7,24(r3)
	m_V[0] = m_V[8];
   10e9c:	18800015 	stw	r2,0(r3)
	m_V[5] = m_V[9];
   10ea0:	19800515 	stw	r6,20(r3)

	/* corrGain\output = corrGain\K * corrGain\input; */
	m_V[1] = m_P[0] * m_V[0];
   10ea4:	2a000017 	ldw	r8,0(r5)

	/* PID1\error = PlusMinus2\plus1 - PlusMinus2\minus1; */
	m_R[1] = m_V[5] - m_V[6];
   10ea8:	22801317 	ldw	r10,76(r4)

	/* PID1\uD = PID1\factor * (((PID1\tauD * PID1\uD_previous) * PID1\beta + (PID1\tauD * PID1\kp) * (PID1\error - PID1\error_previous)) + (sampletime * PID1\kp) * PID1\error); */
	m_R[0] = m_V[3] * (((m_P[2] * m_s[0]) * m_P[3] + (m_P[2] * m_P[1]) * (m_R[1] - m_s[1])) + (m_step_size * m_P[1]) * m_R[1]);
   10eac:	22c01217 	ldw	r11,72(r4)
	m_V[1] = m_P[0] * m_V[0];
   10eb0:	4091ff32 	custom	252,r8,r8,r2
   10eb4:	1a000115 	stw	r8,4(r3)
	m_R[1] = m_V[5] - m_V[6];
   10eb8:	31cfffb2 	custom	254,r7,r6,r7
   10ebc:	51c00115 	stw	r7,4(r10)
	m_R[0] = m_V[3] * (((m_P[2] * m_s[0]) * m_P[3] + (m_P[2] * m_P[1]) * (m_R[1] - m_s[1])) + (m_step_size * m_P[1]) * m_R[1]);
   10ec0:	2a400217 	ldw	r9,8(r5)
   10ec4:	29800117 	ldw	r6,4(r5)
   10ec8:	58800017 	ldw	r2,0(r11)
   10ecc:	5a000117 	ldw	r8,4(r11)
   10ed0:	23400217 	ldw	r13,8(r4)
   10ed4:	2b800317 	ldw	r14,12(r5)
   10ed8:	4885ff32 	custom	252,r2,r9,r2
   10edc:	3a11ffb2 	custom	254,r8,r7,r8
   10ee0:	4993ff32 	custom	252,r9,r9,r6
   10ee4:	1b000317 	ldw	r12,12(r3)
   10ee8:	1385ff32 	custom	252,r2,r2,r14
   10eec:	4251ff32 	custom	252,r8,r8,r9
   10ef0:	334dff32 	custom	252,r6,r6,r13
   10ef4:	31cdff32 	custom	252,r6,r6,r7
   10ef8:	1205ff72 	custom	253,r2,r2,r8
   10efc:	1185ff72 	custom	253,r2,r2,r6
   10f00:	1305ff32 	custom	252,r2,r2,r12
   10f04:	50800015 	stw	r2,0(r10)

	/* PID1\uI = PID1\uI_previous + (sampletime * PID1\uD) / PID1\tauI; */
	m_R[2] = m_s[2] + (m_step_size * m_R[0]) / m_P[4];
   10f08:	21000217 	ldw	r4,8(r4)
   10f0c:	29c00417 	ldw	r7,16(r5)
   10f10:	59800217 	ldw	r6,8(r11)
   10f14:	1109ff32 	custom	252,r4,r2,r4
   10f18:	21c9fff2 	custom	255,r4,r4,r7
   10f1c:	2189ff72 	custom	253,r4,r4,r6

	/* PID1\output = PID1\uI + PID1\uD; */
	m_V[2] = m_R[2] + m_R[0];
   10f20:	1105ff72 	custom	253,r2,r2,r4
	m_R[2] = m_s[2] + (m_step_size * m_R[0]) / m_P[4];
   10f24:	51000215 	stw	r4,8(r10)
	m_V[2] = m_R[2] + m_R[0];
   10f28:	18800215 	stw	r2,8(r3)

	/* PlusMinus1\output = corrGain\output + PID1\output; */
	m_V[4] = m_V[1] + m_V[2];
   10f2c:	19000117 	ldw	r4,4(r3)
   10f30:	1105ff72 	custom	253,r2,r2,r4
   10f34:	18800415 	stw	r2,16(r3)

	/* SignalLimiter2\output = (if PlusMinus1\output < SignalLimiter2\minimum then SignalLimiter2\minimum else (if PlusMinus1\output > SignalLimiter2\maximum then SignalLimiter2\maximum else PlusMinus1\output end) end); */
	m_V[7] = ((m_V[4] < m_P[5]) ? 
   10f38:	29000517 	ldw	r4,20(r5)
   10f3c:	110df9f2 	custom	231,r6,r2,r4
   10f40:	3000031e 	bne	r6,zero,10f50 <_ZN22PositionControllerTilt16CalculateDynamicEv+0xf8>
		/* SignalLimiter2\minimum */
		m_P[5]
	:
		/* (if PlusMinus1\output > SignalLimiter2\maximum then SignalLimiter2\maximum else PlusMinus1\output end) */
		((m_V[4] > m_P[6]) ? 
   10f44:	29000617 	ldw	r4,24(r5)
   10f48:	110bf972 	custom	229,r5,r2,r4
   10f4c:	28000226 	beq	r5,zero,10f58 <_ZN22PositionControllerTilt16CalculateDynamicEv+0x100>
	m_V[7] = ((m_V[4] < m_P[5]) ? 
   10f50:	19000715 	stw	r4,28(r3)
			/* PlusMinus1\output */
			m_V[4]
		)
	);

}
   10f54:	f800283a 	ret
		((m_V[4] > m_P[6]) ? 
   10f58:	1009883a 	mov	r4,r2
	m_V[7] = ((m_V[4] < m_P[5]) ? 
   10f5c:	19000715 	stw	r4,28(r3)
}
   10f60:	f800283a 	ret

00010f64 <_ZTv0_n12_N22PositionControllerTilt16CalculateDynamicEv>:
		 * CalculateDynamic()
		 * This function calculates the dynamic equations of the model.
		 * These equations are called from the integration method
		 * to calculate the new model rates (that are then integrated).
		 */
		void CalculateDynamic (void);
   10f64:	2009883a 	mov	r4,r4
   10f68:	20800017 	ldw	r2,0(r4)
   10f6c:	10bffd04 	addi	r2,r2,-12
   10f70:	10800017 	ldw	r2,0(r2)
   10f74:	2089883a 	add	r4,r4,r2
   10f78:	0010e581 	jmpi	10e58 <_ZN22PositionControllerTilt16CalculateDynamicEv>

00010f7c <_ZN22PositionControllerTilt21CopyInputsToVariablesEPf>:
	m_V[8] = u[0];		/* corr */
   10f7c:	20800017 	ldw	r2,0(r4)
   10f80:	28c00017 	ldw	r3,0(r5)
   10f84:	10bffd17 	ldw	r2,-12(r2)
   10f88:	2089883a 	add	r4,r4,r2
   10f8c:	20801117 	ldw	r2,68(r4)
   10f90:	10c00815 	stw	r3,32(r2)
	m_V[9] = u[1];		/* in */
   10f94:	28c00117 	ldw	r3,4(r5)
   10f98:	10c00915 	stw	r3,36(r2)
	m_V[10] = u[2];		/* position */
   10f9c:	28c00217 	ldw	r3,8(r5)
   10fa0:	10c00a15 	stw	r3,40(r2)
}
   10fa4:	f800283a 	ret

00010fa8 <_ZN22PositionControllerTilt22CopyVariablesToOutputsEPf>:
	y[0] = 	m_V[11];		/* out */
   10fa8:	20800017 	ldw	r2,0(r4)
   10fac:	10bffd17 	ldw	r2,-12(r2)
   10fb0:	2089883a 	add	r4,r4,r2
   10fb4:	20801117 	ldw	r2,68(r4)
   10fb8:	10800b17 	ldw	r2,44(r2)
   10fbc:	28800015 	stw	r2,0(r5)
}
   10fc0:	f800283a 	ret

00010fc4 <_ZN22PositionControllerTilt5ResetEf>:
	m_start_time = starttime;
   10fc4:	20800017 	ldw	r2,0(r4)
{
   10fc8:	defffe04 	addi	sp,sp,-8
   10fcc:	dc000015 	stw	r16,0(sp)
	m_start_time = starttime;
   10fd0:	10bffd17 	ldw	r2,-12(r2)
{
   10fd4:	2021883a 	mov	r16,r4
	m_step_size = 0.0001;
   10fd8:	010e34b4 	movhi	r4,14546
	m_start_time = starttime;
   10fdc:	8085883a 	add	r2,r16,r2
{
   10fe0:	dfc00115 	stw	ra,4(sp)
	memset(m_C, 0, (0 + 1) * sizeof(XXDouble));
   10fe4:	10c00e17 	ldw	r3,56(r2)
	m_step_size = 0.0001;
   10fe8:	212dc5c4 	addi	r4,r4,-18665
   10fec:	11000215 	stw	r4,8(r2)
	m_major = true;
   10ff0:	01000044 	movi	r4,1
	m_start_time = starttime;
   10ff4:	11400315 	stw	r5,12(r2)
	m_time = starttime;
   10ff8:	11400515 	stw	r5,20(r2)
	m_major = true;
   10ffc:	11000145 	stb	r4,5(r2)
	m_stop_run = false;
   11000:	10000185 	stb	zero,6(r2)
	memset(m_C, 0, (0 + 1) * sizeof(XXDouble));
   11004:	18000005 	stb	zero,0(r3)
   11008:	18000045 	stb	zero,1(r3)
   1100c:	18000085 	stb	zero,2(r3)
   11010:	180000c5 	stb	zero,3(r3)
	memset(m_P, 0, (7 + 1) * sizeof(XXDouble));
   11014:	80800017 	ldw	r2,0(r16)
   11018:	01800804 	movi	r6,32
   1101c:	000b883a 	mov	r5,zero
   11020:	10bffd17 	ldw	r2,-12(r2)
   11024:	8085883a 	add	r2,r16,r2
   11028:	11000f17 	ldw	r4,60(r2)
   1102c:	00171240 	call	17124 <memset>
	memset(m_I, 0, (3 + 1) * sizeof(XXDouble));
   11030:	80800017 	ldw	r2,0(r16)
   11034:	01800404 	movi	r6,16
   11038:	000b883a 	mov	r5,zero
   1103c:	10bffd17 	ldw	r2,-12(r2)
   11040:	8085883a 	add	r2,r16,r2
   11044:	11001017 	ldw	r4,64(r2)
   11048:	00171240 	call	17124 <memset>
	memset(m_V, 0, (12 + 1) * sizeof(XXDouble));
   1104c:	80800017 	ldw	r2,0(r16)
   11050:	01800d04 	movi	r6,52
   11054:	000b883a 	mov	r5,zero
   11058:	10bffd17 	ldw	r2,-12(r2)
   1105c:	8085883a 	add	r2,r16,r2
   11060:	11001117 	ldw	r4,68(r2)
   11064:	00171240 	call	17124 <memset>
	memset(m_s, 0, (3 + 1) * sizeof(XXDouble));
   11068:	80800017 	ldw	r2,0(r16)
   1106c:	01800404 	movi	r6,16
   11070:	000b883a 	mov	r5,zero
   11074:	10bffd17 	ldw	r2,-12(r2)
   11078:	8085883a 	add	r2,r16,r2
   1107c:	11001217 	ldw	r4,72(r2)
   11080:	00171240 	call	17124 <memset>
	memset(m_R, 0, (3 + 1) * sizeof(XXDouble));
   11084:	80800017 	ldw	r2,0(r16)
   11088:	01800404 	movi	r6,16
   1108c:	000b883a 	mov	r5,zero
   11090:	10bffd17 	ldw	r2,-12(r2)
   11094:	8085883a 	add	r2,r16,r2
   11098:	11001317 	ldw	r4,76(r2)
   1109c:	00171240 	call	17124 <memset>
	memset(m_M, 0, (0 + 1) * sizeof(XXDouble));
   110a0:	80800017 	ldw	r2,0(r16)
   110a4:	10bffd17 	ldw	r2,-12(r2)
   110a8:	8085883a 	add	r2,r16,r2
   110ac:	10801417 	ldw	r2,80(r2)
   110b0:	10000005 	stb	zero,0(r2)
   110b4:	10000045 	stb	zero,1(r2)
   110b8:	10000085 	stb	zero,2(r2)
   110bc:	100000c5 	stb	zero,3(r2)
	memset(m_U, 0, (0 + 1) * sizeof(XXDouble));
   110c0:	80800017 	ldw	r2,0(r16)
   110c4:	10bffd17 	ldw	r2,-12(r2)
   110c8:	8085883a 	add	r2,r16,r2
   110cc:	10801517 	ldw	r2,84(r2)
   110d0:	10000005 	stb	zero,0(r2)
   110d4:	10000045 	stb	zero,1(r2)
   110d8:	10000085 	stb	zero,2(r2)
   110dc:	100000c5 	stb	zero,3(r2)
	memset(m_workarray, 0, (0 + 1) * sizeof(XXDouble));
   110e0:	80800017 	ldw	r2,0(r16)
   110e4:	10bffd17 	ldw	r2,-12(r2)
   110e8:	8085883a 	add	r2,r16,r2
   110ec:	10801617 	ldw	r2,88(r2)
   110f0:	10000005 	stb	zero,0(r2)
   110f4:	10000045 	stb	zero,1(r2)
   110f8:	10000085 	stb	zero,2(r2)
   110fc:	100000c5 	stb	zero,3(r2)
	state = initialrun;
   11100:	80000115 	stw	zero,4(r16)
}
   11104:	dfc00117 	ldw	ra,4(sp)
   11108:	dc000017 	ldw	r16,0(sp)
   1110c:	dec00204 	addi	sp,sp,8
   11110:	f800283a 	ret

00011114 <_ZN22PositionControllerTilt10IsFinishedEv>:
	return (state == finished);
   11114:	20800117 	ldw	r2,4(r4)
   11118:	108000a0 	cmpeqi	r2,r2,2
}
   1111c:	f800283a 	ret

00011120 <_ZN22PositionControllerTilt9TerminateEPfS0_>:
	m_V[8] = u[0];		/* corr */
   11120:	20800017 	ldw	r2,0(r4)
   11124:	28c00017 	ldw	r3,0(r5)
   11128:	10bffd17 	ldw	r2,-12(r2)
   1112c:	2089883a 	add	r4,r4,r2
   11130:	20801117 	ldw	r2,68(r4)
   11134:	10c00815 	stw	r3,32(r2)
	m_V[9] = u[1];		/* in */
   11138:	29000117 	ldw	r4,4(r5)
	y[0] = 	m_V[11];		/* out */
   1113c:	10c00b17 	ldw	r3,44(r2)
	m_V[9] = u[1];		/* in */
   11140:	11000915 	stw	r4,36(r2)
	m_V[10] = u[2];		/* position */
   11144:	29000217 	ldw	r4,8(r5)
   11148:	11000a15 	stw	r4,40(r2)
	y[0] = 	m_V[11];		/* out */
   1114c:	30c00015 	stw	r3,0(r6)
}
   11150:	f800283a 	ret

00011154 <_ZN22PositionControllerTilt16CalculateInitialEv>:
}
   11154:	f800283a 	ret

00011158 <_ZN22PositionControllerTilt15CalculateStaticEv>:
   11158:	f800283a 	ret

0001115c <_ZN22PositionControllerTilt14CalculateInputEv>:
   1115c:	f800283a 	ret

00011160 <_ZN22PositionControllerTilt15CalculateOutputEv>:
 * integration step that is taken. This makes model computation much faster.
 */
void PositionControllerTilt::CalculateOutput (void)
{
	/* out = SignalLimiter2\output; */
	m_V[11] = m_V[7];
   11160:	20800017 	ldw	r2,0(r4)
   11164:	10bffd17 	ldw	r2,-12(r2)
   11168:	2089883a 	add	r4,r4,r2
   1116c:	20801117 	ldw	r2,68(r4)
   11170:	10c00717 	ldw	r3,28(r2)
   11174:	10c00b15 	stw	r3,44(r2)

}
   11178:	f800283a 	ret

0001117c <_ZN22PositionControllerTilt14CalculateFinalEv>:
   1117c:	f800283a 	ret

00011180 <_ZN22PositionControllerTilt13SetFinishTimeEf>:



bool PositionControllerTilt::SetFinishTime(XXDouble newtime)
{
	if ((newtime <= 0.0) || ( newtime > m_time))
   11180:	20c00017 	ldw	r3,0(r4)
   11184:	0005883a 	mov	r2,zero
   11188:	2885f9b2 	custom	230,r2,r5,r2
   1118c:	18fffd17 	ldw	r3,-12(r3)
   11190:	20c9883a 	add	r4,r4,r3
   11194:	1000051e 	bne	r2,zero,111ac <_ZN22PositionControllerTilt13SetFinishTimeEf+0x2c>
   11198:	20800517 	ldw	r2,20(r4)
   1119c:	1145f9f2 	custom	231,r2,r2,r5
   111a0:	1000021e 	bne	r2,zero,111ac <_ZN22PositionControllerTilt13SetFinishTimeEf+0x2c>
	{
		m_finish_time = newtime;
		return true;
	}

	return false;
   111a4:	0005883a 	mov	r2,zero
}
   111a8:	f800283a 	ret
		m_finish_time = newtime;
   111ac:	21400415 	stw	r5,16(r4)
		return true;
   111b0:	00800044 	movi	r2,1
   111b4:	f800283a 	ret

000111b8 <_ZN22PositionControllerTiltC2Ev>:
PositionControllerTilt::PositionControllerTilt(void)
   111b8:	deffee04 	addi	sp,sp,-72
   111bc:	01800074 	movhi	r6,1
   111c0:	00c000b4 	movhi	r3,2
   111c4:	00800074 	movhi	r2,1
   111c8:	318c2104 	addi	r6,r6,12420
   111cc:	18e1c704 	addi	r3,r3,-30948
   111d0:	10850b04 	addi	r2,r2,5164
   111d4:	d9400115 	stw	r5,4(sp)
   111d8:	200b883a 	mov	r5,r4
   111dc:	d9000304 	addi	r4,sp,12
   111e0:	d9800915 	stw	r6,36(sp)
   111e4:	dfc01115 	stw	ra,68(sp)
   111e8:	d9400015 	stw	r5,0(sp)
   111ec:	d8c00a15 	stw	r3,40(sp)
   111f0:	d8800c15 	stw	r2,48(sp)
   111f4:	df001015 	stw	fp,64(sp)
   111f8:	df000b15 	stw	fp,44(sp)
   111fc:	dec00d15 	stw	sp,52(sp)
   11200:	0016bb80 	call	16bb8 <_Unwind_SjLj_Register>
   11204:	d8800117 	ldw	r2,4(sp)
   11208:	d9c00017 	ldw	r7,0(sp)
   1120c:	10c00017 	ldw	r3,0(r2)
   11210:	11400117 	ldw	r5,4(r2)
   11214:	39000204 	addi	r4,r7,8
   11218:	18bffd17 	ldw	r2,-12(r3)
   1121c:	38c00015 	stw	r3,0(r7)
   11220:	d9000215 	stw	r4,8(sp)
   11224:	3885883a 	add	r2,r7,r2
   11228:	11400015 	stw	r5,0(r2)
   1122c:	00bfffc4 	movi	r2,-1
   11230:	d8800415 	stw	r2,16(sp)
   11234:	00102400 	call	10240 <_ZN8DiscreteC1Ev>
	m_number_constants = 0;
   11238:	d9c00017 	ldw	r7,0(sp)
	m_number_parameters = 7;
   1123c:	018001c4 	movi	r6,7
	m_number_initialvalues = 3;
   11240:	014000c4 	movi	r5,3
	m_number_constants = 0;
   11244:	38800017 	ldw	r2,0(r7)
	m_C = new XXDouble[0 + 1];		/* constants */
   11248:	01000104 	movi	r4,4
	m_number_constants = 0;
   1124c:	10fffd17 	ldw	r3,-12(r2)
   11250:	38c7883a 	add	r3,r7,r3
   11254:	18000615 	stw	zero,24(r3)
	m_number_parameters = 7;
   11258:	10fffd17 	ldw	r3,-12(r2)
   1125c:	38c7883a 	add	r3,r7,r3
   11260:	19800715 	stw	r6,28(r3)
	m_number_initialvalues = 3;
   11264:	10fffd17 	ldw	r3,-12(r2)
	m_number_variables = 12;
   11268:	01800304 	movi	r6,12
	m_number_initialvalues = 3;
   1126c:	38c7883a 	add	r3,r7,r3
   11270:	19400815 	stw	r5,32(r3)
	m_number_variables = 12;
   11274:	10fffd17 	ldw	r3,-12(r2)
   11278:	38c7883a 	add	r3,r7,r3
   1127c:	19800915 	stw	r6,36(r3)
	m_number_states = 3;
   11280:	10fffd17 	ldw	r3,-12(r2)
   11284:	38c7883a 	add	r3,r7,r3
   11288:	19400a15 	stw	r5,40(r3)
	m_number_rates = 3;
   1128c:	10fffd17 	ldw	r3,-12(r2)
   11290:	38c7883a 	add	r3,r7,r3
   11294:	19400b15 	stw	r5,44(r3)
	m_number_matrices = 0;
   11298:	10fffd17 	ldw	r3,-12(r2)
   1129c:	38c7883a 	add	r3,r7,r3
   112a0:	18000c15 	stw	zero,48(r3)
	m_number_unnamed = 0;
   112a4:	10fffd17 	ldw	r3,-12(r2)
   112a8:	38c7883a 	add	r3,r7,r3
   112ac:	18000d15 	stw	zero,52(r3)
	m_C = new XXDouble[0 + 1];		/* constants */
   112b0:	10bffd17 	ldw	r2,-12(r2)
   112b4:	00c00044 	movi	r3,1
   112b8:	d8c00415 	stw	r3,16(sp)
   112bc:	3885883a 	add	r2,r7,r2
   112c0:	d8800115 	stw	r2,4(sp)
   112c4:	0013bf80 	call	13bf8 <_Znaj>
	m_P = new XXDouble[7 + 1];		/* parameters */
   112c8:	d9400017 	ldw	r5,0(sp)
	m_C = new XXDouble[0 + 1];		/* constants */
   112cc:	d9000117 	ldw	r4,4(sp)
	m_P = new XXDouble[7 + 1];		/* parameters */
   112d0:	28c00017 	ldw	r3,0(r5)
	m_C = new XXDouble[0 + 1];		/* constants */
   112d4:	20800e15 	stw	r2,56(r4)
	m_P = new XXDouble[7 + 1];		/* parameters */
   112d8:	01000804 	movi	r4,32
   112dc:	18bffd17 	ldw	r2,-12(r3)
   112e0:	2885883a 	add	r2,r5,r2
   112e4:	d8800115 	stw	r2,4(sp)
   112e8:	0013bf80 	call	13bf8 <_Znaj>
	m_I = new XXDouble[3 + 1];		/* initial values */
   112ec:	d9400017 	ldw	r5,0(sp)
	m_P = new XXDouble[7 + 1];		/* parameters */
   112f0:	d9000117 	ldw	r4,4(sp)
	m_I = new XXDouble[3 + 1];		/* initial values */
   112f4:	28c00017 	ldw	r3,0(r5)
	m_P = new XXDouble[7 + 1];		/* parameters */
   112f8:	20800f15 	stw	r2,60(r4)
	m_I = new XXDouble[3 + 1];		/* initial values */
   112fc:	01000404 	movi	r4,16
   11300:	18bffd17 	ldw	r2,-12(r3)
   11304:	2885883a 	add	r2,r5,r2
   11308:	d8800115 	stw	r2,4(sp)
   1130c:	0013bf80 	call	13bf8 <_Znaj>
	m_V = new XXDouble[12 + 1];		/* variables */
   11310:	d9400017 	ldw	r5,0(sp)
	m_I = new XXDouble[3 + 1];		/* initial values */
   11314:	d9000117 	ldw	r4,4(sp)
	m_V = new XXDouble[12 + 1];		/* variables */
   11318:	28c00017 	ldw	r3,0(r5)
	m_I = new XXDouble[3 + 1];		/* initial values */
   1131c:	20801015 	stw	r2,64(r4)
	m_V = new XXDouble[12 + 1];		/* variables */
   11320:	01000d04 	movi	r4,52
   11324:	18bffd17 	ldw	r2,-12(r3)
   11328:	2885883a 	add	r2,r5,r2
   1132c:	d8800115 	stw	r2,4(sp)
   11330:	0013bf80 	call	13bf8 <_Znaj>
	m_s = new XXDouble[3 + 1];		/* states */
   11334:	d9400017 	ldw	r5,0(sp)
	m_V = new XXDouble[12 + 1];		/* variables */
   11338:	d9000117 	ldw	r4,4(sp)
	m_s = new XXDouble[3 + 1];		/* states */
   1133c:	28c00017 	ldw	r3,0(r5)
	m_V = new XXDouble[12 + 1];		/* variables */
   11340:	20801115 	stw	r2,68(r4)
	m_s = new XXDouble[3 + 1];		/* states */
   11344:	01000404 	movi	r4,16
   11348:	18bffd17 	ldw	r2,-12(r3)
   1134c:	2885883a 	add	r2,r5,r2
   11350:	d8800115 	stw	r2,4(sp)
   11354:	0013bf80 	call	13bf8 <_Znaj>
	m_R = new XXDouble[3 + 1];		/* rates (or new states) */
   11358:	d9400017 	ldw	r5,0(sp)
	m_s = new XXDouble[3 + 1];		/* states */
   1135c:	d9000117 	ldw	r4,4(sp)
	m_R = new XXDouble[3 + 1];		/* rates (or new states) */
   11360:	28c00017 	ldw	r3,0(r5)
	m_s = new XXDouble[3 + 1];		/* states */
   11364:	20801215 	stw	r2,72(r4)
	m_R = new XXDouble[3 + 1];		/* rates (or new states) */
   11368:	01000404 	movi	r4,16
   1136c:	18bffd17 	ldw	r2,-12(r3)
   11370:	2885883a 	add	r2,r5,r2
   11374:	d8800115 	stw	r2,4(sp)
   11378:	0013bf80 	call	13bf8 <_Znaj>
	m_M = new XXMatrix[0 + 1];		/* matrices */
   1137c:	d9400017 	ldw	r5,0(sp)
	m_R = new XXDouble[3 + 1];		/* rates (or new states) */
   11380:	d9000117 	ldw	r4,4(sp)
	m_M = new XXMatrix[0 + 1];		/* matrices */
   11384:	28c00017 	ldw	r3,0(r5)
	m_R = new XXDouble[3 + 1];		/* rates (or new states) */
   11388:	20801315 	stw	r2,76(r4)
	m_M = new XXMatrix[0 + 1];		/* matrices */
   1138c:	01000304 	movi	r4,12
   11390:	18bffd17 	ldw	r2,-12(r3)
   11394:	2885883a 	add	r2,r5,r2
   11398:	d8800115 	stw	r2,4(sp)
   1139c:	0013bf80 	call	13bf8 <_Znaj>
	m_U = new XXDouble[0 + 1];		/* unnamed */
   113a0:	d9400017 	ldw	r5,0(sp)
	m_M = new XXMatrix[0 + 1];		/* matrices */
   113a4:	d9000117 	ldw	r4,4(sp)
	m_U = new XXDouble[0 + 1];		/* unnamed */
   113a8:	28c00017 	ldw	r3,0(r5)
	m_M = new XXMatrix[0 + 1];		/* matrices */
   113ac:	20801415 	stw	r2,80(r4)
	m_U = new XXDouble[0 + 1];		/* unnamed */
   113b0:	01000104 	movi	r4,4
   113b4:	18bffd17 	ldw	r2,-12(r3)
   113b8:	2885883a 	add	r2,r5,r2
   113bc:	d8800115 	stw	r2,4(sp)
   113c0:	0013bf80 	call	13bf8 <_Znaj>
	m_workarray = new XXDouble[0 + 1];
   113c4:	d9400017 	ldw	r5,0(sp)
	m_U = new XXDouble[0 + 1];		/* unnamed */
   113c8:	d9000117 	ldw	r4,4(sp)
	m_workarray = new XXDouble[0 + 1];
   113cc:	28c00017 	ldw	r3,0(r5)
	m_U = new XXDouble[0 + 1];		/* unnamed */
   113d0:	20801515 	stw	r2,84(r4)
	m_workarray = new XXDouble[0 + 1];
   113d4:	01000104 	movi	r4,4
   113d8:	18bffd17 	ldw	r2,-12(r3)
   113dc:	2885883a 	add	r2,r5,r2
   113e0:	d8800115 	stw	r2,4(sp)
   113e4:	0013bf80 	call	13bf8 <_Znaj>
   113e8:	d8c00117 	ldw	r3,4(sp)
	Reset(0.0);
   113ec:	d9000017 	ldw	r4,0(sp)
   113f0:	000b883a 	mov	r5,zero
	m_workarray = new XXDouble[0 + 1];
   113f4:	18801615 	stw	r2,88(r3)
	Reset(0.0);
   113f8:	0010fc40 	call	10fc4 <_ZN22PositionControllerTilt5ResetEf>
	m_finish_time = 20.0;
   113fc:	d9400017 	ldw	r5,0(sp)
   11400:	00d06834 	movhi	r3,16800
   11404:	d9000304 	addi	r4,sp,12
   11408:	28800017 	ldw	r2,0(r5)
   1140c:	10bffd17 	ldw	r2,-12(r2)
   11410:	2885883a 	add	r2,r5,r2
   11414:	10c00415 	stw	r3,16(r2)
   11418:	0016bd00 	call	16bd0 <_Unwind_SjLj_Unregister>
}
   1141c:	dfc01117 	ldw	ra,68(sp)
   11420:	df001017 	ldw	fp,64(sp)
   11424:	dec01204 	addi	sp,sp,72
   11428:	f800283a 	ret
PositionControllerTilt::PositionControllerTilt(void)
   1142c:	d8800517 	ldw	r2,20(sp)
   11430:	d9000217 	ldw	r4,8(sp)
   11434:	d8800015 	stw	r2,0(sp)
   11438:	00101bc0 	call	101bc <_ZN8DiscreteD1Ev>
   1143c:	d9000017 	ldw	r4,0(sp)
   11440:	00bfffc4 	movi	r2,-1
   11444:	d8800415 	stw	r2,16(sp)
   11448:	0016da00 	call	16da0 <_Unwind_SjLj_Resume>

0001144c <_ZN22PositionControllerTiltC1Ev>:
   1144c:	deffef04 	addi	sp,sp,-68
   11450:	01400074 	movhi	r5,1
   11454:	00c000b4 	movhi	r3,2
   11458:	00800074 	movhi	r2,1
   1145c:	200d883a 	mov	r6,r4
   11460:	294c2104 	addi	r5,r5,12420
   11464:	18e1c884 	addi	r3,r3,-30942
   11468:	10856f04 	addi	r2,r2,5564
   1146c:	d9000204 	addi	r4,sp,8
   11470:	dfc01015 	stw	ra,64(sp)
   11474:	d9800015 	stw	r6,0(sp)
   11478:	d9400815 	stw	r5,32(sp)
   1147c:	d8c00915 	stw	r3,36(sp)
   11480:	d8800b15 	stw	r2,44(sp)
   11484:	df000f15 	stw	fp,60(sp)
   11488:	df000a15 	stw	fp,40(sp)
   1148c:	dec00c15 	stw	sp,48(sp)
   11490:	0016bb80 	call	16bb8 <_Unwind_SjLj_Register>
   11494:	d9400017 	ldw	r5,0(sp)
   11498:	00c000b4 	movhi	r3,2
   1149c:	008000b4 	movhi	r2,2
   114a0:	18e22404 	addi	r3,r3,-30576
   114a4:	10a22b04 	addi	r2,r2,-30548
   114a8:	29000204 	addi	r4,r5,8
   114ac:	28c00015 	stw	r3,0(r5)
   114b0:	28800415 	stw	r2,16(r5)
   114b4:	00bfffc4 	movi	r2,-1
   114b8:	d9000115 	stw	r4,4(sp)
   114bc:	d8800315 	stw	r2,12(sp)
   114c0:	00102400 	call	10240 <_ZN8DiscreteC1Ev>
	m_number_constants = 0;
   114c4:	d9400017 	ldw	r5,0(sp)
	m_number_parameters = 7;
   114c8:	00c001c4 	movi	r3,7
	m_number_initialvalues = 3;
   114cc:	008000c4 	movi	r2,3
	m_number_parameters = 7;
   114d0:	28c00b15 	stw	r3,44(r5)
	m_number_variables = 12;
   114d4:	00c00304 	movi	r3,12
	m_number_initialvalues = 3;
   114d8:	28800c15 	stw	r2,48(r5)
	m_number_states = 3;
   114dc:	28800e15 	stw	r2,56(r5)
	m_number_rates = 3;
   114e0:	28800f15 	stw	r2,60(r5)
	m_number_constants = 0;
   114e4:	28000a15 	stw	zero,40(r5)
	m_number_variables = 12;
   114e8:	28c00d15 	stw	r3,52(r5)
	m_number_matrices = 0;
   114ec:	28001015 	stw	zero,64(r5)
	m_number_unnamed = 0;
   114f0:	28001115 	stw	zero,68(r5)
	m_C = new XXDouble[0 + 1];		/* constants */
   114f4:	00800044 	movi	r2,1
   114f8:	01000104 	movi	r4,4
   114fc:	d8800315 	stw	r2,12(sp)
   11500:	0013bf80 	call	13bf8 <_Znaj>
   11504:	d9400017 	ldw	r5,0(sp)
	m_P = new XXDouble[7 + 1];		/* parameters */
   11508:	01000804 	movi	r4,32
	m_C = new XXDouble[0 + 1];		/* constants */
   1150c:	28801215 	stw	r2,72(r5)
	m_P = new XXDouble[7 + 1];		/* parameters */
   11510:	0013bf80 	call	13bf8 <_Znaj>
   11514:	d9400017 	ldw	r5,0(sp)
	m_I = new XXDouble[3 + 1];		/* initial values */
   11518:	01000404 	movi	r4,16
	m_P = new XXDouble[7 + 1];		/* parameters */
   1151c:	28801315 	stw	r2,76(r5)
	m_I = new XXDouble[3 + 1];		/* initial values */
   11520:	0013bf80 	call	13bf8 <_Znaj>
   11524:	d9400017 	ldw	r5,0(sp)
	m_V = new XXDouble[12 + 1];		/* variables */
   11528:	01000d04 	movi	r4,52
	m_I = new XXDouble[3 + 1];		/* initial values */
   1152c:	28801415 	stw	r2,80(r5)
	m_V = new XXDouble[12 + 1];		/* variables */
   11530:	0013bf80 	call	13bf8 <_Znaj>
   11534:	d9400017 	ldw	r5,0(sp)
	m_s = new XXDouble[3 + 1];		/* states */
   11538:	01000404 	movi	r4,16
	m_V = new XXDouble[12 + 1];		/* variables */
   1153c:	28801515 	stw	r2,84(r5)
	m_s = new XXDouble[3 + 1];		/* states */
   11540:	0013bf80 	call	13bf8 <_Znaj>
   11544:	d9400017 	ldw	r5,0(sp)
	m_R = new XXDouble[3 + 1];		/* rates (or new states) */
   11548:	01000404 	movi	r4,16
	m_s = new XXDouble[3 + 1];		/* states */
   1154c:	28801615 	stw	r2,88(r5)
	m_R = new XXDouble[3 + 1];		/* rates (or new states) */
   11550:	0013bf80 	call	13bf8 <_Znaj>
   11554:	d9400017 	ldw	r5,0(sp)
	m_M = new XXMatrix[0 + 1];		/* matrices */
   11558:	01000304 	movi	r4,12
	m_R = new XXDouble[3 + 1];		/* rates (or new states) */
   1155c:	28801715 	stw	r2,92(r5)
	m_M = new XXMatrix[0 + 1];		/* matrices */
   11560:	0013bf80 	call	13bf8 <_Znaj>
   11564:	d9400017 	ldw	r5,0(sp)
	m_U = new XXDouble[0 + 1];		/* unnamed */
   11568:	01000104 	movi	r4,4
	m_M = new XXMatrix[0 + 1];		/* matrices */
   1156c:	28801815 	stw	r2,96(r5)
	m_U = new XXDouble[0 + 1];		/* unnamed */
   11570:	0013bf80 	call	13bf8 <_Znaj>
   11574:	d9400017 	ldw	r5,0(sp)
	m_workarray = new XXDouble[0 + 1];
   11578:	01000104 	movi	r4,4
	m_U = new XXDouble[0 + 1];		/* unnamed */
   1157c:	28801915 	stw	r2,100(r5)
	m_workarray = new XXDouble[0 + 1];
   11580:	0013bf80 	call	13bf8 <_Znaj>
   11584:	d8c00017 	ldw	r3,0(sp)
	Reset(0.0);
   11588:	000b883a 	mov	r5,zero
	m_workarray = new XXDouble[0 + 1];
   1158c:	18801a15 	stw	r2,104(r3)
	Reset(0.0);
   11590:	1809883a 	mov	r4,r3
   11594:	0010fc40 	call	10fc4 <_ZN22PositionControllerTilt5ResetEf>
	m_finish_time = 20.0;
   11598:	d9400017 	ldw	r5,0(sp)
   1159c:	00906834 	movhi	r2,16800
   115a0:	d9000204 	addi	r4,sp,8
   115a4:	28800815 	stw	r2,32(r5)
   115a8:	0016bd00 	call	16bd0 <_Unwind_SjLj_Unregister>
}
   115ac:	dfc01017 	ldw	ra,64(sp)
   115b0:	df000f17 	ldw	fp,60(sp)
   115b4:	dec01104 	addi	sp,sp,68
   115b8:	f800283a 	ret
PositionControllerTilt::PositionControllerTilt(void)
   115bc:	d8800417 	ldw	r2,16(sp)
   115c0:	d9000117 	ldw	r4,4(sp)
   115c4:	d8800015 	stw	r2,0(sp)
   115c8:	00101bc0 	call	101bc <_ZN8DiscreteD1Ev>
   115cc:	d9000017 	ldw	r4,0(sp)
   115d0:	00bfffc4 	movi	r2,-1
   115d4:	d8800315 	stw	r2,12(sp)
   115d8:	0016da00 	call	16da0 <_Unwind_SjLj_Resume>

000115dc <_ZN22PositionControllerTiltD2Ev>:
PositionControllerTilt::~PositionControllerTilt(void)
   115dc:	28c00017 	ldw	r3,0(r5)
   115e0:	defffe04 	addi	sp,sp,-8
   115e4:	dc000015 	stw	r16,0(sp)
   115e8:	18bffd17 	ldw	r2,-12(r3)
   115ec:	dfc00115 	stw	ra,4(sp)
   115f0:	20c00015 	stw	r3,0(r4)
   115f4:	2085883a 	add	r2,r4,r2
   115f8:	28c00117 	ldw	r3,4(r5)
   115fc:	2021883a 	mov	r16,r4
	delete[] m_C;
   11600:	11000e17 	ldw	r4,56(r2)
PositionControllerTilt::~PositionControllerTilt(void)
   11604:	10c00015 	stw	r3,0(r2)
	delete[] m_C;
   11608:	20000126 	beq	r4,zero,11610 <_ZN22PositionControllerTiltD2Ev+0x34>
   1160c:	0012b5c0 	call	12b5c <_ZdaPv>
	delete[] m_P;
   11610:	80800017 	ldw	r2,0(r16)
   11614:	10bffd17 	ldw	r2,-12(r2)
   11618:	8085883a 	add	r2,r16,r2
   1161c:	11000f17 	ldw	r4,60(r2)
   11620:	20000426 	beq	r4,zero,11634 <_ZN22PositionControllerTiltD2Ev+0x58>
   11624:	0012b5c0 	call	12b5c <_ZdaPv>
	delete[] m_I;
   11628:	80800017 	ldw	r2,0(r16)
   1162c:	10bffd17 	ldw	r2,-12(r2)
   11630:	8085883a 	add	r2,r16,r2
   11634:	11001017 	ldw	r4,64(r2)
   11638:	20000426 	beq	r4,zero,1164c <_ZN22PositionControllerTiltD2Ev+0x70>
   1163c:	0012b5c0 	call	12b5c <_ZdaPv>
	delete[] m_V;
   11640:	80800017 	ldw	r2,0(r16)
   11644:	10bffd17 	ldw	r2,-12(r2)
   11648:	8085883a 	add	r2,r16,r2
   1164c:	11001117 	ldw	r4,68(r2)
   11650:	20000426 	beq	r4,zero,11664 <_ZN22PositionControllerTiltD2Ev+0x88>
   11654:	0012b5c0 	call	12b5c <_ZdaPv>
	delete[] m_s;
   11658:	80800017 	ldw	r2,0(r16)
   1165c:	10bffd17 	ldw	r2,-12(r2)
   11660:	8085883a 	add	r2,r16,r2
   11664:	11001217 	ldw	r4,72(r2)
   11668:	20000426 	beq	r4,zero,1167c <_ZN22PositionControllerTiltD2Ev+0xa0>
   1166c:	0012b5c0 	call	12b5c <_ZdaPv>
	delete[] m_R;
   11670:	80800017 	ldw	r2,0(r16)
   11674:	10bffd17 	ldw	r2,-12(r2)
   11678:	8085883a 	add	r2,r16,r2
   1167c:	11001317 	ldw	r4,76(r2)
   11680:	20000426 	beq	r4,zero,11694 <_ZN22PositionControllerTiltD2Ev+0xb8>
   11684:	0012b5c0 	call	12b5c <_ZdaPv>
	delete[] m_M;
   11688:	80800017 	ldw	r2,0(r16)
   1168c:	10bffd17 	ldw	r2,-12(r2)
   11690:	8085883a 	add	r2,r16,r2
   11694:	11001417 	ldw	r4,80(r2)
   11698:	20000426 	beq	r4,zero,116ac <_ZN22PositionControllerTiltD2Ev+0xd0>
   1169c:	0012b5c0 	call	12b5c <_ZdaPv>
	delete[] m_U;
   116a0:	80800017 	ldw	r2,0(r16)
   116a4:	10bffd17 	ldw	r2,-12(r2)
   116a8:	8085883a 	add	r2,r16,r2
   116ac:	11001517 	ldw	r4,84(r2)
   116b0:	20000426 	beq	r4,zero,116c4 <_ZN22PositionControllerTiltD2Ev+0xe8>
   116b4:	0012b5c0 	call	12b5c <_ZdaPv>
	delete[] m_workarray;
   116b8:	80800017 	ldw	r2,0(r16)
   116bc:	10bffd17 	ldw	r2,-12(r2)
   116c0:	8085883a 	add	r2,r16,r2
   116c4:	11001617 	ldw	r4,88(r2)
   116c8:	20000126 	beq	r4,zero,116d0 <_ZN22PositionControllerTiltD2Ev+0xf4>
   116cc:	0012b5c0 	call	12b5c <_ZdaPv>
PositionControllerTilt::~PositionControllerTilt(void)
   116d0:	81000204 	addi	r4,r16,8
}
   116d4:	dfc00117 	ldw	ra,4(sp)
   116d8:	dc000017 	ldw	r16,0(sp)
   116dc:	dec00204 	addi	sp,sp,8
PositionControllerTilt::~PositionControllerTilt(void)
   116e0:	00101bc1 	jmpi	101bc <_ZN8DiscreteD1Ev>

000116e4 <_ZN22PositionControllerTiltD1Ev>:
   116e4:	defffe04 	addi	sp,sp,-8
   116e8:	dc000015 	stw	r16,0(sp)
   116ec:	00c000b4 	movhi	r3,2
   116f0:	2021883a 	mov	r16,r4
   116f4:	008000b4 	movhi	r2,2
	delete[] m_C;
   116f8:	21001217 	ldw	r4,72(r4)
PositionControllerTilt::~PositionControllerTilt(void)
   116fc:	dfc00115 	stw	ra,4(sp)
   11700:	18e22404 	addi	r3,r3,-30576
   11704:	10a22b04 	addi	r2,r2,-30548
   11708:	80c00015 	stw	r3,0(r16)
   1170c:	80800415 	stw	r2,16(r16)
	delete[] m_C;
   11710:	20000126 	beq	r4,zero,11718 <_ZN22PositionControllerTiltD1Ev+0x34>
   11714:	0012b5c0 	call	12b5c <_ZdaPv>
	delete[] m_P;
   11718:	81001317 	ldw	r4,76(r16)
   1171c:	20000126 	beq	r4,zero,11724 <_ZN22PositionControllerTiltD1Ev+0x40>
   11720:	0012b5c0 	call	12b5c <_ZdaPv>
	delete[] m_I;
   11724:	81001417 	ldw	r4,80(r16)
   11728:	20000126 	beq	r4,zero,11730 <_ZN22PositionControllerTiltD1Ev+0x4c>
   1172c:	0012b5c0 	call	12b5c <_ZdaPv>
	delete[] m_V;
   11730:	81001517 	ldw	r4,84(r16)
   11734:	20000126 	beq	r4,zero,1173c <_ZN22PositionControllerTiltD1Ev+0x58>
   11738:	0012b5c0 	call	12b5c <_ZdaPv>
	delete[] m_s;
   1173c:	81001617 	ldw	r4,88(r16)
   11740:	20000126 	beq	r4,zero,11748 <_ZN22PositionControllerTiltD1Ev+0x64>
   11744:	0012b5c0 	call	12b5c <_ZdaPv>
	delete[] m_R;
   11748:	81001717 	ldw	r4,92(r16)
   1174c:	20000126 	beq	r4,zero,11754 <_ZN22PositionControllerTiltD1Ev+0x70>
   11750:	0012b5c0 	call	12b5c <_ZdaPv>
	delete[] m_M;
   11754:	81001817 	ldw	r4,96(r16)
   11758:	20000126 	beq	r4,zero,11760 <_ZN22PositionControllerTiltD1Ev+0x7c>
   1175c:	0012b5c0 	call	12b5c <_ZdaPv>
	delete[] m_U;
   11760:	81001917 	ldw	r4,100(r16)
   11764:	20000126 	beq	r4,zero,1176c <_ZN22PositionControllerTiltD1Ev+0x88>
   11768:	0012b5c0 	call	12b5c <_ZdaPv>
	delete[] m_workarray;
   1176c:	81001a17 	ldw	r4,104(r16)
   11770:	20000126 	beq	r4,zero,11778 <_ZN22PositionControllerTiltD1Ev+0x94>
   11774:	0012b5c0 	call	12b5c <_ZdaPv>
PositionControllerTilt::~PositionControllerTilt(void)
   11778:	81000204 	addi	r4,r16,8
}
   1177c:	dfc00117 	ldw	ra,4(sp)
   11780:	dc000017 	ldw	r16,0(sp)
   11784:	dec00204 	addi	sp,sp,8
PositionControllerTilt::~PositionControllerTilt(void)
   11788:	00101bc1 	jmpi	101bc <_ZN8DiscreteD1Ev>

0001178c <_ZTv0_n16_N22PositionControllerTiltD1Ev>:
		virtual ~PositionControllerTilt(void);
   1178c:	2009883a 	mov	r4,r4
   11790:	20800017 	ldw	r2,0(r4)
   11794:	10bffc04 	addi	r2,r2,-16
   11798:	10800017 	ldw	r2,0(r2)
   1179c:	2089883a 	add	r4,r4,r2
   117a0:	00116e41 	jmpi	116e4 <_ZN22PositionControllerTiltD1Ev>

000117a4 <_ZN22PositionControllerTiltD0Ev>:
   117a4:	defffe04 	addi	sp,sp,-8
   117a8:	dc000015 	stw	r16,0(sp)
   117ac:	dfc00115 	stw	ra,4(sp)
   117b0:	2021883a 	mov	r16,r4
}
   117b4:	00116e40 	call	116e4 <_ZN22PositionControllerTiltD1Ev>
   117b8:	01401b04 	movi	r5,108
   117bc:	8009883a 	mov	r4,r16
   117c0:	dfc00117 	ldw	ra,4(sp)
   117c4:	dc000017 	ldw	r16,0(sp)
   117c8:	dec00204 	addi	sp,sp,8
   117cc:	0012b581 	jmpi	12b58 <_ZdlPvj>

000117d0 <_ZTv0_n16_N22PositionControllerTiltD0Ev>:
   117d0:	20800017 	ldw	r2,0(r4)
   117d4:	defffe04 	addi	sp,sp,-8
   117d8:	dc000015 	stw	r16,0(sp)
   117dc:	143ffc17 	ldw	r16,-16(r2)
   117e0:	dfc00115 	stw	ra,4(sp)
   117e4:	2421883a 	add	r16,r4,r16
   117e8:	8009883a 	mov	r4,r16
   117ec:	00116e40 	call	116e4 <_ZN22PositionControllerTiltD1Ev>
   117f0:	01401b04 	movi	r5,108
   117f4:	8009883a 	mov	r4,r16
   117f8:	dfc00117 	ldw	ra,4(sp)
   117fc:	dc000017 	ldw	r16,0(sp)
   11800:	dec00204 	addi	sp,sp,8
   11804:	0012b581 	jmpi	12b58 <_ZdlPvj>

00011808 <_ZN22PositionControllerTilt10InitializeEPfS0_f>:
	m_initialize = true;
   11808:	20800017 	ldw	r2,0(r4)
{
   1180c:	defffb04 	addi	sp,sp,-20
   11810:	dfc00415 	stw	ra,16(sp)
	m_initialize = true;
   11814:	10bffd17 	ldw	r2,-12(r2)
{
   11818:	dcc00315 	stw	r19,12(sp)
   1181c:	dc800215 	stw	r18,8(sp)
	m_initialize = true;
   11820:	2085883a 	add	r2,r4,r2
	m_P[0] = 0.0;		/* corrGain\K */
   11824:	10c00f17 	ldw	r3,60(r2)
{
   11828:	dc400115 	stw	r17,4(sp)
   1182c:	dc000015 	stw	r16,0(sp)
	m_initialize = true;
   11830:	02000044 	movi	r8,1
	m_P[3] = 0.001;		/* PID1\beta */
   11834:	02cea0f4 	movhi	r11,14979
	m_initialize = true;
   11838:	12000105 	stb	r8,4(r2)
	m_stop_run = false;
   1183c:	10000185 	stb	zero,6(r2)
{
   11840:	2021883a 	mov	r16,r4
	m_P[3] = 0.001;		/* PID1\beta */
   11844:	5ac49bc4 	addi	r11,r11,4719
	m_I[0] = 0.0;		/* PID1\uD_previous_initial */
   11848:	11001017 	ldw	r4,64(r2)
	m_P[1] = 1.6;		/* PID1\kp */
   1184c:	034ff374 	movhi	r13,16333
	m_P[2] = 0.05;		/* PID1\tauD */
   11850:	030f5374 	movhi	r12,15693
	m_P[5] = -0.99;		/* SignalLimiter2\minimum */
   11854:	02afdf74 	movhi	r10,49021
	m_P[6] = 0.99;		/* SignalLimiter2\maximum */
   11858:	024fdf74 	movhi	r9,16253
	m_s[0] = m_I[0];		/* PID1\uD_previous */
   1185c:	12001217 	ldw	r8,72(r2)
	m_P[1] = 1.6;		/* PID1\kp */
   11860:	6b733344 	addi	r13,r13,-13107
	m_P[3] = 0.001;		/* PID1\beta */
   11864:	1ac00315 	stw	r11,12(r3)
	m_P[2] = 0.05;		/* PID1\tauD */
   11868:	63333344 	addi	r12,r12,-13107
	m_P[5] = -0.99;		/* SignalLimiter2\minimum */
   1186c:	529c2904 	addi	r10,r10,28836
	m_P[6] = 0.99;		/* SignalLimiter2\maximum */
   11870:	4a5c2904 	addi	r9,r9,28836
	m_P[4] = 10.5;		/* PID1\tauI */
   11874:	02d04a34 	movhi	r11,16680
	m_P[1] = 1.6;		/* PID1\kp */
   11878:	1b400115 	stw	r13,4(r3)
	m_P[2] = 0.05;		/* PID1\tauD */
   1187c:	1b000215 	stw	r12,8(r3)
	m_P[4] = 10.5;		/* PID1\tauI */
   11880:	1ac00415 	stw	r11,16(r3)
	m_P[5] = -0.99;		/* SignalLimiter2\minimum */
   11884:	1a800515 	stw	r10,20(r3)
	m_P[6] = 0.99;		/* SignalLimiter2\maximum */
   11888:	1a400615 	stw	r9,24(r3)
	m_P[0] = 0.0;		/* corrGain\K */
   1188c:	18000015 	stw	zero,0(r3)
	m_I[1] = 0.0;		/* PID1\error_previous_initial */
   11890:	20000115 	stw	zero,4(r4)
	m_I[2] = 0.0;		/* PID1\uI_previous_initial */
   11894:	20000215 	stw	zero,8(r4)
	m_I[0] = 0.0;		/* PID1\uD_previous_initial */
   11898:	20000015 	stw	zero,0(r4)
	m_s[0] = m_I[0];		/* PID1\uD_previous */
   1189c:	40000015 	stw	zero,0(r8)
	m_s[1] = m_I[1];		/* PID1\error_previous */
   118a0:	20c00117 	ldw	r3,4(r4)
{
   118a4:	2823883a 	mov	r17,r5
	myintegmethod.Initialize(this);
   118a8:	100b883a 	mov	r5,r2
	m_s[1] = m_I[1];		/* PID1\error_previous */
   118ac:	40c00115 	stw	r3,4(r8)
	m_s[2] = m_I[2];		/* PID1\uI_previous */
   118b0:	20c00217 	ldw	r3,8(r4)
	myintegmethod.Initialize(this);
   118b4:	81000204 	addi	r4,r16,8
{
   118b8:	3827883a 	mov	r19,r7
	m_s[2] = m_I[2];		/* PID1\uI_previous */
   118bc:	40c00215 	stw	r3,8(r8)
{
   118c0:	3025883a 	mov	r18,r6
	myintegmethod.Initialize(this);
   118c4:	00101c00 	call	101c0 <_ZN8Discrete10InitializeEP13Submodel20sim>
	m_time = t;
   118c8:	80c00017 	ldw	r3,0(r16)
	CalculateDynamic ();
   118cc:	8009883a 	mov	r4,r16
	m_time = t;
   118d0:	18bffd17 	ldw	r2,-12(r3)
	CalculateDynamic ();
   118d4:	18c00217 	ldw	r3,8(r3)
	m_time = t;
   118d8:	8085883a 	add	r2,r16,r2
   118dc:	14c00515 	stw	r19,20(r2)
	m_V[8] = u[0];		/* corr */
   118e0:	89400017 	ldw	r5,0(r17)
   118e4:	10801117 	ldw	r2,68(r2)
   118e8:	11400815 	stw	r5,32(r2)
	m_V[9] = u[1];		/* in */
   118ec:	89400117 	ldw	r5,4(r17)
   118f0:	11400915 	stw	r5,36(r2)
	m_V[10] = u[2];		/* position */
   118f4:	89400217 	ldw	r5,8(r17)
   118f8:	11400a15 	stw	r5,40(r2)
	CalculateDynamic ();
   118fc:	183ee83a 	callr	r3
	m_V[11] = m_V[7];
   11900:	80800017 	ldw	r2,0(r16)
   11904:	10bffd17 	ldw	r2,-12(r2)
   11908:	8085883a 	add	r2,r16,r2
   1190c:	11001117 	ldw	r4,68(r2)
   11910:	20c00717 	ldw	r3,28(r4)
   11914:	20c00b15 	stw	r3,44(r4)
	y[0] = 	m_V[11];		/* out */
   11918:	90c00015 	stw	r3,0(r18)
	m_initialize = false;
   1191c:	10000105 	stb	zero,4(r2)
	state = mainrun;
   11920:	00800044 	movi	r2,1
   11924:	80800115 	stw	r2,4(r16)
}
   11928:	dfc00417 	ldw	ra,16(sp)
   1192c:	dcc00317 	ldw	r19,12(sp)
   11930:	dc800217 	ldw	r18,8(sp)
   11934:	dc400117 	ldw	r17,4(sp)
   11938:	dc000017 	ldw	r16,0(sp)
   1193c:	dec00504 	addi	sp,sp,20
   11940:	f800283a 	ret

00011944 <_ZN22PositionControllerTilt9CalculateEPfS0_>:
	switch (state)
   11944:	20800117 	ldw	r2,4(r4)
   11948:	10004026 	beq	r2,zero,11a4c <_ZN22PositionControllerTilt9CalculateEPfS0_+0x108>
   1194c:	10800060 	cmpeqi	r2,r2,1
   11950:	10002526 	beq	r2,zero,119e8 <_ZN22PositionControllerTilt9CalculateEPfS0_+0xa4>
			if ( ( m_time <= (m_finish_time - m_step_size  + c_delta )) || ( m_finish_time == 0.0 ) )
   11954:	20800017 	ldw	r2,0(r4)
{
   11958:	defffd04 	addi	sp,sp,-12
   1195c:	dc000015 	stw	r16,0(sp)
   11960:	2021883a 	mov	r16,r4
			if ( ( m_time <= (m_finish_time - m_step_size  + c_delta )) || ( m_finish_time == 0.0 ) )
   11964:	113ffd17 	ldw	r4,-12(r2)
{
   11968:	dc400115 	stw	r17,4(sp)
   1196c:	dfc00215 	stw	ra,8(sp)
			if ( ( m_time <= (m_finish_time - m_step_size  + c_delta )) || ( m_finish_time == 0.0 ) )
   11970:	8109883a 	add	r4,r16,r4
   11974:	20800217 	ldw	r2,8(r4)
   11978:	3023883a 	mov	r17,r6
   1197c:	21800417 	ldw	r6,16(r4)
   11980:	21c00517 	ldw	r7,20(r4)
   11984:	2807883a 	mov	r3,r5
   11988:	014cf5f4 	movhi	r5,13271
   1198c:	296fe544 	addi	r5,r5,-16491
   11990:	3085ffb2 	custom	254,r2,r6,r2
   11994:	1145ff72 	custom	253,r2,r2,r5
   11998:	3885f9b2 	custom	230,r2,r7,r2
   1199c:	1000131e 	bne	r2,zero,119ec <_ZN22PositionControllerTilt9CalculateEPfS0_+0xa8>
   119a0:	3085f8b2 	custom	226,r2,r6,r2
   119a4:	10001126 	beq	r2,zero,119ec <_ZN22PositionControllerTilt9CalculateEPfS0_+0xa8>
			if ( ( m_stop_run == true ) || (( m_finish_time != 0.0 ) && ( m_time + c_delta >= m_finish_time)) )
   119a8:	20800183 	ldbu	r2,6(r4)
				state = finished;
   119ac:	00c00084 	movi	r3,2
   119b0:	80c00115 	stw	r3,4(r16)
			if ( ( m_stop_run == true ) || (( m_finish_time != 0.0 ) && ( m_time + c_delta >= m_finish_time)) )
   119b4:	1000051e 	bne	r2,zero,119cc <_ZN22PositionControllerTilt9CalculateEPfS0_+0x88>
   119b8:	008cf5f4 	movhi	r2,13271
   119bc:	10afe544 	addi	r2,r2,-16491
   119c0:	388fff72 	custom	253,r7,r7,r2
   119c4:	398df932 	custom	228,r6,r7,r6
   119c8:	30000226 	beq	r6,zero,119d4 <_ZN22PositionControllerTilt9CalculateEPfS0_+0x90>
				state = finished;
   119cc:	00800084 	movi	r2,2
   119d0:	80800115 	stw	r2,4(r16)
}
   119d4:	dfc00217 	ldw	ra,8(sp)
   119d8:	dc400117 	ldw	r17,4(sp)
   119dc:	dc000017 	ldw	r16,0(sp)
   119e0:	dec00304 	addi	sp,sp,12
   119e4:	f800283a 	ret
   119e8:	f800283a 	ret
	m_V[8] = u[0];		/* corr */
   119ec:	20801117 	ldw	r2,68(r4)
   119f0:	19400017 	ldw	r5,0(r3)
				myintegmethod.Step();
   119f4:	81000204 	addi	r4,r16,8
	m_V[8] = u[0];		/* corr */
   119f8:	11400815 	stw	r5,32(r2)
	m_V[9] = u[1];		/* in */
   119fc:	19400117 	ldw	r5,4(r3)
   11a00:	11400915 	stw	r5,36(r2)
	m_V[10] = u[2];		/* position */
   11a04:	18c00217 	ldw	r3,8(r3)
   11a08:	10c00a15 	stw	r3,40(r2)
				myintegmethod.Step();
   11a0c:	00101dc0 	call	101dc <_ZN8Discrete4StepEv>
	m_V[11] = m_V[7];
   11a10:	80800017 	ldw	r2,0(r16)
   11a14:	10bffd17 	ldw	r2,-12(r2)
   11a18:	8085883a 	add	r2,r16,r2
   11a1c:	11001117 	ldw	r4,68(r2)
			if ( ( m_stop_run == true ) || (( m_finish_time != 0.0 ) && ( m_time + c_delta >= m_finish_time)) )
   11a20:	11400183 	ldbu	r5,6(r2)
	m_V[11] = m_V[7];
   11a24:	20c00717 	ldw	r3,28(r4)
   11a28:	20c00b15 	stw	r3,44(r4)
	y[0] = 	m_V[11];		/* out */
   11a2c:	88c00015 	stw	r3,0(r17)
			if ( ( m_stop_run == true ) || (( m_finish_time != 0.0 ) && ( m_time + c_delta >= m_finish_time)) )
   11a30:	283fe61e 	bne	r5,zero,119cc <_ZN22PositionControllerTilt9CalculateEPfS0_+0x88>
   11a34:	11800417 	ldw	r6,16(r2)
   11a38:	0007883a 	mov	r3,zero
   11a3c:	30c7f8b2 	custom	226,r3,r6,r3
   11a40:	183fe426 	beq	r3,zero,119d4 <_ZN22PositionControllerTilt9CalculateEPfS0_+0x90>
   11a44:	11c00517 	ldw	r7,20(r2)
   11a48:	003fdb06 	br	119b8 <_ZN22PositionControllerTilt9CalculateEPfS0_+0x74>
			Initialize(u, y, 0.0);
   11a4c:	000f883a 	mov	r7,zero
   11a50:	00118081 	jmpi	11808 <_ZN22PositionControllerTilt10InitializeEPfS0_f>

00011a54 <_Z16handleTimerEventv>:
volatile bool tilt_homing_done = true;
volatile bool pan_homing_done = false;

void handleTimerEvent()
{
	if(tilt_homing_done && pan_homing_done)
   11a54:	d0a00f83 	ldbu	r2,-32706(gp)
{
   11a58:	defffe04 	addi	sp,sp,-8
	{
		u_tilt[2] = tilt_motor.getAngle();
   11a5c:	010000b4 	movhi	r4,2
{
   11a60:	dfc00115 	stw	ra,4(sp)
   11a64:	dc000015 	stw	r16,0(sp)
	if(tilt_homing_done && pan_homing_done)
   11a68:	10803fcc 	andi	r2,r2,255
		u_tilt[2] = tilt_motor.getAngle();
   11a6c:	2127c004 	addi	r4,r4,-24832
	if(tilt_homing_done && pan_homing_done)
   11a70:	10000326 	beq	r2,zero,11a80 <_Z16handleTimerEventv+0x2c>
   11a74:	d0a20c03 	ldbu	r2,-30672(gp)
   11a78:	10803fcc 	andi	r2,r2,255
   11a7c:	1000161e 	bne	r2,zero,11ad8 <_Z16handleTimerEventv+0x84>
		}
	}
	else
	{
		// Motor is still homing!
		if(tilt_motor.isAtInitialPosition() == true && !tilt_homing_done)
   11a80:	00123ec0 	call	123ec <_ZN5Plant5Motor19isAtInitialPositionEv>
   11a84:	10803fcc 	andi	r2,r2,255
   11a88:	10000526 	beq	r2,zero,11aa0 <_Z16handleTimerEventv+0x4c>
   11a8c:	d0a00f83 	ldbu	r2,-32706(gp)
   11a90:	10803fcc 	andi	r2,r2,255
   11a94:	1000021e 	bne	r2,zero,11aa0 <_Z16handleTimerEventv+0x4c>
		{
			tilt_homing_done = true;
   11a98:	00800044 	movi	r2,1
   11a9c:	d0a00f85 	stb	r2,-32706(gp)
		}

		if(pan_motor.isAtInitialPosition() == true && !pan_homing_done)
   11aa0:	010000b4 	movhi	r4,2
   11aa4:	2127b604 	addi	r4,r4,-24872
   11aa8:	00123ec0 	call	123ec <_ZN5Plant5Motor19isAtInitialPositionEv>
   11aac:	10803fcc 	andi	r2,r2,255
   11ab0:	10000526 	beq	r2,zero,11ac8 <_Z16handleTimerEventv+0x74>
   11ab4:	d0a20c03 	ldbu	r2,-30672(gp)
   11ab8:	10803fcc 	andi	r2,r2,255
   11abc:	1000021e 	bne	r2,zero,11ac8 <_Z16handleTimerEventv+0x74>
		{
			pan_homing_done = true;
   11ac0:	00800044 	movi	r2,1
   11ac4:	d0a20c05 	stb	r2,-30672(gp)
		}
	}
}
   11ac8:	dfc00117 	ldw	ra,4(sp)
   11acc:	dc000017 	ldw	r16,0(sp)
   11ad0:	dec00204 	addi	sp,sp,8
   11ad4:	f800283a 	ret
		u_tilt[2] = tilt_motor.getAngle();
   11ad8:	00123c00 	call	123c0 <_ZN5Plant5Motor8getAngleEv>
   11adc:	040000b4 	movhi	r16,2
		u_pan[2] = pan_motor.getAngle();
   11ae0:	010000b4 	movhi	r4,2
   11ae4:	2127b604 	addi	r4,r4,-24872
		u_tilt[2] = tilt_motor.getAngle();
   11ae8:	8427b204 	addi	r16,r16,-24888
   11aec:	80800215 	stw	r2,8(r16)
		u_pan[2] = pan_motor.getAngle();
   11af0:	00123c00 	call	123c0 <_ZN5Plant5Motor8getAngleEv>
		if (!tilt_model.IsFinished())
   11af4:	010000b4 	movhi	r4,2
		u_pan[2] = pan_motor.getAngle();
   11af8:	00c000b4 	movhi	r3,2
		if (!tilt_model.IsFinished())
   11afc:	21279304 	addi	r4,r4,-25012
		u_pan[2] = pan_motor.getAngle();
   11b00:	18a7b015 	stw	r2,-24896(r3)
		if (!tilt_model.IsFinished())
   11b04:	00111140 	call	11114 <_ZN22PositionControllerTilt10IsFinishedEv>
   11b08:	10803fcc 	andi	r2,r2,255
   11b0c:	10002226 	beq	r2,zero,11b98 <_Z16handleTimerEventv+0x144>
		if (!pan_model.IsFinished())
   11b10:	010000b4 	movhi	r4,2
   11b14:	21277804 	addi	r4,r4,-25120
   11b18:	00111140 	call	11114 <_ZN22PositionControllerTilt10IsFinishedEv>
   11b1c:	10803fcc 	andi	r2,r2,255
			pan_model.Calculate(u_pan, y_pan);
   11b20:	014000b4 	movhi	r5,2
   11b24:	010000b4 	movhi	r4,2
		if (!pan_model.IsFinished())
   11b28:	1000111e 	bne	r2,zero,11b70 <_Z16handleTimerEventv+0x11c>
			pan_model.Calculate(u_pan, y_pan);
   11b2c:	2967ae04 	addi	r5,r5,-24904
   11b30:	21277804 	addi	r4,r4,-25120
   11b34:	d1a20d04 	addi	r6,gp,-30668
   11b38:	00119440 	call	11944 <_ZN22PositionControllerTilt9CalculateEPfS0_>
			pan_motor.setSpeedAndDirection(int8_t (y_pan[0] * 100));
   11b3c:	d1620d17 	ldw	r5,-30668(gp)
   11b40:	0090b234 	movhi	r2,17096
   11b44:	010000b4 	movhi	r4,2
   11b48:	288bff32 	custom	252,r5,r5,r2
   11b4c:	280bfe72 	custom	249,r5,r5,zero
   11b50:	29403fcc 	andi	r5,r5,255
   11b54:	2940201c 	xori	r5,r5,128
   11b58:	297fe004 	addi	r5,r5,-128
   11b5c:	2127b604 	addi	r4,r4,-24872
}
   11b60:	dfc00117 	ldw	ra,4(sp)
   11b64:	dc000017 	ldw	r16,0(sp)
   11b68:	dec00204 	addi	sp,sp,8
			pan_motor.setSpeedAndDirection(int8_t (y_pan[0] * 100));
   11b6c:	00121841 	jmpi	12184 <_ZN5Plant5Motor20setSpeedAndDirectionEa>
			pan_model.Terminate(u_pan, y_pan);
   11b70:	21277804 	addi	r4,r4,-25120
   11b74:	d1a20d04 	addi	r6,gp,-30668
   11b78:	2967ae04 	addi	r5,r5,-24904
   11b7c:	00111200 	call	11120 <_ZN22PositionControllerTilt9TerminateEPfS0_>
			pan_motor.disable();
   11b80:	010000b4 	movhi	r4,2
   11b84:	2127b604 	addi	r4,r4,-24872
}
   11b88:	dfc00117 	ldw	ra,4(sp)
   11b8c:	dc000017 	ldw	r16,0(sp)
   11b90:	dec00204 	addi	sp,sp,8
			pan_motor.disable();
   11b94:	001239c1 	jmpi	1239c <_ZN5Plant5Motor7disableEv>
			tilt_model.Calculate(u_tilt, y_tilt);
   11b98:	010000b4 	movhi	r4,2
   11b9c:	d1a20f04 	addi	r6,gp,-30660
   11ba0:	800b883a 	mov	r5,r16
   11ba4:	21279304 	addi	r4,r4,-25012
   11ba8:	00119440 	call	11944 <_ZN22PositionControllerTilt9CalculateEPfS0_>
			tilt_motor.setSpeedAndDirection(int8_t (y_tilt[0] * 100));
   11bac:	d1620f17 	ldw	r5,-30660(gp)
   11bb0:	0090b234 	movhi	r2,17096
   11bb4:	010000b4 	movhi	r4,2
   11bb8:	288bff32 	custom	252,r5,r5,r2
   11bbc:	280bfe72 	custom	249,r5,r5,zero
   11bc0:	29403fcc 	andi	r5,r5,255
   11bc4:	2940201c 	xori	r5,r5,128
   11bc8:	297fe004 	addi	r5,r5,-128
   11bcc:	2127c004 	addi	r4,r4,-24832
   11bd0:	00121840 	call	12184 <_ZN5Plant5Motor20setSpeedAndDirectionEa>
			if(tilt_model.IsFinished())
   11bd4:	010000b4 	movhi	r4,2
   11bd8:	21279304 	addi	r4,r4,-25012
   11bdc:	00111140 	call	11114 <_ZN22PositionControllerTilt10IsFinishedEv>
   11be0:	10803fcc 	andi	r2,r2,255
   11be4:	103fca26 	beq	r2,zero,11b10 <_Z16handleTimerEventv+0xbc>
				tilt_model.Terminate(u_tilt, y_tilt);
   11be8:	010000b4 	movhi	r4,2
   11bec:	21279304 	addi	r4,r4,-25012
   11bf0:	d1a20f04 	addi	r6,gp,-30660
   11bf4:	800b883a 	mov	r5,r16
   11bf8:	00111200 	call	11120 <_ZN22PositionControllerTilt9TerminateEPfS0_>
				tilt_motor.disable();
   11bfc:	010000b4 	movhi	r4,2
   11c00:	2127c004 	addi	r4,r4,-24832
   11c04:	001239c0 	call	1239c <_ZN5Plant5Motor7disableEv>
   11c08:	003fc106 	br	11b10 <_Z16handleTimerEventv+0xbc>

00011c0c <_Z15handleUartEventRN6Serial7messageE>:
			encoder_value = r >> 1;
		}

		[[nodiscard]] float getAngle() const
		{
			unsigned int x = encoder_value;
   11c0c:	20800017 	ldw	r2,0(r4)
void handleUartEvent(Serial::message &received_message)
{
	angle = received_message.getAngle();

	// Determine for which motor this message is intended.
	switch (received_message.motor)
   11c10:	1007883a 	mov	r3,r2
			x <<= 1;
   11c14:	1004907a 	slli	r2,r2,1
	angle = received_message.getAngle();
   11c18:	d0a20b15 	stw	r2,-30676(gp)
	{
		case 0:
		{
			u_tilt[1] = angle;
   11c1c:	d0a20b17 	ldw	r2,-30676(gp)
	switch (received_message.motor)
   11c20:	18000816 	blt	r3,zero,11c44 <_Z15handleUartEventRN6Serial7messageE+0x38>
			u_tilt[1] = angle;
   11c24:	014000b4 	movhi	r5,2
			tilt_model.Initialize(u_tilt, y_tilt, 0.0);
   11c28:	010000b4 	movhi	r4,2
			u_tilt[1] = angle;
   11c2c:	2967b204 	addi	r5,r5,-24888
			tilt_model.Initialize(u_tilt, y_tilt, 0.0);
   11c30:	000f883a 	mov	r7,zero
   11c34:	d1a20f04 	addi	r6,gp,-30660
   11c38:	21279304 	addi	r4,r4,-25012
			u_tilt[1] = angle;
   11c3c:	28800115 	stw	r2,4(r5)
			tilt_model.Initialize(u_tilt, y_tilt, 0.0);
   11c40:	00118081 	jmpi	11808 <_ZN22PositionControllerTilt10InitializeEPfS0_f>
			break;
		}

		case 1:
		{
			u_pan[1] = angle;
   11c44:	014000b4 	movhi	r5,2
			pan_model.Initialize(u_pan, y_pan, 0.0);
   11c48:	010000b4 	movhi	r4,2
			u_pan[1] = angle;
   11c4c:	2967ae04 	addi	r5,r5,-24904
			pan_model.Initialize(u_pan, y_pan, 0.0);
   11c50:	000f883a 	mov	r7,zero
   11c54:	d1a20d04 	addi	r6,gp,-30668
   11c58:	21277804 	addi	r4,r4,-25120
			u_pan[1] = angle;
   11c5c:	28800115 	stw	r2,4(r5)
			pan_model.Initialize(u_pan, y_pan, 0.0);
   11c60:	00118081 	jmpi	11808 <_ZN22PositionControllerTilt10InitializeEPfS0_f>

00011c64 <_ZNSt17_Function_handlerIFvRN6Serial7messageEEPS3_E9_M_invokeERKSt9_Any_dataS2_>:
    { return static_cast<_Up&&>(__t); }

  template<typename _Res, typename _Fn, typename... _Args>
    constexpr _Res
    __invoke_impl(__invoke_other, _Fn&& __f, _Args&&... __args)
    { return std::forward<_Fn>(__f)(std::forward<_Args>(__args)...); }
   11c64:	20800017 	ldw	r2,0(r4)
	  }
	return false;
      }

      static _Res
      _M_invoke(const _Any_data& __functor, _ArgTypes&&... __args)
   11c68:	2809883a 	mov	r4,r5
   11c6c:	1000683a 	jmp	r2

00011c70 <_ZNSt17_Function_handlerIFvvEPS0_E9_M_invokeERKSt9_Any_data>:
   11c70:	20800017 	ldw	r2,0(r4)
   11c74:	1000683a 	jmp	r2

00011c78 <_ZNSt17_Function_handlerIFvvEPS0_E10_M_managerERSt9_Any_dataRKS3_St18_Manager_operation>:
	switch (__op)
   11c78:	30000626 	beq	r6,zero,11c94 <_ZNSt17_Function_handlerIFvvEPS0_E10_M_managerERSt9_Any_dataRKS3_St18_Manager_operation+0x1c>
   11c7c:	30800060 	cmpeqi	r2,r6,1
   11c80:	1000091e 	bne	r2,zero,11ca8 <_ZNSt17_Function_handlerIFvvEPS0_E10_M_managerERSt9_Any_dataRKS3_St18_Manager_operation+0x30>
	  switch (__op)
   11c84:	31800098 	cmpnei	r6,r6,2
   11c88:	30000a26 	beq	r6,zero,11cb4 <_ZNSt17_Function_handlerIFvvEPS0_E10_M_managerERSt9_Any_dataRKS3_St18_Manager_operation+0x3c>
      }
   11c8c:	0005883a 	mov	r2,zero
   11c90:	f800283a 	ret
	    __dest._M_access<const type_info*>() = &typeid(_Functor);
   11c94:	008000b4 	movhi	r2,2
   11c98:	10a23e04 	addi	r2,r2,-30472
   11c9c:	20800015 	stw	r2,0(r4)
      }
   11ca0:	0005883a 	mov	r2,zero
   11ca4:	f800283a 	ret
	    __dest._M_access<_Functor*>() = _Base::_M_get_pointer(__source);
   11ca8:	21400015 	stw	r5,0(r4)
      }
   11cac:	0005883a 	mov	r2,zero
   11cb0:	f800283a 	ret
	  ::new (__dest._M_access()) _Functor(__source._M_access<_Functor>());
   11cb4:	28800017 	ldw	r2,0(r5)
   11cb8:	20800015 	stw	r2,0(r4)
	      break;
   11cbc:	003ff306 	br	11c8c <_ZNSt17_Function_handlerIFvvEPS0_E10_M_managerERSt9_Any_dataRKS3_St18_Manager_operation+0x14>

00011cc0 <_ZNSt17_Function_handlerIFvRN6Serial7messageEEPS3_E10_M_managerERSt9_Any_dataRKS6_St18_Manager_operation>:
	switch (__op)
   11cc0:	30000626 	beq	r6,zero,11cdc <_ZNSt17_Function_handlerIFvRN6Serial7messageEEPS3_E10_M_managerERSt9_Any_dataRKS6_St18_Manager_operation+0x1c>
   11cc4:	30800060 	cmpeqi	r2,r6,1
   11cc8:	1000091e 	bne	r2,zero,11cf0 <_ZNSt17_Function_handlerIFvRN6Serial7messageEEPS3_E10_M_managerERSt9_Any_dataRKS6_St18_Manager_operation+0x30>
	  switch (__op)
   11ccc:	31800098 	cmpnei	r6,r6,2
   11cd0:	30000a26 	beq	r6,zero,11cfc <_ZNSt17_Function_handlerIFvRN6Serial7messageEEPS3_E10_M_managerERSt9_Any_dataRKS6_St18_Manager_operation+0x3c>
      }
   11cd4:	0005883a 	mov	r2,zero
   11cd8:	f800283a 	ret
	    __dest._M_access<const type_info*>() = &typeid(_Functor);
   11cdc:	008000b4 	movhi	r2,2
   11ce0:	10a23a04 	addi	r2,r2,-30488
   11ce4:	20800015 	stw	r2,0(r4)
      }
   11ce8:	0005883a 	mov	r2,zero
   11cec:	f800283a 	ret
	    __dest._M_access<_Functor*>() = _Base::_M_get_pointer(__source);
   11cf0:	21400015 	stw	r5,0(r4)
      }
   11cf4:	0005883a 	mov	r2,zero
   11cf8:	f800283a 	ret
	  ::new (__dest._M_access()) _Functor(__source._M_access<_Functor>());
   11cfc:	28800017 	ldw	r2,0(r5)
   11d00:	20800015 	stw	r2,0(r4)
	      break;
   11d04:	003ff306 	br	11cd4 <_ZNSt17_Function_handlerIFvRN6Serial7messageEEPS3_E10_M_managerERSt9_Any_dataRKS6_St18_Manager_operation+0x14>

00011d08 <_ZNSt14_Function_baseD1Ev>:
    ~_Function_base()
   11d08:	defff104 	addi	sp,sp,-60
   11d0c:	00c00074 	movhi	r3,1
   11d10:	008000b4 	movhi	r2,2
   11d14:	10a1ca04 	addi	r2,r2,-30936
   11d18:	dc000d15 	stw	r16,52(sp)
   11d1c:	18cc2104 	addi	r3,r3,12420
   11d20:	2021883a 	mov	r16,r4
   11d24:	d809883a 	mov	r4,sp
   11d28:	d8800715 	stw	r2,28(sp)
   11d2c:	dfc00e15 	stw	ra,56(sp)
   11d30:	d8c00615 	stw	r3,24(sp)
   11d34:	0016bb80 	call	16bb8 <_Unwind_SjLj_Register>
      if (_M_manager)
   11d38:	80800217 	ldw	r2,8(r16)
   11d3c:	10000526 	beq	r2,zero,11d54 <_ZNSt14_Function_baseD1Ev+0x4c>
	_M_manager(_M_functor, _M_functor, __destroy_functor);
   11d40:	d8000115 	stw	zero,4(sp)
   11d44:	018000c4 	movi	r6,3
   11d48:	800b883a 	mov	r5,r16
   11d4c:	8009883a 	mov	r4,r16
   11d50:	103ee83a 	callr	r2
   11d54:	d809883a 	mov	r4,sp
   11d58:	0016bd00 	call	16bd0 <_Unwind_SjLj_Unregister>
    }
   11d5c:	dfc00e17 	ldw	ra,56(sp)
   11d60:	dc000d17 	ldw	r16,52(sp)
   11d64:	dec00f04 	addi	sp,sp,60
   11d68:	f800283a 	ret

00011d6c <main>:
 * Motor 0 = tilt
 * Motor 1 = pan
 */
int main()
{
	u_tilt[0] = 0.0;	/* corr */
   11d6c:	018000b4 	movhi	r6,2
	u_tilt[1] = 0.55;	/* in */
   11d70:	00cfc374 	movhi	r3,16141
   11d74:	18f33344 	addi	r3,r3,-13107
	u_tilt[0] = 0.0;	/* corr */
   11d78:	3027b215 	stw	zero,-24888(r6)
	u_tilt[1] = 0.55;	/* in */
   11d7c:	018000b4 	movhi	r6,2
   11d80:	30e7b315 	stw	r3,-24884(r6)
	u_tilt[2] = 0.0;	/* position */
   11d84:	00c000b4 	movhi	r3,2
   11d88:	1827b415 	stw	zero,-24880(r3)

	u_pan[0] = 0.0;		/* corr */
	u_pan[1] = 2.9;		/* in */
   11d8c:	00900eb4 	movhi	r2,16442
	u_pan[0] = 0.0;		/* corr */
   11d90:	00c000b4 	movhi	r3,2
	u_pan[1] = 2.9;		/* in */
   11d94:	10a66684 	addi	r2,r2,-26214
	u_pan[0] = 0.0;		/* corr */
   11d98:	1827ae15 	stw	zero,-24904(r3)
	u_pan[2] = 0.0;		/* position */

	pan_model.SetFinishTime(1);
   11d9c:	010000b4 	movhi	r4,2
	u_pan[1] = 2.9;		/* in */
   11da0:	00c000b4 	movhi	r3,2
{
   11da4:	defffa04 	addi	sp,sp,-24
	u_pan[1] = 2.9;		/* in */
   11da8:	18a7af15 	stw	r2,-24900(r3)
	pan_model.SetFinishTime(1);
   11dac:	014fe034 	movhi	r5,16256
   11db0:	21277804 	addi	r4,r4,-25120
	u_pan[2] = 0.0;		/* position */
   11db4:	008000b4 	movhi	r2,2
{
   11db8:	dfc00515 	stw	ra,20(sp)
   11dbc:	dd000415 	stw	r20,16(sp)
   11dc0:	dcc00315 	stw	r19,12(sp)
   11dc4:	dc800215 	stw	r18,8(sp)
   11dc8:	dc400115 	stw	r17,4(sp)
   11dcc:	dc000015 	stw	r16,0(sp)
	u_pan[2] = 0.0;		/* position */
   11dd0:	1027b015 	stw	zero,-24896(r2)
	pan_model.SetFinishTime(1);
   11dd4:	00111800 	call	11180 <_ZN22PositionControllerTilt13SetFinishTimeEf>
	tilt_model.SetFinishTime(1);
   11dd8:	010000b4 	movhi	r4,2
   11ddc:	014fe034 	movhi	r5,16256
   11de0:	21279304 	addi	r4,r4,-25012
   11de4:	00111800 	call	11180 <_ZN22PositionControllerTilt13SetFinishTimeEf>

	// Let the motor run to the origin position.
	pan_motor.setSpeedAndDirection(-50);
   11de8:	010000b4 	movhi	r4,2
   11dec:	017ff384 	movi	r5,-50
   11df0:	2127b604 	addi	r4,r4,-24872
   11df4:	00121840 	call	12184 <_ZN5Plant5Motor20setSpeedAndDirectionEa>
	tilt_motor.setSpeedAndDirection(-50);
   11df8:	010000b4 	movhi	r4,2
   11dfc:	017ff384 	movi	r5,-50
   11e00:	2127c004 	addi	r4,r4,-24832
   11e04:	00121840 	call	12184 <_ZN5Plant5Motor20setSpeedAndDirectionEa>

	usleep(10000);
   11e08:	0109c404 	movi	r4,10000
   11e0c:	00179ec0 	call	179ec <usleep>

	timer.enable();
   11e10:	d1221104 	addi	r4,gp,-30652
   11e14:	00128600 	call	12860 <_ZN5Timer6enableEv>

	while(!tilt_homing_done || !pan_homing_done);
   11e18:	d0a00f83 	ldbu	r2,-32706(gp)
   11e1c:	10803fcc 	andi	r2,r2,255
   11e20:	103ffd26 	beq	r2,zero,11e18 <main+0xac>
   11e24:	d0a20c03 	ldbu	r2,-30672(gp)
   11e28:	10803fcc 	andi	r2,r2,255
   11e2c:	103ffa26 	beq	r2,zero,11e18 <main+0xac>

	pan_model.Initialize(u_pan, y_pan, 0.0);
   11e30:	014000b4 	movhi	r5,2
   11e34:	010000b4 	movhi	r4,2
   11e38:	000f883a 	mov	r7,zero
   11e3c:	d1a20d04 	addi	r6,gp,-30668
   11e40:	2967ae04 	addi	r5,r5,-24904
   11e44:	21277804 	addi	r4,r4,-25120
   11e48:	00118080 	call	11808 <_ZN22PositionControllerTilt10InitializeEPfS0_f>
	tilt_model.Initialize(u_tilt, y_tilt, 0.0);
   11e4c:	014000b4 	movhi	r5,2
   11e50:	010000b4 	movhi	r4,2
   11e54:	000f883a 	mov	r7,zero
   11e58:	d1a20f04 	addi	r6,gp,-30660
   11e5c:	2967b204 	addi	r5,r5,-24888
   11e60:	21279304 	addi	r4,r4,-25012
	while(1)
	{
		//u_tilt[1] += 3.14159265;
		//tilt_model.Initialize(u_tilt, y_tilt, 0.0);

		float tilt = tilt_motor.getAngle();
   11e64:	04c000b4 	movhi	r19,2
			message.motor = 0;
			message.setAngle(tilt);
			uart.sendData(message);
		}

		float pan = pan_motor.getAngle();
   11e68:	048000b4 	movhi	r18,2
	tilt_model.Initialize(u_tilt, y_tilt, 0.0);
   11e6c:	00118080 	call	11808 <_ZN22PositionControllerTilt10InitializeEPfS0_f>
	float prev_pan = 0;
   11e70:	0023883a 	mov	r17,zero
	float prev_tilt = 0;
   11e74:	0021883a 	mov	r16,zero
		float tilt = tilt_motor.getAngle();
   11e78:	9ce7c004 	addi	r19,r19,-24832
			uart.sendData(message);
   11e7c:	d5221144 	addi	r20,gp,-30651
		float pan = pan_motor.getAngle();
   11e80:	94a7b604 	addi	r18,r18,-24872
		float tilt = tilt_motor.getAngle();
   11e84:	9809883a 	mov	r4,r19
   11e88:	00123c00 	call	123c0 <_ZN5Plant5Motor8getAngleEv>
		if (tilt != prev_tilt)
   11e8c:	8087f8f2 	custom	227,r3,r16,r2
   11e90:	18000d26 	beq	r3,zero,11ec8 <main+0x15c>
		float pan = pan_motor.getAngle();
   11e94:	9009883a 	mov	r4,r18
   11e98:	00123c00 	call	123c0 <_ZN5Plant5Motor8getAngleEv>

		if (pan != prev_pan)
   11e9c:	8887f8f2 	custom	227,r3,r17,r2
   11ea0:	183ff81e 	bne	r3,zero,11e84 <main+0x118>
			encoder_value = r >> 1;
   11ea4:	100ad07a 	srli	r5,r2,1
		{
			prev_pan = pan;
			Serial::message message;
			message.motor = 1;
			message.setAngle(pan);
			uart.sendData(message);
   11ea8:	a009883a 	mov	r4,r20
			prev_pan = pan;
   11eac:	1023883a 	mov	r17,r2
			uart.sendData(message);
   11eb0:	29600034 	orhi	r5,r5,32768
   11eb4:	001267c0 	call	1267c <_ZN6Serial4UART8sendDataENS_7messageE>
		float tilt = tilt_motor.getAngle();
   11eb8:	9809883a 	mov	r4,r19
   11ebc:	00123c00 	call	123c0 <_ZN5Plant5Motor8getAngleEv>
		if (tilt != prev_tilt)
   11ec0:	8087f8f2 	custom	227,r3,r16,r2
   11ec4:	183ff31e 	bne	r3,zero,11e94 <main+0x128>
			uart.sendData(message);
   11ec8:	100ad07a 	srli	r5,r2,1
   11ecc:	a009883a 	mov	r4,r20
			prev_tilt = tilt;
   11ed0:	1021883a 	mov	r16,r2
			uart.sendData(message);
   11ed4:	001267c0 	call	1267c <_ZN6Serial4UART8sendDataENS_7messageE>
   11ed8:	003fee06 	br	11e94 <main+0x128>

00011edc <_GLOBAL__sub_I_uart>:
		}
	}

	return 0;
}
   11edc:	deffea04 	addi	sp,sp,-88
   11ee0:	01400074 	movhi	r5,1
   11ee4:	00c000b4 	movhi	r3,2
   11ee8:	00800074 	movhi	r2,1
   11eec:	294c2104 	addi	r5,r5,12420
   11ef0:	18e1cb04 	addi	r3,r3,-30932
   11ef4:	10880f04 	addi	r2,r2,8252
   11ef8:	d9000304 	addi	r4,sp,12
   11efc:	d9400915 	stw	r5,36(sp)
   11f00:	d8c00a15 	stw	r3,40(sp)
   11f04:	d8800c15 	stw	r2,48(sp)
   11f08:	dfc01515 	stw	ra,84(sp)
   11f0c:	df001415 	stw	fp,80(sp)
   11f10:	df000b15 	stw	fp,44(sp)
   11f14:	dec00d15 	stw	sp,52(sp)
   11f18:	0016bb80 	call	16bb8 <_Unwind_SjLj_Register>

	if (_My_handler::_M_not_empty_function(__f))
	  {
	    _My_handler::_M_init_functor(_M_functor, std::move(__f));
	    _M_invoker = &_My_handler::_M_invoke;
	    _M_manager = &_My_handler::_M_manager;
   11f1c:	00800074 	movhi	r2,1
   11f20:	10873004 	addi	r2,r2,7360
	{ ::new (__functor._M_access()) _Functor(std::move(__f)); }
   11f24:	01800074 	movhi	r6,1
	    _M_invoker = &_My_handler::_M_invoke;
   11f28:	00c00074 	movhi	r3,1
	{ ::new (__functor._M_access()) _Functor(std::move(__f)); }
   11f2c:	31870304 	addi	r6,r6,7180
	    _M_invoker = &_My_handler::_M_invoke;
   11f30:	18c71904 	addi	r3,r3,7268
	    _M_manager = &_My_handler::_M_manager;
   11f34:	d8801215 	stw	r2,72(sp)
Serial::UART uart = Serial::UART(handleUartEvent);
   11f38:	d9401004 	addi	r5,sp,64
   11f3c:	00800044 	movi	r2,1
   11f40:	d1221144 	addi	r4,gp,-30651
	{ ::new (__functor._M_access()) _Functor(std::move(__f)); }
   11f44:	d9801015 	stw	r6,64(sp)
	    _M_invoker = &_My_handler::_M_invoke;
   11f48:	d8c01315 	stw	r3,76(sp)
   11f4c:	d8800415 	stw	r2,16(sp)
   11f50:	00125180 	call	12518 <_ZN6Serial4UARTC1ESt8functionIFvRNS_7messageEEE>
    class function<_Res(_ArgTypes...)>
   11f54:	d9001004 	addi	r4,sp,64
   11f58:	0011d080 	call	11d08 <_ZNSt14_Function_baseD1Ev>
	    _M_manager = &_My_handler::_M_manager;
   11f5c:	00800074 	movhi	r2,1
   11f60:	10871e04 	addi	r2,r2,7288
	{ ::new (__functor._M_access()) _Functor(std::move(__f)); }
   11f64:	01800074 	movhi	r6,1
	    _M_invoker = &_My_handler::_M_invoke;
   11f68:	00c00074 	movhi	r3,1
	{ ::new (__functor._M_access()) _Functor(std::move(__f)); }
   11f6c:	31869504 	addi	r6,r6,6740
	    _M_invoker = &_My_handler::_M_invoke;
   11f70:	18c71c04 	addi	r3,r3,7280
	    _M_manager = &_My_handler::_M_manager;
   11f74:	d8801215 	stw	r2,72(sp)
Timer timer = Timer(handleTimerEvent);
   11f78:	d9401004 	addi	r5,sp,64
   11f7c:	00800084 	movi	r2,2
   11f80:	d1221104 	addi	r4,gp,-30652
	{ ::new (__functor._M_access()) _Functor(std::move(__f)); }
   11f84:	d9801015 	stw	r6,64(sp)
	    _M_invoker = &_My_handler::_M_invoke;
   11f88:	d8c01315 	stw	r3,76(sp)
   11f8c:	d8800415 	stw	r2,16(sp)
   11f90:	00127440 	call	12744 <_ZN5TimerC1ESt8functionIFvvEE>
    class function<_Res(_ArgTypes...)>
   11f94:	d9001004 	addi	r4,sp,64
   11f98:	0011d080 	call	11d08 <_ZNSt14_Function_baseD1Ev>
Plant::Motor tilt_motor = Plant::Motor(MOTOR_PWM_0_SLAVE_1_BASE, MOTOR_PWM_0_SLAVE_2_BASE, PWM_FREQUENCY, QUADRATURE_ENCODER_0_BASE, 2161);
   11f9c:	008000b4 	movhi	r2,2
   11fa0:	00c21c44 	movi	r3,2161
   11fa4:	10890004 	addi	r2,r2,9216
   11fa8:	018000b4 	movhi	r6,2
   11fac:	014000b4 	movhi	r5,2
   11fb0:	010000b4 	movhi	r4,2
   11fb4:	d8c00115 	stw	r3,4(sp)
   11fb8:	d8800015 	stw	r2,0(sp)
   11fbc:	01c27104 	movi	r7,2500
   11fc0:	00bfffc4 	movi	r2,-1
   11fc4:	31850004 	addi	r6,r6,5120
   11fc8:	29470004 	addi	r5,r5,7168
   11fcc:	2127c004 	addi	r4,r4,-24832
   11fd0:	d8800415 	stw	r2,16(sp)
   11fd4:	00120a40 	call	120a4 <_ZN5Plant5MotorC1Emmmmm>
Plant::Motor pan_motor = Plant::Motor(MOTOR_PWM_1_SLAVE_1_BASE, MOTOR_PWM_1_SLAVE_2_BASE, PWM_FREQUENCY, QUADRATURE_ENCODER_1_BASE, 4915);
   11fd8:	008000b4 	movhi	r2,2
   11fdc:	10880004 	addi	r2,r2,8192
   11fe0:	00c4ccc4 	movi	r3,4915
   11fe4:	018000b4 	movhi	r6,2
   11fe8:	014000b4 	movhi	r5,2
   11fec:	010000b4 	movhi	r4,2
   11ff0:	01c27104 	movi	r7,2500
   11ff4:	31840004 	addi	r6,r6,4096
   11ff8:	29460004 	addi	r5,r5,6144
   11ffc:	d8c00115 	stw	r3,4(sp)
   12000:	d8800015 	stw	r2,0(sp)
   12004:	2127b604 	addi	r4,r4,-24872
   12008:	00120a40 	call	120a4 <_ZN5Plant5MotorC1Emmmmm>
PositionControllerTilt tilt_model;
   1200c:	010000b4 	movhi	r4,2
   12010:	21279304 	addi	r4,r4,-25012
   12014:	001144c0 	call	1144c <_ZN22PositionControllerTiltC1Ev>
PositionControllerTilt pan_model;
   12018:	010000b4 	movhi	r4,2
   1201c:	21277804 	addi	r4,r4,-25120
   12020:	001144c0 	call	1144c <_ZN22PositionControllerTiltC1Ev>
   12024:	d9000304 	addi	r4,sp,12
   12028:	0016bd00 	call	16bd0 <_Unwind_SjLj_Unregister>
}
   1202c:	dfc01517 	ldw	ra,84(sp)
   12030:	df001417 	ldw	fp,80(sp)
   12034:	dec01604 	addi	sp,sp,88
   12038:	f800283a 	ret
   1203c:	d8c00517 	ldw	r3,20(sp)
   12040:	d8800417 	ldw	r2,16(sp)
   12044:	d8c00215 	stw	r3,8(sp)
   12048:	1000061e 	bne	r2,zero,12064 <_GLOBAL__sub_I_uart+0x188>
   1204c:	d9001004 	addi	r4,sp,64
   12050:	0011d080 	call	11d08 <_ZNSt14_Function_baseD1Ev>
   12054:	d9000217 	ldw	r4,8(sp)
   12058:	00bfffc4 	movi	r2,-1
   1205c:	d8800415 	stw	r2,16(sp)
   12060:	0016da00 	call	16da0 <_Unwind_SjLj_Resume>
   12064:	10bfffc4 	addi	r2,r2,-1
   12068:	d9001004 	addi	r4,sp,64
   1206c:	10000126 	beq	r2,zero,12074 <_GLOBAL__sub_I_uart+0x198>
   12070:	003b68fa 	trap	3
   12074:	003ff606 	br	12050 <_GLOBAL__sub_I_uart+0x174>

00012078 <_GLOBAL__sub_D_uart>:
PositionControllerTilt pan_model;
   12078:	010000b4 	movhi	r4,2
}
   1207c:	deffff04 	addi	sp,sp,-4
PositionControllerTilt pan_model;
   12080:	21277804 	addi	r4,r4,-25120
}
   12084:	dfc00015 	stw	ra,0(sp)
PositionControllerTilt pan_model;
   12088:	00116e40 	call	116e4 <_ZN22PositionControllerTiltD1Ev>
PositionControllerTilt tilt_model;
   1208c:	010000b4 	movhi	r4,2
   12090:	21279304 	addi	r4,r4,-25012
   12094:	00116e40 	call	116e4 <_ZN22PositionControllerTiltD1Ev>
}
   12098:	dfc00017 	ldw	ra,0(sp)
   1209c:	dec00104 	addi	sp,sp,4
   120a0:	f800283a 	ret

000120a4 <_ZN5Plant5MotorC1Emmmmm>:
#include "motor.hpp"

Plant::Motor::Motor(uint32_t base_address_first_word, uint32_t base_address_second_word, uint32_t frequency,
   120a4:	defffb04 	addi	sp,sp,-20
		uint32_t base_address_encoder, uint32_t steps_per_revolution) :
	base_address_first_word(base_address_first_word),
	base_address_second_word(base_address_second_word),
	frequency(frequency),
	base_address_encoder(base_address_encoder),
	radians_per_step((360.0 / float(steps_per_revolution)) * (3.14159265358979323846 / 180.0))
   120a8:	d8c00517 	ldw	r3,20(sp)
Plant::Motor::Motor(uint32_t base_address_first_word, uint32_t base_address_second_word, uint32_t frequency,
   120ac:	d8800617 	ldw	r2,24(sp)
   120b0:	dcc00315 	stw	r19,12(sp)
   120b4:	dc800215 	stw	r18,8(sp)
   120b8:	dc400115 	stw	r17,4(sp)
   120bc:	dc000015 	stw	r16,0(sp)
   120c0:	dfc00415 	stw	ra,16(sp)
	radians_per_step((360.0 / float(steps_per_revolution)) * (3.14159265358979323846 / 180.0))
   120c4:	20000015 	stw	zero,0(r4)
   120c8:	21400115 	stw	r5,4(r4)
   120cc:	21800215 	stw	r6,8(r4)
   120d0:	21c00315 	stw	r7,12(r4)
   120d4:	20c00415 	stw	r3,16(r4)
Plant::Motor::Motor(uint32_t base_address_first_word, uint32_t base_address_second_word, uint32_t frequency,
   120d8:	2021883a 	mov	r16,r4
   120dc:	2823883a 	mov	r17,r5
   120e0:	3027883a 	mov	r19,r6
   120e4:	3825883a 	mov	r18,r7
	radians_per_step((360.0 / float(steps_per_revolution)) * (3.14159265358979323846 / 180.0))
   120e8:	10002016 	blt	r2,zero,1216c <_ZN5Plant5MotorC1Emmmmm+0xc8>
   120ec:	1009feb2 	custom	250,r4,r2,zero
   120f0:	00167340 	call	16734 <__extendsfdf2>
   120f4:	01501df4 	movhi	r5,16503
   120f8:	100d883a 	mov	r6,r2
   120fc:	180f883a 	mov	r7,r3
   12100:	0009883a 	mov	r4,zero
   12104:	29600004 	addi	r5,r5,-32768
   12108:	00156580 	call	15658 <__divdf3>
   1210c:	01a894f4 	movhi	r6,41555
   12110:	01cfe4b4 	movhi	r7,16274
   12114:	31a74e44 	addi	r6,r6,-25287
   12118:	39f7d184 	addi	r7,r7,-8378
   1211c:	1009883a 	mov	r4,r2
   12120:	180b883a 	mov	r5,r3
   12124:	0015f880 	call	15f88 <__muldf3>
   12128:	1009883a 	mov	r4,r2
   1212c:	180b883a 	mov	r5,r3
   12130:	00168300 	call	16830 <__truncdfsf2>
   12134:	80800515 	stw	r2,20(r16)
   12138:	80000615 	stw	zero,24(r16)
   1213c:	80000715 	stw	zero,28(r16)
   12140:	80000815 	stw	zero,32(r16)
   12144:	80000915 	stw	zero,36(r16)
}

void Plant::Motor::disable()
{
	en = 0;
	IOWR_32DIRECT(base_address_second_word, 0, getSecondWord());
   12148:	98000035 	stwio	zero,0(r19)
	IOWR_32DIRECT(base_address_first_word, 0, frequency);
   1214c:	8c800035 	stwio	r18,0(r17)
}
   12150:	dfc00417 	ldw	ra,16(sp)
   12154:	dcc00317 	ldw	r19,12(sp)
   12158:	dc800217 	ldw	r18,8(sp)
   1215c:	dc400117 	ldw	r17,4(sp)
   12160:	dc000017 	ldw	r16,0(sp)
   12164:	dec00504 	addi	sp,sp,20
   12168:	f800283a 	ret
	radians_per_step((360.0 / float(steps_per_revolution)) * (3.14159265358979323846 / 180.0))
   1216c:	1006d07a 	srli	r3,r2,1
   12170:	1080004c 	andi	r2,r2,1
   12174:	10c4b03a 	or	r2,r2,r3
   12178:	1009feb2 	custom	250,r4,r2,zero
   1217c:	2109ff72 	custom	253,r4,r4,r4
   12180:	003fdb06 	br	120f0 <_ZN5Plant5MotorC1Emmmmm+0x4c>

00012184 <_ZN5Plant5Motor20setSpeedAndDirectionEa>:
	if (percentage == 0)
   12184:	29803fcc 	andi	r6,r5,255
   12188:	3180201c 	xori	r6,r6,128
   1218c:	31bfe004 	addi	r6,r6,-128
	IOWR_32DIRECT(base_address_second_word, 0, getSecondWord());
   12190:	22000217 	ldw	r8,8(r4)
	if (percentage == 0)
   12194:	30003b26 	beq	r6,zero,12284 <_ZN5Plant5Motor20setSpeedAndDirectionEa+0x100>
			const uint32_t base_address_encoder;
			const float radians_per_step;

			uint32_t getSecondWord()
			{
				return (duty_cycle << 16) | (direction << 14) | en << 13;
   12198:	20800817 	ldw	r2,32(r4)
		percentage = percentage * -1;
   1219c:	2807883a 	mov	r3,r5
   121a0:	100e937a 	slli	r7,r2,13
   121a4:	20800617 	ldw	r2,24(r4)
	if (percentage > 0)
   121a8:	0180270e 	bge	zero,r6,12248 <_ZN5Plant5Motor20setSpeedAndDirectionEa+0xc4>
   121ac:	1004943a 	slli	r2,r2,16
	direction = static_cast<uint32_t>(dir);
   121b0:	01400044 	movi	r5,1
   121b4:	21400715 	stw	r5,28(r4)
   121b8:	11c4b03a 	or	r2,r2,r7
   121bc:	10900014 	ori	r2,r2,16384
	IOWR_32DIRECT(base_address_second_word, 0, getSecondWord());
   121c0:	40800035 	stwio	r2,0(r8)
	duty_cycle = uint32_t ((float)frequency * ((float)duty / 100));
   121c4:	20800317 	ldw	r2,12(r4)
   121c8:	10002816 	blt	r2,zero,1226c <_ZN5Plant5Motor20setSpeedAndDirectionEa+0xe8>
   121cc:	1005feb2 	custom	250,r2,r2,zero
   121d0:	18c03fcc 	andi	r3,r3,255
   121d4:	1807feb2 	custom	250,r3,r3,zero
   121d8:	0150b234 	movhi	r5,17096
   121dc:	1947fff2 	custom	255,r3,r3,r5
   121e0:	10c5ff32 	custom	252,r2,r2,r3
   121e4:	00d3c034 	movhi	r3,20224
   121e8:	10c7f932 	custom	228,r3,r2,r3
   121ec:	18002d1e 	bne	r3,zero,122a4 <_ZN5Plant5Motor20setSpeedAndDirectionEa+0x120>
   121f0:	1005fe72 	custom	249,r2,r2,zero
   121f4:	20c00717 	ldw	r3,28(r4)
   121f8:	21400817 	ldw	r5,32(r4)
   121fc:	100e943a 	slli	r7,r2,16
   12200:	180693ba 	slli	r3,r3,14
   12204:	280a937a 	slli	r5,r5,13
	IOWR_32DIRECT(base_address_second_word, 0, getSecondWord());
   12208:	21800217 	ldw	r6,8(r4)
	duty_cycle = uint32_t ((float)frequency * ((float)duty / 100));
   1220c:	20800615 	stw	r2,24(r4)
   12210:	1944b03a 	or	r2,r3,r5
   12214:	11c4b03a 	or	r2,r2,r7
	IOWR_32DIRECT(base_address_second_word, 0, getSecondWord());
   12218:	30800035 	stwio	r2,0(r6)
   1221c:	20800617 	ldw	r2,24(r4)
   12220:	20c00717 	ldw	r3,28(r4)
	IOWR_32DIRECT(base_address_second_word, 0, getSecondWord());
   12224:	21400217 	ldw	r5,8(r4)
   12228:	1004943a 	slli	r2,r2,16
   1222c:	180693ba 	slli	r3,r3,14
	en = 1;
   12230:	01800044 	movi	r6,1
   12234:	21800815 	stw	r6,32(r4)
   12238:	10c4b03a 	or	r2,r2,r3
   1223c:	10880014 	ori	r2,r2,8192
	IOWR_32DIRECT(base_address_second_word, 0, getSecondWord());
   12240:	28800035 	stwio	r2,0(r5)
}
   12244:	f800283a 	ret
   12248:	1004943a 	slli	r2,r2,16
	direction = static_cast<uint32_t>(dir);
   1224c:	00c00084 	movi	r3,2
   12250:	20c00715 	stw	r3,28(r4)
   12254:	11c4b03a 	or	r2,r2,r7
   12258:	10a00014 	ori	r2,r2,32768
	IOWR_32DIRECT(base_address_second_word, 0, getSecondWord());
   1225c:	40800035 	stwio	r2,0(r8)
	duty_cycle = uint32_t ((float)frequency * ((float)duty / 100));
   12260:	20800317 	ldw	r2,12(r4)
		percentage = percentage * -1;
   12264:	0147c83a 	sub	r3,zero,r5
	duty_cycle = uint32_t ((float)frequency * ((float)duty / 100));
   12268:	103fd80e 	bge	r2,zero,121cc <_ZN5Plant5Motor20setSpeedAndDirectionEa+0x48>
   1226c:	100ad07a 	srli	r5,r2,1
   12270:	1080004c 	andi	r2,r2,1
   12274:	1144b03a 	or	r2,r2,r5
   12278:	1005feb2 	custom	250,r2,r2,zero
   1227c:	1085ff72 	custom	253,r2,r2,r2
   12280:	003fd306 	br	121d0 <_ZN5Plant5Motor20setSpeedAndDirectionEa+0x4c>
   12284:	20800617 	ldw	r2,24(r4)
   12288:	20c00717 	ldw	r3,28(r4)
	en = 0;
   1228c:	20000815 	stw	zero,32(r4)
   12290:	1004943a 	slli	r2,r2,16
   12294:	180693ba 	slli	r3,r3,14
   12298:	10c4b03a 	or	r2,r2,r3
	IOWR_32DIRECT(base_address_second_word, 0, getSecondWord());
   1229c:	40800035 	stwio	r2,0(r8)
		return;
   122a0:	f800283a 	ret
	duty_cycle = uint32_t ((float)frequency * ((float)duty / 100));
   122a4:	00d3c034 	movhi	r3,20224
   122a8:	10c5ffb2 	custom	254,r2,r2,r3
   122ac:	1005fe72 	custom	249,r2,r2,zero
   122b0:	10a0003c 	xorhi	r2,r2,32768
   122b4:	003fcf06 	br	121f4 <_ZN5Plant5Motor20setSpeedAndDirectionEa+0x70>

000122b8 <_ZN5Plant5Motor12setDutyCycleEh>:
   122b8:	20800317 	ldw	r2,12(r4)
   122bc:	10001a16 	blt	r2,zero,12328 <_ZN5Plant5Motor12setDutyCycleEh+0x70>
   122c0:	1005feb2 	custom	250,r2,r2,zero
   122c4:	28c03fcc 	andi	r3,r5,255
   122c8:	1807feb2 	custom	250,r3,r3,zero
   122cc:	0150b234 	movhi	r5,17096
   122d0:	1947fff2 	custom	255,r3,r3,r5
   122d4:	10c5ff32 	custom	252,r2,r2,r3
   122d8:	00d3c034 	movhi	r3,20224
   122dc:	10c7f932 	custom	228,r3,r2,r3
   122e0:	18000c1e 	bne	r3,zero,12314 <_ZN5Plant5Motor12setDutyCycleEh+0x5c>
   122e4:	1005fe72 	custom	249,r2,r2,zero
   122e8:	20c00717 	ldw	r3,28(r4)
   122ec:	21400817 	ldw	r5,32(r4)
   122f0:	100e943a 	slli	r7,r2,16
   122f4:	180693ba 	slli	r3,r3,14
   122f8:	280a937a 	slli	r5,r5,13
	IOWR_32DIRECT(base_address_second_word, 0, getSecondWord());
   122fc:	21800217 	ldw	r6,8(r4)
	duty_cycle = uint32_t ((float)frequency * ((float)duty / 100));
   12300:	20800615 	stw	r2,24(r4)
   12304:	1944b03a 	or	r2,r3,r5
   12308:	11c4b03a 	or	r2,r2,r7
	IOWR_32DIRECT(base_address_second_word, 0, getSecondWord());
   1230c:	30800035 	stwio	r2,0(r6)
}
   12310:	f800283a 	ret
	duty_cycle = uint32_t ((float)frequency * ((float)duty / 100));
   12314:	00d3c034 	movhi	r3,20224
   12318:	10c5ffb2 	custom	254,r2,r2,r3
   1231c:	1005fe72 	custom	249,r2,r2,zero
   12320:	10a0003c 	xorhi	r2,r2,32768
   12324:	003ff006 	br	122e8 <_ZN5Plant5Motor12setDutyCycleEh+0x30>
   12328:	1006d07a 	srli	r3,r2,1
   1232c:	1080004c 	andi	r2,r2,1
   12330:	10c4b03a 	or	r2,r2,r3
   12334:	1005feb2 	custom	250,r2,r2,zero
   12338:	1085ff72 	custom	253,r2,r2,r2
   1233c:	003fe106 	br	122c4 <_ZN5Plant5Motor12setDutyCycleEh+0xc>

00012340 <_ZN5Plant5Motor12setDirectionENS0_9DirectionE>:
   12340:	20800617 	ldw	r2,24(r4)
   12344:	20c00817 	ldw	r3,32(r4)
	direction = static_cast<uint32_t>(dir);
   12348:	29403fcc 	andi	r5,r5,255
   1234c:	1004943a 	slli	r2,r2,16
   12350:	1806937a 	slli	r3,r3,13
   12354:	280e93ba 	slli	r7,r5,14
	IOWR_32DIRECT(base_address_second_word, 0, getSecondWord());
   12358:	21800217 	ldw	r6,8(r4)
   1235c:	10c4b03a 	or	r2,r2,r3
	direction = static_cast<uint32_t>(dir);
   12360:	21400715 	stw	r5,28(r4)
   12364:	11c4b03a 	or	r2,r2,r7
	IOWR_32DIRECT(base_address_second_word, 0, getSecondWord());
   12368:	30800035 	stwio	r2,0(r6)
}
   1236c:	f800283a 	ret

00012370 <_ZN5Plant5Motor6enableEv>:
   12370:	20800617 	ldw	r2,24(r4)
   12374:	20c00717 	ldw	r3,28(r4)
	IOWR_32DIRECT(base_address_second_word, 0, getSecondWord());
   12378:	21400217 	ldw	r5,8(r4)
   1237c:	1004943a 	slli	r2,r2,16
   12380:	180693ba 	slli	r3,r3,14
	en = 1;
   12384:	01800044 	movi	r6,1
   12388:	21800815 	stw	r6,32(r4)
   1238c:	10c4b03a 	or	r2,r2,r3
   12390:	10880014 	ori	r2,r2,8192
	IOWR_32DIRECT(base_address_second_word, 0, getSecondWord());
   12394:	28800035 	stwio	r2,0(r5)
}
   12398:	f800283a 	ret

0001239c <_ZN5Plant5Motor7disableEv>:
   1239c:	20800617 	ldw	r2,24(r4)
   123a0:	20c00717 	ldw	r3,28(r4)
	IOWR_32DIRECT(base_address_second_word, 0, getSecondWord());
   123a4:	21400217 	ldw	r5,8(r4)
   123a8:	1004943a 	slli	r2,r2,16
   123ac:	180693ba 	slli	r3,r3,14
	en = 0;
   123b0:	20000815 	stw	zero,32(r4)
   123b4:	10c4b03a 	or	r2,r2,r3
	IOWR_32DIRECT(base_address_second_word, 0, getSecondWord());
   123b8:	28800035 	stwio	r2,0(r5)
}
   123bc:	f800283a 	ret

000123c0 <_ZN5Plant5Motor8getAngleEv>:
    return (readData() - encoder_start_position) * radians_per_step;
}

int32_t Plant::Motor::readData()
{
	return IORD_32DIRECT(base_address_encoder, 0);
   123c0:	20800417 	ldw	r2,16(r4)
   123c4:	10800037 	ldwio	r2,0(r2)
    return (readData() - encoder_start_position) * radians_per_step;
   123c8:	21400017 	ldw	r5,0(r4)
   123cc:	20c00517 	ldw	r3,20(r4)
   123d0:	1145c83a 	sub	r2,r2,r5
   123d4:	1005feb2 	custom	250,r2,r2,zero
}
   123d8:	10c5ff32 	custom	252,r2,r2,r3
   123dc:	f800283a 	ret

000123e0 <_ZN5Plant5Motor8readDataEv>:
	return IORD_32DIRECT(base_address_encoder, 0);
   123e0:	20800417 	ldw	r2,16(r4)
}
   123e4:	10800037 	ldwio	r2,0(r2)
   123e8:	f800283a 	ret

000123ec <_ZN5Plant5Motor19isAtInitialPositionEv>:
	return IORD_32DIRECT(base_address_encoder, 0);
   123ec:	20800417 	ldw	r2,16(r4)

bool Plant::Motor::isAtInitialPosition()
{
   123f0:	deffff04 	addi	sp,sp,-4
	return IORD_32DIRECT(base_address_encoder, 0);
   123f4:	10800037 	ldwio	r2,0(r2)
	volatile int32_t value = readData();
   123f8:	d8800015 	stw	r2,0(sp)

	if (value != encoder_start_position)
   123fc:	d8800017 	ldw	r2,0(sp)
   12400:	20c00017 	ldw	r3,0(r4)
   12404:	18800626 	beq	r3,r2,12420 <_ZN5Plant5Motor19isAtInitialPositionEv+0x34>
	{
		encoder_start_position = value;
   12408:	d8c00017 	ldw	r3,0(sp)
		occurences = 0;
   1240c:	20000915 	stw	zero,36(r4)
	{
		disable();
		return true;
	}

	return false;
   12410:	0005883a 	mov	r2,zero
		encoder_start_position = value;
   12414:	20c00015 	stw	r3,0(r4)
}
   12418:	dec00104 	addi	sp,sp,4
   1241c:	f800283a 	ret
		occurences++;
   12420:	20800917 	ldw	r2,36(r4)
		encoder_start_position = value;
   12424:	d8c00017 	ldw	r3,0(sp)
		occurences++;
   12428:	10800044 	addi	r2,r2,1
   1242c:	20800915 	stw	r2,36(r4)
		encoder_start_position = value;
   12430:	20c00015 	stw	r3,0(r4)
	if (occurences > 500)
   12434:	10807d70 	cmpltui	r2,r2,501
   12438:	10000b1e 	bne	r2,zero,12468 <_ZN5Plant5Motor19isAtInitialPositionEv+0x7c>
   1243c:	20800617 	ldw	r2,24(r4)
   12440:	20c00717 	ldw	r3,28(r4)
	IOWR_32DIRECT(base_address_second_word, 0, getSecondWord());
   12444:	21400217 	ldw	r5,8(r4)
   12448:	1004943a 	slli	r2,r2,16
   1244c:	180693ba 	slli	r3,r3,14
	en = 0;
   12450:	20000815 	stw	zero,32(r4)
   12454:	10c4b03a 	or	r2,r2,r3
	IOWR_32DIRECT(base_address_second_word, 0, getSecondWord());
   12458:	28800035 	stwio	r2,0(r5)
		return true;
   1245c:	00800044 	movi	r2,1
}
   12460:	dec00104 	addi	sp,sp,4
   12464:	f800283a 	ret
	return false;
   12468:	0005883a 	mov	r2,zero
   1246c:	003fea06 	br	12418 <_ZN5Plant5Motor19isAtInitialPositionEv+0x2c>

00012470 <_ZN6Serial4UART10uart_0_isrEPv>:
std::function<void(Serial::message &received_message)> Serial::UART::callback;

void Serial::UART::uart_0_isr(void *)
{
	// Check if the UART buffer is empty or if there are more messages waiting.
	alt_u16 status = IORD_ALTERA_AVALON_UART_STATUS(UART_0_BASE);
   12470:	008000b4 	movhi	r2,2
   12474:	108a0a37 	ldwio	r2,10280(r2)

	if(status & ALTERA_AVALON_UART_STATUS_RRDY_MSK)
   12478:	1080200c 	andi	r2,r2,128
   1247c:	10002226 	beq	r2,zero,12508 <_ZN6Serial4UART10uart_0_isrEPv+0x98>
	{
		rx_data[rx_len] = IORD_ALTERA_AVALON_UART_RXDATA(UART_0_BASE);
   12480:	008000b4 	movhi	r2,2
   12484:	114a0837 	ldwio	r5,10272(r2)
   12488:	d0a21183 	ldbu	r2,-30650(gp)
   1248c:	d0e211c4 	addi	r3,gp,-30649
		rx_len ++ ;
   12490:	11000044 	addi	r4,r2,1
		rx_data[rx_len] = IORD_ALTERA_AVALON_UART_RXDATA(UART_0_BASE);
   12494:	10803fcc 	andi	r2,r2,255
   12498:	1887883a 	add	r3,r3,r2

		if (rx_len >= MESSAGE_SIZE)
   1249c:	20803fcc 	andi	r2,r4,255
		rx_data[rx_len] = IORD_ALTERA_AVALON_UART_RXDATA(UART_0_BASE);
   124a0:	19400005 	stb	r5,0(r3)
		rx_len ++ ;
   124a4:	d1221185 	stb	r4,-30650(gp)
		if (rx_len >= MESSAGE_SIZE)
   124a8:	10800130 	cmpltui	r2,r2,4
   124ac:	1000161e 	bne	r2,zero,12508 <_ZN6Serial4UART10uart_0_isrEPv+0x98>
		{
			uart_ready = true;
			rx_len = 0;
   124b0:	d0221185 	stb	zero,-30650(gp)
	if (uart_ready)
	{
		uart_ready = 0;

		message received_message;
		std::memcpy(&received_message, &rx_data, MESSAGE_SIZE);
   124b4:	d0e211c3 	ldbu	r3,-30649(gp)
{
   124b8:	defffe04 	addi	sp,sp,-8
    bool _M_empty() const { return !_M_manager; }
   124bc:	010000b4 	movhi	r4,2
		std::memcpy(&received_message, &rx_data, MESSAGE_SIZE);
   124c0:	d8c00005 	stb	r3,0(sp)
   124c4:	d0e21203 	ldbu	r3,-30648(gp)
   124c8:	2127ca04 	addi	r4,r4,-24792
  template<typename _Res, typename... _ArgTypes>
    _Res
    function<_Res(_ArgTypes...)>::
    operator()(_ArgTypes... __args) const
    {
      if (_M_empty())
   124cc:	20800217 	ldw	r2,8(r4)
   124d0:	d8c00045 	stb	r3,1(sp)
   124d4:	d0e21243 	ldbu	r3,-30647(gp)
{
   124d8:	dfc00115 	stw	ra,4(sp)
		uart_ready = 0;
   124dc:	d02212c5 	stb	zero,-30645(gp)
		std::memcpy(&received_message, &rx_data, MESSAGE_SIZE);
   124e0:	d8c00085 	stb	r3,2(sp)
   124e4:	d0e21283 	ldbu	r3,-30646(gp)
   124e8:	d8c000c5 	stb	r3,3(sp)
   124ec:	10000926 	beq	r2,zero,12514 <_ZN6Serial4UART10uart_0_isrEPv+0xa4>
	__throw_bad_function_call();
      return _M_invoker(_M_functor, std::forward<_ArgTypes>(__args)...);
   124f0:	20800317 	ldw	r2,12(r4)
   124f4:	d80b883a 	mov	r5,sp
   124f8:	103ee83a 	callr	r2

		callback(received_message);
	}
}
   124fc:	dfc00117 	ldw	ra,4(sp)
   12500:	dec00204 	addi	sp,sp,8
   12504:	f800283a 	ret
	if (uart_ready)
   12508:	d0a212c3 	ldbu	r2,-30645(gp)
   1250c:	103fe91e 	bne	r2,zero,124b4 <_ZN6Serial4UART10uart_0_isrEPv+0x44>
   12510:	f800283a 	ret
	__throw_bad_function_call();
   12514:	0014a580 	call	14a58 <_ZSt25__throw_bad_function_callv>

00012518 <_ZN6Serial4UARTC1ESt8functionIFvRNS_7messageEEE>:

Serial::UART::UART(std::function<void(Serial::message &received_message)> func)
   12518:	deffeb04 	addi	sp,sp,-84
   1251c:	01800074 	movhi	r6,1
   12520:	00c000b4 	movhi	r3,2
   12524:	00800074 	movhi	r2,1
   12528:	18e1cd04 	addi	r3,r3,-30924
   1252c:	10899604 	addi	r2,r2,9816
   12530:	318c2104 	addi	r6,r6,12420
   12534:	d9000204 	addi	r4,sp,8
   12538:	d8c00915 	stw	r3,36(sp)
   1253c:	d8800b15 	stw	r2,44(sp)
   12540:	dfc01415 	stw	ra,80(sp)
   12544:	df001315 	stw	fp,76(sp)
   12548:	d9400115 	stw	r5,4(sp)
   1254c:	d9800815 	stw	r6,32(sp)
   12550:	df000a15 	stw	fp,40(sp)
   12554:	dec00c15 	stw	sp,48(sp)
   12558:	0016bb80 	call	16bb8 <_Unwind_SjLj_Register>
    bool _M_empty() const { return !_M_manager; }
   1255c:	d8800117 	ldw	r2,4(sp)
    _Function_base() : _M_manager(nullptr) { }
   12560:	d8001115 	stw	zero,68(sp)
    bool _M_empty() const { return !_M_manager; }
   12564:	10c00217 	ldw	r3,8(r2)
      if (static_cast<bool>(__x))
   12568:	18003926 	beq	r3,zero,12650 <_ZN6Serial4UARTC1ESt8functionIFvRNS_7messageEEE+0x138>
	  __x._M_manager(_M_functor, __x._M_functor, __clone_functor);
   1256c:	d9400117 	ldw	r5,4(sp)
   12570:	00800044 	movi	r2,1
   12574:	d8800315 	stw	r2,12(sp)
   12578:	01800084 	movi	r6,2
   1257c:	d9000f04 	addi	r4,sp,60
   12580:	183ee83a 	callr	r3
	  _M_invoker = __x._M_invoker;
   12584:	d8800117 	ldw	r2,4(sp)
   12588:	11000317 	ldw	r4,12(r2)
	  _M_manager = __x._M_manager;
   1258c:	10c00217 	ldw	r3,8(r2)
#if __cplusplus < 201103L
      // concept requirements
      __glibcxx_function_requires(_SGIAssignableConcept<_Tp>)
#endif
      _Tp __tmp = _GLIBCXX_MOVE(__a);
      __a = _GLIBCXX_MOVE(__b);
   12590:	008000b4 	movhi	r2,2
   12594:	10a7ca04 	addi	r2,r2,-24792
      __b = _GLIBCXX_MOVE(__tmp);
   12598:	dac00f17 	ldw	r11,60(sp)
      __a = _GLIBCXX_MOVE(__b);
   1259c:	014000b4 	movhi	r5,2
   125a0:	2a67ca17 	ldw	r9,-24792(r5)
   125a4:	12000117 	ldw	r8,4(r2)
      _Tp __tmp = _GLIBCXX_MOVE(__a);
   125a8:	d9801017 	ldw	r6,64(sp)
      __a = _GLIBCXX_MOVE(__b);
   125ac:	11c00217 	ldw	r7,8(r2)
   125b0:	11400317 	ldw	r5,12(r2)
      __b = _GLIBCXX_MOVE(__tmp);
   125b4:	028000b4 	movhi	r10,2
   125b8:	52e7ca15 	stw	r11,-24792(r10)
      __a = _GLIBCXX_MOVE(__b);
   125bc:	da400f15 	stw	r9,60(sp)
   125c0:	da001015 	stw	r8,64(sp)
      __b = _GLIBCXX_MOVE(__tmp);
   125c4:	11800115 	stw	r6,4(r2)
      __a = _GLIBCXX_MOVE(__b);
   125c8:	d9c01115 	stw	r7,68(sp)
      __b = _GLIBCXX_MOVE(__tmp);
   125cc:	10c00215 	stw	r3,8(r2)
      __a = _GLIBCXX_MOVE(__b);
   125d0:	d9401215 	stw	r5,72(sp)
      __b = _GLIBCXX_MOVE(__tmp);
   125d4:	11000315 	stw	r4,12(r2)
      if (_M_manager)
   125d8:	38000526 	beq	r7,zero,125f0 <_ZN6Serial4UARTC1ESt8functionIFvRNS_7messageEEE+0xd8>
	_M_manager(_M_functor, _M_functor, __destroy_functor);
   125dc:	d9400f04 	addi	r5,sp,60
   125e0:	d8000315 	stw	zero,12(sp)
   125e4:	018000c4 	movi	r6,3
   125e8:	2809883a 	mov	r4,r5
   125ec:	383ee83a 	callr	r7
{
	callback = func;

	// Clear status flag.
	IOWR_ALTERA_AVALON_UART_STATUS(UART_0_BASE, 0x00);
   125f0:	008000b4 	movhi	r2,2
   125f4:	100a0a35 	stwio	zero,10280(r2)

	// Read the useless value in the empty receive register.
	IORD_ALTERA_AVALON_UART_RXDATA(UART_0_BASE);
   125f8:	108a0837 	ldwio	r2,10272(r2)

	// Setup RX IRQ routine.
	alt_u16 control = ALTERA_AVALON_UART_CONTROL_RRDY_MSK | ALTERA_AVALON_UART_CONTROL_E_MSK;
	IOWR_ALTERA_AVALON_UART_CONTROL (UART_0_BASE, control);
   125fc:	00c06004 	movi	r3,384
   12600:	008000b4 	movhi	r2,2
   12604:	10ca0b35 	stwio	r3,10284(r2)

	// Install IRQ service routine.
    alt_ic_isr_register(UART_0_IRQ_INTERRUPT_CONTROLLER_ID, UART_0_IRQ, uart_0_isr, NULL, NULL);
   12608:	01800074 	movhi	r6,1
   1260c:	d8000015 	stw	zero,0(sp)
   12610:	000f883a 	mov	r7,zero
   12614:	31891c04 	addi	r6,r6,9328
   12618:	01400104 	movi	r5,4
   1261c:	0009883a 	mov	r4,zero
   12620:	00bfffc4 	movi	r2,-1
   12624:	d8800315 	stw	r2,12(sp)
   12628:	00176cc0 	call	176cc <alt_ic_isr_register>

    // Enable interrupt.
	IOWR_ALTERA_AVALON_UART_CONTROL(UART_0_BASE, ALTERA_AVALON_UART_CONTROL_RRDY_MSK);
   1262c:	00c02004 	movi	r3,128
   12630:	008000b4 	movhi	r2,2
   12634:	10ca0b35 	stwio	r3,10284(r2)
   12638:	d9000204 	addi	r4,sp,8
   1263c:	0016bd00 	call	16bd0 <_Unwind_SjLj_Unregister>
}
   12640:	dfc01417 	ldw	ra,80(sp)
   12644:	df001317 	ldw	fp,76(sp)
   12648:	dec01504 	addi	sp,sp,84
   1264c:	f800283a 	ret
      _Tp __tmp = _GLIBCXX_MOVE(__a);
   12650:	d9001217 	ldw	r4,72(sp)
   12654:	003fce06 	br	12590 <_ZN6Serial4UARTC1ESt8functionIFvRNS_7messageEEE+0x78>
    : _Function_base()
   12658:	d8800417 	ldw	r2,16(sp)
   1265c:	d8c00f04 	addi	r3,sp,60
   12660:	1809883a 	mov	r4,r3
   12664:	d8800115 	stw	r2,4(sp)
   12668:	0011d080 	call	11d08 <_ZNSt14_Function_baseD1Ev>
   1266c:	d9000117 	ldw	r4,4(sp)
   12670:	00bfffc4 	movi	r2,-1
   12674:	d8800315 	stw	r2,12(sp)
   12678:	0016da00 	call	16da0 <_Unwind_SjLj_Resume>

0001267c <_ZN6Serial4UART8sendDataENS_7messageE>:


void Serial::UART::sendData(message msg)
{
   1267c:	defffd04 	addi	sp,sp,-12
	  // trivial types can have deleted assignment
	  static_assert( __assignable::type::value, "type is not assignable" );
#endif
	  const ptrdiff_t _Num = __last - __first;
	  if (_Num)
	    __builtin_memmove(__result, __first, sizeof(_Tp) * _Num);
   12680:	d9400115 	stw	r5,4(sp)
    std::copy(
            reinterpret_cast<uint8_t *>(&msg),
            reinterpret_cast<uint8_t *>(&msg) + 4,
            &temp[0]
    );
    return temp;
   12684:	d9400215 	stw	r5,8(sp)
	std::array<uint8_t, 4> data	= convertToArray(msg);
   12688:	d9400015 	stw	r5,0(sp)
	for (uint8_t data_byte : data)
   1268c:	d807883a 	mov	r3,sp
   12690:	d9400104 	addi	r5,sp,4
   12694:	19000003 	ldbu	r4,0(r3)
		alt_u8 status = IORD_ALTERA_AVALON_UART_STATUS (UART_0_BASE);
   12698:	008000b4 	movhi	r2,2
   1269c:	108a0a37 	ldwio	r2,10280(r2)
		while (! (status & ALTERA_AVALON_UART_STATUS_TRDY_MSK))
   126a0:	1080100c 	andi	r2,r2,64
   126a4:	103ffc26 	beq	r2,zero,12698 <_ZN6Serial4UART8sendDataENS_7messageE+0x1c>
		IOWR_ALTERA_AVALON_UART_TXDATA(UART_0_BASE, data_byte);
   126a8:	20803fcc 	andi	r2,r4,255
   126ac:	010000b4 	movhi	r4,2
   126b0:	208a0935 	stwio	r2,10276(r4)
	for (uint8_t data_byte : data)
   126b4:	18c00044 	addi	r3,r3,1
   126b8:	197ff61e 	bne	r3,r5,12694 <_ZN6Serial4UART8sendDataENS_7messageE+0x18>
}
   126bc:	dec00304 	addi	sp,sp,12
   126c0:	f800283a 	ret

000126c4 <_ZN6Serial4UART14convertToArrayENS_7messageE>:
{
   126c4:	defffd04 	addi	sp,sp,-12
    return temp;
   126c8:	d9400215 	stw	r5,8(sp)
   126cc:	d9000243 	ldbu	r4,9(sp)
   126d0:	d8c00283 	ldbu	r3,10(sp)
   126d4:	d88002c3 	ldbu	r2,11(sp)
   126d8:	2008923a 	slli	r4,r4,8
   126dc:	1806943a 	slli	r3,r3,16
   126e0:	1004963a 	slli	r2,r2,24
   126e4:	29403fcc 	andi	r5,r5,255
   126e8:	290ab03a 	or	r5,r5,r4
   126ec:	28cab03a 	or	r5,r5,r3
}
   126f0:	2884b03a 	or	r2,r5,r2
   126f4:	dec00304 	addi	sp,sp,12
   126f8:	f800283a 	ret

000126fc <_GLOBAL__sub_I__ZN6Serial4UART10uart_readyE>:
    _Function_base() : _M_manager(nullptr) { }
   126fc:	008000b4 	movhi	r2,2
   12700:	1027cc15 	stw	zero,-24784(r2)
   12704:	f800283a 	ret

00012708 <_GLOBAL__sub_D__ZN6Serial4UART10uart_readyE>:
    class function<_Res(_ArgTypes...)>
   12708:	010000b4 	movhi	r4,2
   1270c:	2127ca04 	addi	r4,r4,-24792
   12710:	0011d081 	jmpi	11d08 <_ZNSt14_Function_baseD1Ev>

00012714 <_ZN5Timer11timer_0_isrEPv>:
std::function<void()> Timer::callback;

void Timer::timer_0_isr(void* timer_isr_context)
{
    // Answer interrupt, clear STATUS register.
	IOWR_ALTERA_AVALON_TIMER_STATUS(TIMER_0_BASE,
   12714:	00ffff84 	movi	r3,-2
   12718:	008000b4 	movhi	r2,2
   1271c:	10ca0035 	stwio	r3,10240(r2)
    bool _M_empty() const { return !_M_manager; }
   12720:	010000b4 	movhi	r4,2
   12724:	2127ce04 	addi	r4,r4,-24776
      if (_M_empty())
   12728:	20800217 	ldw	r2,8(r4)
   1272c:	10000226 	beq	r2,zero,12738 <_ZN5Timer11timer_0_isrEPv+0x24>
      return _M_invoker(_M_functor, std::forward<_ArgTypes>(__args)...);
   12730:	20800317 	ldw	r2,12(r4)
   12734:	1000683a 	jmp	r2
{
   12738:	deffff04 	addi	sp,sp,-4
   1273c:	dfc00015 	stw	ra,0(sp)
	__throw_bad_function_call();
   12740:	0014a580 	call	14a58 <_ZSt25__throw_bad_function_callv>

00012744 <_ZN5TimerC1ESt8functionIFvvEE>:

	// Call callback.
	callback();
}

Timer::Timer(std::function<void ()> func)
   12744:	deffec04 	addi	sp,sp,-80
   12748:	01800074 	movhi	r6,1
   1274c:	00c000b4 	movhi	r3,2
   12750:	00800074 	movhi	r2,1
   12754:	18e1ce84 	addi	r3,r3,-30918
   12758:	108a0f04 	addi	r2,r2,10300
   1275c:	318c2104 	addi	r6,r6,12420
   12760:	d9000104 	addi	r4,sp,4
   12764:	d8c00815 	stw	r3,32(sp)
   12768:	d8800a15 	stw	r2,40(sp)
   1276c:	dfc01315 	stw	ra,76(sp)
   12770:	df001215 	stw	fp,72(sp)
   12774:	d9400015 	stw	r5,0(sp)
   12778:	d9800715 	stw	r6,28(sp)
   1277c:	df000915 	stw	fp,36(sp)
   12780:	dec00b15 	stw	sp,44(sp)
   12784:	0016bb80 	call	16bb8 <_Unwind_SjLj_Register>
    bool _M_empty() const { return !_M_manager; }
   12788:	d8800017 	ldw	r2,0(sp)
    _Function_base() : _M_manager(nullptr) { }
   1278c:	d8001015 	stw	zero,64(sp)
    bool _M_empty() const { return !_M_manager; }
   12790:	10c00217 	ldw	r3,8(r2)
      if (static_cast<bool>(__x))
   12794:	18002726 	beq	r3,zero,12834 <_ZN5TimerC1ESt8functionIFvvEE+0xf0>
	  __x._M_manager(_M_functor, __x._M_functor, __clone_functor);
   12798:	d9400017 	ldw	r5,0(sp)
   1279c:	00800044 	movi	r2,1
   127a0:	d8800215 	stw	r2,8(sp)
   127a4:	01800084 	movi	r6,2
   127a8:	d9000e04 	addi	r4,sp,56
   127ac:	183ee83a 	callr	r3
	  _M_invoker = __x._M_invoker;
   127b0:	d8800017 	ldw	r2,0(sp)
   127b4:	11000317 	ldw	r4,12(r2)
	  _M_manager = __x._M_manager;
   127b8:	10c00217 	ldw	r3,8(r2)
      __a = _GLIBCXX_MOVE(__b);
   127bc:	008000b4 	movhi	r2,2
   127c0:	10a7ce04 	addi	r2,r2,-24776
      __b = _GLIBCXX_MOVE(__tmp);
   127c4:	dac00e17 	ldw	r11,56(sp)
      __a = _GLIBCXX_MOVE(__b);
   127c8:	014000b4 	movhi	r5,2
   127cc:	2a67ce17 	ldw	r9,-24776(r5)
   127d0:	12000117 	ldw	r8,4(r2)
      _Tp __tmp = _GLIBCXX_MOVE(__a);
   127d4:	d9800f17 	ldw	r6,60(sp)
      __a = _GLIBCXX_MOVE(__b);
   127d8:	11c00217 	ldw	r7,8(r2)
   127dc:	11400317 	ldw	r5,12(r2)
      __b = _GLIBCXX_MOVE(__tmp);
   127e0:	028000b4 	movhi	r10,2
   127e4:	52e7ce15 	stw	r11,-24776(r10)
      __a = _GLIBCXX_MOVE(__b);
   127e8:	da400e15 	stw	r9,56(sp)
   127ec:	da000f15 	stw	r8,60(sp)
      __b = _GLIBCXX_MOVE(__tmp);
   127f0:	11800115 	stw	r6,4(r2)
      __a = _GLIBCXX_MOVE(__b);
   127f4:	d9c01015 	stw	r7,64(sp)
      __b = _GLIBCXX_MOVE(__tmp);
   127f8:	10c00215 	stw	r3,8(r2)
      __a = _GLIBCXX_MOVE(__b);
   127fc:	d9401115 	stw	r5,68(sp)
      __b = _GLIBCXX_MOVE(__tmp);
   12800:	11000315 	stw	r4,12(r2)
      if (_M_manager)
   12804:	38000526 	beq	r7,zero,1281c <_ZN5TimerC1ESt8functionIFvvEE+0xd8>
	_M_manager(_M_functor, _M_functor, __destroy_functor);
   12808:	d9400e04 	addi	r5,sp,56
   1280c:	d8000215 	stw	zero,8(sp)
   12810:	018000c4 	movi	r6,3
   12814:	2809883a 	mov	r4,r5
   12818:	383ee83a 	callr	r7
   1281c:	d9000104 	addi	r4,sp,4
   12820:	0016bd00 	call	16bd0 <_Unwind_SjLj_Unregister>
{
	callback = func;
}
   12824:	dfc01317 	ldw	ra,76(sp)
   12828:	df001217 	ldw	fp,72(sp)
   1282c:	dec01404 	addi	sp,sp,80
   12830:	f800283a 	ret
      _Tp __tmp = _GLIBCXX_MOVE(__a);
   12834:	d9001117 	ldw	r4,68(sp)
   12838:	003fe006 	br	127bc <_ZN5TimerC1ESt8functionIFvvEE+0x78>
    : _Function_base()
   1283c:	d8800317 	ldw	r2,12(sp)
   12840:	d8c00e04 	addi	r3,sp,56
   12844:	1809883a 	mov	r4,r3
   12848:	d8800015 	stw	r2,0(sp)
   1284c:	0011d080 	call	11d08 <_ZNSt14_Function_baseD1Ev>
   12850:	d9000017 	ldw	r4,0(sp)
   12854:	00bfffc4 	movi	r2,-1
   12858:	d8800215 	stw	r2,8(sp)
   1285c:	0016da00 	call	16da0 <_Unwind_SjLj_Resume>

00012860 <_ZN5Timer6enableEv>:

void Timer::enable()
{
   12860:	defffe04 	addi	sp,sp,-8
   12864:	dfc00115 	stw	ra,4(sp)
	IOWR_ALTERA_AVALON_TIMER_CONTROL(TIMER_0_BASE,
   12868:	00c001c4 	movi	r3,7
   1286c:	008000b4 	movhi	r2,2
   12870:	10ca0135 	stwio	r3,10244(r2)
		ALTERA_AVALON_TIMER_CONTROL_CONT_MSK  | // CONT  = 1
		ALTERA_AVALON_TIMER_CONTROL_ITO_MSK);   // ITO   = 1

	void* isr_context_ptr = (void*) &timer_isr_context;

	alt_ic_isr_register(
   12874:	01800074 	movhi	r6,1
   12878:	d8000015 	stw	zero,0(sp)
   1287c:	d1e21304 	addi	r7,gp,-30644
   12880:	3189c504 	addi	r6,r6,10004
   12884:	014000c4 	movi	r5,3
   12888:	0009883a 	mov	r4,zero
   1288c:	00176cc0 	call	176cc <alt_ic_isr_register>
		TIMER_0_IRQ_INTERRUPT_CONTROLLER_ID, // interrupt controller label, copied from system.h
		TIMER_0_IRQ, // hardware interrupt number, copied from system.h
		timer_0_isr, // interrupt service subfunction
		isr_context_ptr, // points to the data structure related to the device driver instance
		0x0); // flags, reserved unused
}
   12890:	dfc00117 	ldw	ra,4(sp)
   12894:	dec00204 	addi	sp,sp,8
   12898:	f800283a 	ret

0001289c <_GLOBAL__sub_I__ZN5Timer17timer_isr_contextE>:
    _Function_base() : _M_manager(nullptr) { }
   1289c:	008000b4 	movhi	r2,2
   128a0:	1027d015 	stw	zero,-24768(r2)
   128a4:	f800283a 	ret

000128a8 <_GLOBAL__sub_D__ZN5Timer17timer_isr_contextE>:
    class function<_Res(_ArgTypes...)>
   128a8:	010000b4 	movhi	r4,2
   128ac:	2127ce04 	addi	r4,r4,-24776
   128b0:	0011d081 	jmpi	11d08 <_ZNSt14_Function_baseD1Ev>

000128b4 <_ZNK10__cxxabiv117__class_type_info11__do_upcastEPKS0_PPv>:
   128b4:	20800017 	ldw	r2,0(r4)
   128b8:	defffa04 	addi	sp,sp,-24
   128bc:	dc000415 	stw	r16,16(sp)
   128c0:	10800617 	ldw	r2,24(r2)
   128c4:	3021883a 	mov	r16,r6
   128c8:	31800017 	ldw	r6,0(r6)
   128cc:	00c00404 	movi	r3,16
   128d0:	dfc00515 	stw	ra,20(sp)
   128d4:	d8000015 	stw	zero,0(sp)
   128d8:	d8000115 	stw	zero,4(sp)
   128dc:	d8c00215 	stw	r3,8(sp)
   128e0:	d8000315 	stw	zero,12(sp)
   128e4:	d80f883a 	mov	r7,sp
   128e8:	103ee83a 	callr	r2
   128ec:	d8800117 	ldw	r2,4(sp)
   128f0:	1080018c 	andi	r2,r2,6
   128f4:	10800198 	cmpnei	r2,r2,6
   128f8:	1000071e 	bne	r2,zero,12918 <_ZNK10__cxxabiv117__class_type_info11__do_upcastEPKS0_PPv+0x64>
   128fc:	d8c00017 	ldw	r3,0(sp)
   12900:	00800044 	movi	r2,1
   12904:	80c00015 	stw	r3,0(r16)
   12908:	dfc00517 	ldw	ra,20(sp)
   1290c:	dc000417 	ldw	r16,16(sp)
   12910:	dec00604 	addi	sp,sp,24
   12914:	f800283a 	ret
   12918:	0005883a 	mov	r2,zero
   1291c:	dfc00517 	ldw	ra,20(sp)
   12920:	dc000417 	ldw	r16,16(sp)
   12924:	dec00604 	addi	sp,sp,24
   12928:	f800283a 	ret

0001292c <_ZNK10__cxxabiv117__class_type_info20__do_find_public_srcEiPKvPKS0_S2_>:
   1292c:	d8c00017 	ldw	r3,0(sp)
   12930:	00800044 	movi	r2,1
   12934:	19800126 	beq	r3,r6,1293c <_ZNK10__cxxabiv117__class_type_info20__do_find_public_srcEiPKvPKS0_S2_+0x10>
   12938:	f800283a 	ret
   1293c:	00800184 	movi	r2,6
   12940:	f800283a 	ret

00012944 <_ZN10__cxxabiv117__class_type_infoD1Ev>:
   12944:	008000b4 	movhi	r2,2
   12948:	10a25004 	addi	r2,r2,-30400
   1294c:	20800015 	stw	r2,0(r4)
   12950:	0013fb81 	jmpi	13fb8 <_ZNSt9type_infoD1Ev>

00012954 <_ZN10__cxxabiv117__class_type_infoD0Ev>:
   12954:	defffe04 	addi	sp,sp,-8
   12958:	008000b4 	movhi	r2,2
   1295c:	dc000015 	stw	r16,0(sp)
   12960:	dfc00115 	stw	ra,4(sp)
   12964:	10a25004 	addi	r2,r2,-30400
   12968:	20800015 	stw	r2,0(r4)
   1296c:	2021883a 	mov	r16,r4
   12970:	0013fb80 	call	13fb8 <_ZNSt9type_infoD1Ev>
   12974:	01400204 	movi	r5,8
   12978:	8009883a 	mov	r4,r16
   1297c:	dfc00117 	ldw	ra,4(sp)
   12980:	dc000017 	ldw	r16,0(sp)
   12984:	dec00204 	addi	sp,sp,8
   12988:	0012b581 	jmpi	12b58 <_ZdlPvj>

0001298c <_ZNK10__cxxabiv117__class_type_info11__do_upcastEPKS0_PKvRNS0_15__upcast_resultE>:
   1298c:	21000117 	ldw	r4,4(r4)
   12990:	29400117 	ldw	r5,4(r5)
   12994:	defffd04 	addi	sp,sp,-12
   12998:	dc400115 	stw	r17,4(sp)
   1299c:	dc000015 	stw	r16,0(sp)
   129a0:	dfc00215 	stw	ra,8(sp)
   129a4:	3023883a 	mov	r17,r6
   129a8:	3821883a 	mov	r16,r7
   129ac:	21400526 	beq	r4,r5,129c4 <_ZNK10__cxxabiv117__class_type_info11__do_upcastEPKS0_PKvRNS0_15__upcast_resultE+0x38>
   129b0:	20800007 	ldb	r2,0(r4)
   129b4:	10800aa0 	cmpeqi	r2,r2,42
   129b8:	10000d1e 	bne	r2,zero,129f0 <_ZNK10__cxxabiv117__class_type_info11__do_upcastEPKS0_PKvRNS0_15__upcast_resultE+0x64>
   129bc:	001766c0 	call	1766c <strcmp>
   129c0:	10000b1e 	bne	r2,zero,129f0 <_ZNK10__cxxabiv117__class_type_info11__do_upcastEPKS0_PKvRNS0_15__upcast_resultE+0x64>
   129c4:	00800204 	movi	r2,8
   129c8:	80800315 	stw	r2,12(r16)
   129cc:	00800184 	movi	r2,6
   129d0:	80800115 	stw	r2,4(r16)
   129d4:	84400015 	stw	r17,0(r16)
   129d8:	00800044 	movi	r2,1
   129dc:	dfc00217 	ldw	ra,8(sp)
   129e0:	dc400117 	ldw	r17,4(sp)
   129e4:	dc000017 	ldw	r16,0(sp)
   129e8:	dec00304 	addi	sp,sp,12
   129ec:	f800283a 	ret
   129f0:	0005883a 	mov	r2,zero
   129f4:	003ff906 	br	129dc <_ZNK10__cxxabiv117__class_type_info11__do_upcastEPKS0_PKvRNS0_15__upcast_resultE+0x50>

000129f8 <_ZNK10__cxxabiv117__class_type_info10__do_catchEPKSt9type_infoPPvj>:
   129f8:	defffb04 	addi	sp,sp,-20
   129fc:	dc800315 	stw	r18,12(sp)
   12a00:	dc400215 	stw	r17,8(sp)
   12a04:	2025883a 	mov	r18,r4
   12a08:	2823883a 	mov	r17,r5
   12a0c:	21000117 	ldw	r4,4(r4)
   12a10:	29400117 	ldw	r5,4(r5)
   12a14:	dfc00415 	stw	ra,16(sp)
   12a18:	dc000115 	stw	r16,4(sp)
   12a1c:	21400826 	beq	r4,r5,12a40 <_ZNK10__cxxabiv117__class_type_info10__do_catchEPKSt9type_infoPPvj+0x48>
   12a20:	20800007 	ldb	r2,0(r4)
   12a24:	3821883a 	mov	r16,r7
   12a28:	10800aa0 	cmpeqi	r2,r2,42
   12a2c:	10000b1e 	bne	r2,zero,12a5c <_ZNK10__cxxabiv117__class_type_info10__do_catchEPKSt9type_infoPPvj+0x64>
   12a30:	d9800015 	stw	r6,0(sp)
   12a34:	001766c0 	call	1766c <strcmp>
   12a38:	d9800017 	ldw	r6,0(sp)
   12a3c:	1000071e 	bne	r2,zero,12a5c <_ZNK10__cxxabiv117__class_type_info10__do_catchEPKSt9type_infoPPvj+0x64>
   12a40:	00800044 	movi	r2,1
   12a44:	dfc00417 	ldw	ra,16(sp)
   12a48:	dc800317 	ldw	r18,12(sp)
   12a4c:	dc400217 	ldw	r17,8(sp)
   12a50:	dc000117 	ldw	r16,4(sp)
   12a54:	dec00504 	addi	sp,sp,20
   12a58:	f800283a 	ret
   12a5c:	81c00128 	cmpgeui	r7,r16,4
   12a60:	38000a1e 	bne	r7,zero,12a8c <_ZNK10__cxxabiv117__class_type_info10__do_catchEPKSt9type_infoPPvj+0x94>
   12a64:	88800017 	ldw	r2,0(r17)
   12a68:	900b883a 	mov	r5,r18
   12a6c:	8809883a 	mov	r4,r17
   12a70:	10800517 	ldw	r2,20(r2)
   12a74:	dfc00417 	ldw	ra,16(sp)
   12a78:	dc800317 	ldw	r18,12(sp)
   12a7c:	dc400217 	ldw	r17,8(sp)
   12a80:	dc000117 	ldw	r16,4(sp)
   12a84:	dec00504 	addi	sp,sp,20
   12a88:	1000683a 	jmp	r2
   12a8c:	0005883a 	mov	r2,zero
   12a90:	003fec06 	br	12a44 <_ZNK10__cxxabiv117__class_type_info10__do_catchEPKSt9type_infoPPvj+0x4c>

00012a94 <_ZNK10__cxxabiv117__class_type_info12__do_dyncastEiNS0_10__sub_kindEPKS0_PKvS3_S5_RNS0_16__dyncast_resultE>:
   12a94:	defffa04 	addi	sp,sp,-24
   12a98:	dc400315 	stw	r17,12(sp)
   12a9c:	d8800817 	ldw	r2,32(sp)
   12aa0:	dc400617 	ldw	r17,24(sp)
   12aa4:	dc800415 	stw	r18,16(sp)
   12aa8:	dc000215 	stw	r16,8(sp)
   12aac:	dfc00515 	stw	ra,20(sp)
   12ab0:	dc800917 	ldw	r18,36(sp)
   12ab4:	21000117 	ldw	r4,4(r4)
   12ab8:	3021883a 	mov	r16,r6
   12abc:	88801226 	beq	r17,r2,12b08 <_ZNK10__cxxabiv117__class_type_info12__do_dyncastEiNS0_10__sub_kindEPKS0_PKvS3_S5_RNS0_16__dyncast_resultE+0x74>
   12ac0:	39400117 	ldw	r5,4(r7)
   12ac4:	21400526 	beq	r4,r5,12adc <_ZNK10__cxxabiv117__class_type_info12__do_dyncastEiNS0_10__sub_kindEPKS0_PKvS3_S5_RNS0_16__dyncast_resultE+0x48>
   12ac8:	20800007 	ldb	r2,0(r4)
   12acc:	10800aa0 	cmpeqi	r2,r2,42
   12ad0:	1000061e 	bne	r2,zero,12aec <_ZNK10__cxxabiv117__class_type_info12__do_dyncastEiNS0_10__sub_kindEPKS0_PKvS3_S5_RNS0_16__dyncast_resultE+0x58>
   12ad4:	001766c0 	call	1766c <strcmp>
   12ad8:	1000041e 	bne	r2,zero,12aec <_ZNK10__cxxabiv117__class_type_info12__do_dyncastEiNS0_10__sub_kindEPKS0_PKvS3_S5_RNS0_16__dyncast_resultE+0x58>
   12adc:	00800044 	movi	r2,1
   12ae0:	94400015 	stw	r17,0(r18)
   12ae4:	94000115 	stw	r16,4(r18)
   12ae8:	90800315 	stw	r2,12(r18)
   12aec:	0005883a 	mov	r2,zero
   12af0:	dfc00517 	ldw	ra,20(sp)
   12af4:	dc800417 	ldw	r18,16(sp)
   12af8:	dc400317 	ldw	r17,12(sp)
   12afc:	dc000217 	ldw	r16,8(sp)
   12b00:	dec00604 	addi	sp,sp,24
   12b04:	f800283a 	ret
   12b08:	d8800717 	ldw	r2,28(sp)
   12b0c:	11400117 	ldw	r5,4(r2)
   12b10:	21400f26 	beq	r4,r5,12b50 <_ZNK10__cxxabiv117__class_type_info12__do_dyncastEiNS0_10__sub_kindEPKS0_PKvS3_S5_RNS0_16__dyncast_resultE+0xbc>
   12b14:	20800007 	ldb	r2,0(r4)
   12b18:	10800aa0 	cmpeqi	r2,r2,42
   12b1c:	1000091e 	bne	r2,zero,12b44 <_ZNK10__cxxabiv117__class_type_info12__do_dyncastEiNS0_10__sub_kindEPKS0_PKvS3_S5_RNS0_16__dyncast_resultE+0xb0>
   12b20:	d9c00115 	stw	r7,4(sp)
   12b24:	d9000015 	stw	r4,0(sp)
   12b28:	001766c0 	call	1766c <strcmp>
   12b2c:	d9000017 	ldw	r4,0(sp)
   12b30:	d9c00117 	ldw	r7,4(sp)
   12b34:	10000626 	beq	r2,zero,12b50 <_ZNK10__cxxabiv117__class_type_info12__do_dyncastEiNS0_10__sub_kindEPKS0_PKvS3_S5_RNS0_16__dyncast_resultE+0xbc>
   12b38:	39400117 	ldw	r5,4(r7)
   12b3c:	217fe51e 	bne	r4,r5,12ad4 <_ZNK10__cxxabiv117__class_type_info12__do_dyncastEiNS0_10__sub_kindEPKS0_PKvS3_S5_RNS0_16__dyncast_resultE+0x40>
   12b40:	003fe606 	br	12adc <_ZNK10__cxxabiv117__class_type_info12__do_dyncastEiNS0_10__sub_kindEPKS0_PKvS3_S5_RNS0_16__dyncast_resultE+0x48>
   12b44:	38800117 	ldw	r2,4(r7)
   12b48:	20bfe81e 	bne	r4,r2,12aec <_ZNK10__cxxabiv117__class_type_info12__do_dyncastEiNS0_10__sub_kindEPKS0_PKvS3_S5_RNS0_16__dyncast_resultE+0x58>
   12b4c:	003fe306 	br	12adc <_ZNK10__cxxabiv117__class_type_info12__do_dyncastEiNS0_10__sub_kindEPKS0_PKvS3_S5_RNS0_16__dyncast_resultE+0x48>
   12b50:	94000215 	stw	r16,8(r18)
   12b54:	003fe506 	br	12aec <_ZNK10__cxxabiv117__class_type_info12__do_dyncastEiNS0_10__sub_kindEPKS0_PKvS3_S5_RNS0_16__dyncast_resultE+0x58>

00012b58 <_ZdlPvj>:
   12b58:	0014a8c1 	jmpi	14a8c <_ZdlPv>

00012b5c <_ZdaPv>:
   12b5c:	0014a8c1 	jmpi	14a8c <_ZdlPv>

00012b60 <_ZL16get_adjusted_ptrPKSt9type_infoS1_PPv>:
   12b60:	28800017 	ldw	r2,0(r5)
   12b64:	30c00017 	ldw	r3,0(r6)
   12b68:	defffb04 	addi	sp,sp,-20
   12b6c:	10800217 	ldw	r2,8(r2)
   12b70:	dc800315 	stw	r18,12(sp)
   12b74:	dc400215 	stw	r17,8(sp)
   12b78:	dc000115 	stw	r16,4(sp)
   12b7c:	dfc00415 	stw	ra,16(sp)
   12b80:	2023883a 	mov	r17,r4
   12b84:	d8c00015 	stw	r3,0(sp)
   12b88:	2809883a 	mov	r4,r5
   12b8c:	2821883a 	mov	r16,r5
   12b90:	3025883a 	mov	r18,r6
   12b94:	103ee83a 	callr	r2
   12b98:	10803fcc 	andi	r2,r2,255
   12b9c:	10000326 	beq	r2,zero,12bac <_ZL16get_adjusted_ptrPKSt9type_infoS1_PPv+0x4c>
   12ba0:	d8800017 	ldw	r2,0(sp)
   12ba4:	10800017 	ldw	r2,0(r2)
   12ba8:	d8800015 	stw	r2,0(sp)
   12bac:	88800017 	ldw	r2,0(r17)
   12bb0:	01c00044 	movi	r7,1
   12bb4:	d80d883a 	mov	r6,sp
   12bb8:	10800417 	ldw	r2,16(r2)
   12bbc:	800b883a 	mov	r5,r16
   12bc0:	8809883a 	mov	r4,r17
   12bc4:	103ee83a 	callr	r2
   12bc8:	10c03fcc 	andi	r3,r2,255
   12bcc:	18000226 	beq	r3,zero,12bd8 <_ZL16get_adjusted_ptrPKSt9type_infoS1_PPv+0x78>
   12bd0:	d8c00017 	ldw	r3,0(sp)
   12bd4:	90c00015 	stw	r3,0(r18)
   12bd8:	dfc00417 	ldw	ra,16(sp)
   12bdc:	dc800317 	ldw	r18,12(sp)
   12be0:	dc400217 	ldw	r17,8(sp)
   12be4:	dc000117 	ldw	r16,4(sp)
   12be8:	dec00504 	addi	sp,sp,20
   12bec:	f800283a 	ret

00012bf0 <_ZL28read_encoded_value_with_basehjPKhPj>:
   12bf0:	20803fcc 	andi	r2,r4,255
   12bf4:	10801418 	cmpnei	r2,r2,80
   12bf8:	10002c26 	beq	r2,zero,12cac <_ZL28read_encoded_value_with_basehjPKhPj+0xbc>
   12bfc:	208003cc 	andi	r2,r4,15
   12c00:	10c00368 	cmpgeui	r3,r2,13
   12c04:	1800711e 	bne	r3,zero,12dcc <_ZL28read_encoded_value_with_basehjPKhPj+0x1dc>
   12c08:	100490ba 	slli	r2,r2,2
   12c0c:	00c00074 	movhi	r3,1
   12c10:	10c7883a 	add	r3,r2,r3
   12c14:	188b0717 	ldw	r2,11292(r3)
   12c18:	1000683a 	jmp	r2
   12c1c:	00012c50 	cmplti	zero,zero,1201
   12c20:	00012d40 	call	12d4 <__alt_mem_onchip_mem-0xed2c>
   12c24:	00012d04 	movi	zero,1204
   12c28:	00012c50 	cmplti	zero,zero,1201
   12c2c:	00012cd4 	movui	zero,1203
   12c30:	00012dcc 	andi	zero,zero,1207
   12c34:	00012dcc 	andi	zero,zero,1207
   12c38:	00012dcc 	andi	zero,zero,1207
   12c3c:	00012dcc 	andi	zero,zero,1207
   12c40:	00012d78 	rdprs	zero,zero,1205
   12c44:	00012d1c 	xori	zero,zero,1204
   12c48:	00012c50 	cmplti	zero,zero,1201
   12c4c:	00012cd4 	movui	zero,1203
   12c50:	32000043 	ldbu	r8,1(r6)
   12c54:	30800083 	ldbu	r2,2(r6)
   12c58:	30c000c3 	ldbu	r3,3(r6)
   12c5c:	32400003 	ldbu	r9,0(r6)
   12c60:	4010923a 	slli	r8,r8,8
   12c64:	1004943a 	slli	r2,r2,16
   12c68:	1806963a 	slli	r3,r3,24
   12c6c:	4250b03a 	or	r8,r8,r9
   12c70:	1204b03a 	or	r2,r2,r8
   12c74:	1886b03a 	or	r3,r3,r2
   12c78:	30800104 	addi	r2,r6,4
   12c7c:	18000926 	beq	r3,zero,12ca4 <_ZL28read_encoded_value_with_basehjPKhPj+0xb4>
   12c80:	22001c0c 	andi	r8,r4,112
   12c84:	42000418 	cmpnei	r8,r8,16
   12c88:	4000011e 	bne	r8,zero,12c90 <_ZL28read_encoded_value_with_basehjPKhPj+0xa0>
   12c8c:	300b883a 	mov	r5,r6
   12c90:	21003fcc 	andi	r4,r4,255
   12c94:	2100201c 	xori	r4,r4,128
   12c98:	213fe004 	addi	r4,r4,-128
   12c9c:	1947883a 	add	r3,r3,r5
   12ca0:	20000916 	blt	r4,zero,12cc8 <_ZL28read_encoded_value_with_basehjPKhPj+0xd8>
   12ca4:	38c00015 	stw	r3,0(r7)
   12ca8:	f800283a 	ret
   12cac:	308000c4 	addi	r2,r6,3
   12cb0:	01bfff04 	movi	r6,-4
   12cb4:	1184703a 	and	r2,r2,r6
   12cb8:	10c00017 	ldw	r3,0(r2)
   12cbc:	10800104 	addi	r2,r2,4
   12cc0:	38c00015 	stw	r3,0(r7)
   12cc4:	f800283a 	ret
   12cc8:	18c00017 	ldw	r3,0(r3)
   12ccc:	38c00015 	stw	r3,0(r7)
   12cd0:	f800283a 	ret
   12cd4:	32000043 	ldbu	r8,1(r6)
   12cd8:	30800083 	ldbu	r2,2(r6)
   12cdc:	30c000c3 	ldbu	r3,3(r6)
   12ce0:	32400003 	ldbu	r9,0(r6)
   12ce4:	4010923a 	slli	r8,r8,8
   12ce8:	1004943a 	slli	r2,r2,16
   12cec:	1806963a 	slli	r3,r3,24
   12cf0:	4250b03a 	or	r8,r8,r9
   12cf4:	1204b03a 	or	r2,r2,r8
   12cf8:	1886b03a 	or	r3,r3,r2
   12cfc:	30800204 	addi	r2,r6,8
   12d00:	003fde06 	br	12c7c <_ZL28read_encoded_value_with_basehjPKhPj+0x8c>
   12d04:	30c00043 	ldbu	r3,1(r6)
   12d08:	32000003 	ldbu	r8,0(r6)
   12d0c:	30800084 	addi	r2,r6,2
   12d10:	1806923a 	slli	r3,r3,8
   12d14:	1a06b03a 	or	r3,r3,r8
   12d18:	003fd806 	br	12c7c <_ZL28read_encoded_value_with_basehjPKhPj+0x8c>
   12d1c:	30c00043 	ldbu	r3,1(r6)
   12d20:	32000003 	ldbu	r8,0(r6)
   12d24:	30800084 	addi	r2,r6,2
   12d28:	1806923a 	slli	r3,r3,8
   12d2c:	1a06b03a 	or	r3,r3,r8
   12d30:	18ffffcc 	andi	r3,r3,65535
   12d34:	18e0001c 	xori	r3,r3,32768
   12d38:	18e00004 	addi	r3,r3,-32768
   12d3c:	003fcf06 	br	12c7c <_ZL28read_encoded_value_with_basehjPKhPj+0x8c>
   12d40:	3005883a 	mov	r2,r6
   12d44:	0007883a 	mov	r3,zero
   12d48:	0015883a 	mov	r10,zero
   12d4c:	12000003 	ldbu	r8,0(r2)
   12d50:	10800044 	addi	r2,r2,1
   12d54:	42401fcc 	andi	r9,r8,127
   12d58:	4a92983a 	sll	r9,r9,r10
   12d5c:	42003fcc 	andi	r8,r8,255
   12d60:	4200201c 	xori	r8,r8,128
   12d64:	423fe004 	addi	r8,r8,-128
   12d68:	1a46b03a 	or	r3,r3,r9
   12d6c:	528001c4 	addi	r10,r10,7
   12d70:	403ff616 	blt	r8,zero,12d4c <_ZL28read_encoded_value_with_basehjPKhPj+0x15c>
   12d74:	003fc106 	br	12c7c <_ZL28read_encoded_value_with_basehjPKhPj+0x8c>
   12d78:	3005883a 	mov	r2,r6
   12d7c:	0007883a 	mov	r3,zero
   12d80:	0013883a 	mov	r9,zero
   12d84:	12800003 	ldbu	r10,0(r2)
   12d88:	10800044 	addi	r2,r2,1
   12d8c:	52001fcc 	andi	r8,r10,127
   12d90:	4250983a 	sll	r8,r8,r9
   12d94:	52c03fcc 	andi	r11,r10,255
   12d98:	5ac0201c 	xori	r11,r11,128
   12d9c:	5affe004 	addi	r11,r11,-128
   12da0:	1a06b03a 	or	r3,r3,r8
   12da4:	4a4001c4 	addi	r9,r9,7
   12da8:	583ff616 	blt	r11,zero,12d84 <_ZL28read_encoded_value_with_basehjPKhPj+0x194>
   12dac:	4a000828 	cmpgeui	r8,r9,32
   12db0:	403fb21e 	bne	r8,zero,12c7c <_ZL28read_encoded_value_with_basehjPKhPj+0x8c>
   12db4:	5280100c 	andi	r10,r10,64
   12db8:	503fb026 	beq	r10,zero,12c7c <_ZL28read_encoded_value_with_basehjPKhPj+0x8c>
   12dbc:	023fffc4 	movi	r8,-1
   12dc0:	4252983a 	sll	r9,r8,r9
   12dc4:	1a46b03a 	or	r3,r3,r9
   12dc8:	003fad06 	br	12c80 <_ZL28read_encoded_value_with_basehjPKhPj+0x90>
   12dcc:	deffff04 	addi	sp,sp,-4
   12dd0:	dfc00015 	stw	ra,0(sp)
   12dd4:	00170f40 	call	170f4 <abort>

00012dd8 <_ZL21base_of_encoded_valuehP15_Unwind_Context>:
   12dd8:	20803fcc 	andi	r2,r4,255
   12ddc:	10803fe0 	cmpeqi	r2,r2,255
   12de0:	1000161e 	bne	r2,zero,12e3c <_ZL21base_of_encoded_valuehP15_Unwind_Context+0x64>
   12de4:	2007883a 	mov	r3,r4
   12de8:	18801c0c 	andi	r2,r3,112
   12dec:	2809883a 	mov	r4,r5
   12df0:	11400c20 	cmpeqi	r5,r2,48
   12df4:	2800131e 	bne	r5,zero,12e44 <_ZL21base_of_encoded_valuehP15_Unwind_Context+0x6c>
   12df8:	11400c68 	cmpgeui	r5,r2,49
   12dfc:	2800031e 	bne	r5,zero,12e0c <_ZL21base_of_encoded_valuehP15_Unwind_Context+0x34>
   12e00:	11400820 	cmpeqi	r5,r2,32
   12e04:	28000426 	beq	r5,zero,12e18 <_ZL21base_of_encoded_valuehP15_Unwind_Context+0x40>
   12e08:	0016c8c1 	jmpi	16c8c <_Unwind_GetTextRelBase>
   12e0c:	10c01020 	cmpeqi	r3,r2,64
   12e10:	18000826 	beq	r3,zero,12e34 <_ZL21base_of_encoded_valuehP15_Unwind_Context+0x5c>
   12e14:	0016c741 	jmpi	16c74 <_Unwind_GetRegionStart>
   12e18:	10800868 	cmpgeui	r2,r2,33
   12e1c:	1000021e 	bne	r2,zero,12e28 <_ZL21base_of_encoded_valuehP15_Unwind_Context+0x50>
   12e20:	18c0180c 	andi	r3,r3,96
   12e24:	18000526 	beq	r3,zero,12e3c <_ZL21base_of_encoded_valuehP15_Unwind_Context+0x64>
   12e28:	deffff04 	addi	sp,sp,-4
   12e2c:	dfc00015 	stw	ra,0(sp)
   12e30:	00170f40 	call	170f4 <abort>
   12e34:	10801420 	cmpeqi	r2,r2,80
   12e38:	103ffb26 	beq	r2,zero,12e28 <_ZL21base_of_encoded_valuehP15_Unwind_Context+0x50>
   12e3c:	0005883a 	mov	r2,zero
   12e40:	f800283a 	ret
   12e44:	0016c841 	jmpi	16c84 <_Unwind_GetDataRelBase>

00012e48 <_ZL17parse_lsda_headerP15_Unwind_ContextPKhP16lsda_header_info>:
   12e48:	defffb04 	addi	sp,sp,-20
   12e4c:	dc800215 	stw	r18,8(sp)
   12e50:	dc400115 	stw	r17,4(sp)
   12e54:	dc000015 	stw	r16,0(sp)
   12e58:	dfc00415 	stw	ra,16(sp)
   12e5c:	dcc00315 	stw	r19,12(sp)
   12e60:	2025883a 	mov	r18,r4
   12e64:	2821883a 	mov	r16,r5
   12e68:	3023883a 	mov	r17,r6
   12e6c:	20003d26 	beq	r4,zero,12f64 <_ZL17parse_lsda_headerP15_Unwind_ContextPKhP16lsda_header_info+0x11c>
   12e70:	0016c740 	call	16c74 <_Unwind_GetRegionStart>
   12e74:	88800015 	stw	r2,0(r17)
   12e78:	84c00003 	ldbu	r19,0(r16)
   12e7c:	84000044 	addi	r16,r16,1
   12e80:	98c03fe0 	cmpeqi	r3,r19,255
   12e84:	18002d26 	beq	r3,zero,12f3c <_ZL17parse_lsda_headerP15_Unwind_ContextPKhP16lsda_header_info+0xf4>
   12e88:	88800115 	stw	r2,4(r17)
   12e8c:	81000003 	ldbu	r4,0(r16)
   12e90:	80800044 	addi	r2,r16,1
   12e94:	20c03fcc 	andi	r3,r4,255
   12e98:	89000505 	stb	r4,20(r17)
   12e9c:	18c03fe0 	cmpeqi	r3,r3,255
   12ea0:	1800321e 	bne	r3,zero,12f6c <_ZL17parse_lsda_headerP15_Unwind_ContextPKhP16lsda_header_info+0x124>
   12ea4:	000d883a 	mov	r6,zero
   12ea8:	000b883a 	mov	r5,zero
   12eac:	10c00003 	ldbu	r3,0(r2)
   12eb0:	10800044 	addi	r2,r2,1
   12eb4:	19001fcc 	andi	r4,r3,127
   12eb8:	2148983a 	sll	r4,r4,r5
   12ebc:	18c03fcc 	andi	r3,r3,255
   12ec0:	18c0201c 	xori	r3,r3,128
   12ec4:	18ffe004 	addi	r3,r3,-128
   12ec8:	310cb03a 	or	r6,r6,r4
   12ecc:	294001c4 	addi	r5,r5,7
   12ed0:	183ff616 	blt	r3,zero,12eac <_ZL17parse_lsda_headerP15_Unwind_ContextPKhP16lsda_header_info+0x64>
   12ed4:	118d883a 	add	r6,r2,r6
   12ed8:	89800315 	stw	r6,12(r17)
   12edc:	10c00003 	ldbu	r3,0(r2)
   12ee0:	000f883a 	mov	r7,zero
   12ee4:	10800044 	addi	r2,r2,1
   12ee8:	88c00545 	stb	r3,21(r17)
   12eec:	000b883a 	mov	r5,zero
   12ef0:	10c00003 	ldbu	r3,0(r2)
   12ef4:	10800044 	addi	r2,r2,1
   12ef8:	19001fcc 	andi	r4,r3,127
   12efc:	2148983a 	sll	r4,r4,r5
   12f00:	18c03fcc 	andi	r3,r3,255
   12f04:	18c0201c 	xori	r3,r3,128
   12f08:	18ffe004 	addi	r3,r3,-128
   12f0c:	390eb03a 	or	r7,r7,r4
   12f10:	294001c4 	addi	r5,r5,7
   12f14:	183ff616 	blt	r3,zero,12ef0 <_ZL17parse_lsda_headerP15_Unwind_ContextPKhP16lsda_header_info+0xa8>
   12f18:	11cf883a 	add	r7,r2,r7
   12f1c:	89c00415 	stw	r7,16(r17)
   12f20:	dfc00417 	ldw	ra,16(sp)
   12f24:	dcc00317 	ldw	r19,12(sp)
   12f28:	dc800217 	ldw	r18,8(sp)
   12f2c:	dc400117 	ldw	r17,4(sp)
   12f30:	dc000017 	ldw	r16,0(sp)
   12f34:	dec00504 	addi	sp,sp,20
   12f38:	f800283a 	ret
   12f3c:	900b883a 	mov	r5,r18
   12f40:	9809883a 	mov	r4,r19
   12f44:	0012dd80 	call	12dd8 <_ZL21base_of_encoded_valuehP15_Unwind_Context>
   12f48:	800d883a 	mov	r6,r16
   12f4c:	89c00104 	addi	r7,r17,4
   12f50:	100b883a 	mov	r5,r2
   12f54:	9809883a 	mov	r4,r19
   12f58:	0012bf00 	call	12bf0 <_ZL28read_encoded_value_with_basehjPKhPj>
   12f5c:	1021883a 	mov	r16,r2
   12f60:	003fca06 	br	12e8c <_ZL17parse_lsda_headerP15_Unwind_ContextPKhP16lsda_header_info+0x44>
   12f64:	0005883a 	mov	r2,zero
   12f68:	003fc206 	br	12e74 <_ZL17parse_lsda_headerP15_Unwind_ContextPKhP16lsda_header_info+0x2c>
   12f6c:	88000315 	stw	zero,12(r17)
   12f70:	003fda06 	br	12edc <_ZL17parse_lsda_headerP15_Unwind_ContextPKhP16lsda_header_info+0x94>

00012f74 <_ZL20check_exception_specP16lsda_header_infoPKSt9type_infoPvl>:
   12f74:	defffa04 	addi	sp,sp,-24
   12f78:	dc000215 	stw	r16,8(sp)
   12f7c:	24000317 	ldw	r16,12(r4)
   12f80:	01ce303a 	nor	r7,zero,r7
   12f84:	dc800415 	stw	r18,16(sp)
   12f88:	dc400315 	stw	r17,12(sp)
   12f8c:	dfc00515 	stw	ra,20(sp)
   12f90:	2025883a 	mov	r18,r4
   12f94:	2823883a 	mov	r17,r5
   12f98:	d9800015 	stw	r6,0(sp)
   12f9c:	81e1883a 	add	r16,r16,r7
   12fa0:	000f883a 	mov	r7,zero
   12fa4:	000d883a 	mov	r6,zero
   12fa8:	80800003 	ldbu	r2,0(r16)
   12fac:	84000044 	addi	r16,r16,1
   12fb0:	10c01fcc 	andi	r3,r2,127
   12fb4:	1986983a 	sll	r3,r3,r6
   12fb8:	10803fcc 	andi	r2,r2,255
   12fbc:	1080201c 	xori	r2,r2,128
   12fc0:	10bfe004 	addi	r2,r2,-128
   12fc4:	38ceb03a 	or	r7,r7,r3
   12fc8:	318001c4 	addi	r6,r6,7
   12fcc:	103ff616 	blt	r2,zero,12fa8 <_ZL20check_exception_specP16lsda_header_infoPKSt9type_infoPvl+0x34>
   12fd0:	38002926 	beq	r7,zero,13078 <_ZL20check_exception_specP16lsda_header_infoPKSt9type_infoPvl+0x104>
   12fd4:	90800503 	ldbu	r2,20(r18)
   12fd8:	11003fcc 	andi	r4,r2,255
   12fdc:	20c03fe0 	cmpeqi	r3,r4,255
   12fe0:	1800231e 	bne	r3,zero,13070 <_ZL20check_exception_specP16lsda_header_infoPKSt9type_infoPvl+0xfc>
   12fe4:	108001cc 	andi	r2,r2,7
   12fe8:	10c000a0 	cmpeqi	r3,r2,2
   12fec:	18001d1e 	bne	r3,zero,13064 <_ZL20check_exception_specP16lsda_header_infoPKSt9type_infoPvl+0xf0>
   12ff0:	10c000e8 	cmpgeui	r3,r2,3
   12ff4:	18001726 	beq	r3,zero,13054 <_ZL20check_exception_specP16lsda_header_infoPKSt9type_infoPvl+0xe0>
   12ff8:	10c000e0 	cmpeqi	r3,r2,3
   12ffc:	1800161e 	bne	r3,zero,13058 <_ZL20check_exception_specP16lsda_header_infoPKSt9type_infoPvl+0xe4>
   13000:	10800120 	cmpeqi	r2,r2,4
   13004:	10001e26 	beq	r2,zero,13080 <_ZL20check_exception_specP16lsda_header_infoPKSt9type_infoPvl+0x10c>
   13008:	380e90fa 	slli	r7,r7,3
   1300c:	01c5c83a 	sub	r2,zero,r7
   13010:	91800317 	ldw	r6,12(r18)
   13014:	91400217 	ldw	r5,8(r18)
   13018:	d9c00104 	addi	r7,sp,4
   1301c:	308d883a 	add	r6,r6,r2
   13020:	0012bf00 	call	12bf0 <_ZL28read_encoded_value_with_basehjPKhPj>
   13024:	d9000117 	ldw	r4,4(sp)
   13028:	d80d883a 	mov	r6,sp
   1302c:	880b883a 	mov	r5,r17
   13030:	0012b600 	call	12b60 <_ZL16get_adjusted_ptrPKSt9type_infoS1_PPv>
   13034:	10c03fcc 	andi	r3,r2,255
   13038:	183fd926 	beq	r3,zero,12fa0 <_ZL20check_exception_specP16lsda_header_infoPKSt9type_infoPvl+0x2c>
   1303c:	dfc00517 	ldw	ra,20(sp)
   13040:	dc800417 	ldw	r18,16(sp)
   13044:	dc400317 	ldw	r17,12(sp)
   13048:	dc000217 	ldw	r16,8(sp)
   1304c:	dec00604 	addi	sp,sp,24
   13050:	f800283a 	ret
   13054:	10000a1e 	bne	r2,zero,13080 <_ZL20check_exception_specP16lsda_header_infoPKSt9type_infoPvl+0x10c>
   13058:	380e90ba 	slli	r7,r7,2
   1305c:	01c5c83a 	sub	r2,zero,r7
   13060:	003feb06 	br	13010 <_ZL20check_exception_specP16lsda_header_infoPKSt9type_infoPvl+0x9c>
   13064:	39cf883a 	add	r7,r7,r7
   13068:	01c5c83a 	sub	r2,zero,r7
   1306c:	003fe806 	br	13010 <_ZL20check_exception_specP16lsda_header_infoPKSt9type_infoPvl+0x9c>
   13070:	0005883a 	mov	r2,zero
   13074:	003fe606 	br	13010 <_ZL20check_exception_specP16lsda_header_infoPKSt9type_infoPvl+0x9c>
   13078:	0005883a 	mov	r2,zero
   1307c:	003fef06 	br	1303c <_ZL20check_exception_specP16lsda_header_infoPKSt9type_infoPvl+0xc8>
   13080:	00170f40 	call	170f4 <abort>

00013084 <__gxx_personality_sj0>:
   13084:	deffdb04 	addi	sp,sp,-148
   13088:	02000074 	movhi	r8,1
   1308c:	00c000b4 	movhi	r3,2
   13090:	00800074 	movhi	r2,1
   13094:	108dbe04 	addi	r2,r2,14072
   13098:	d9000015 	stw	r4,0(sp)
   1309c:	420c2104 	addi	r8,r8,12420
   130a0:	18e1d004 	addi	r3,r3,-30912
   130a4:	d9000d04 	addi	r4,sp,52
   130a8:	d8801615 	stw	r2,88(sp)
   130ac:	dfc02415 	stw	ra,144(sp)
   130b0:	df002315 	stw	fp,140(sp)
   130b4:	d9400315 	stw	r5,12(sp)
   130b8:	d9800115 	stw	r6,4(sp)
   130bc:	d9c00215 	stw	r7,8(sp)
   130c0:	da001315 	stw	r8,76(sp)
   130c4:	d8c01415 	stw	r3,80(sp)
   130c8:	df001515 	stw	fp,84(sp)
   130cc:	dec01715 	stw	sp,92(sp)
   130d0:	0016bb80 	call	16bb8 <_Unwind_SjLj_Register>
   130d4:	d8800017 	ldw	r2,0(sp)
   130d8:	d8001a15 	stw	zero,104(sp)
   130dc:	d8001b15 	stw	zero,108(sp)
   130e0:	10800058 	cmpnei	r2,r2,1
   130e4:	1000471e 	bne	r2,zero,13204 <__gxx_personality_sj0+0x180>
   130e8:	d9800117 	ldw	r6,4(sp)
   130ec:	00af3574 	movhi	r2,48341
   130f0:	10b54004 	addi	r2,r2,-11008
   130f4:	3085883a 	add	r2,r6,r2
   130f8:	d8800715 	stw	r2,28(sp)
   130fc:	1185803a 	cmpltu	r2,r2,r6
   13100:	d9800217 	ldw	r6,8(sp)
   13104:	00ee2cb4 	movhi	r3,47282
   13108:	d9000317 	ldw	r4,12(sp)
   1310c:	18eaaf04 	addi	r3,r3,-21828
   13110:	30c7883a 	add	r3,r6,r3
   13114:	10c7883a 	add	r3,r2,r3
   13118:	21000198 	cmpnei	r4,r4,6
   1311c:	d8c00615 	stw	r3,24(sp)
   13120:	2000011e 	bne	r4,zero,13128 <__gxx_personality_sj0+0xa4>
   13124:	1800d026 	beq	r3,zero,13468 <__gxx_personality_sj0+0x3e4>
   13128:	d9002617 	ldw	r4,152(sp)
   1312c:	00bfffc4 	movi	r2,-1
   13130:	d8800e15 	stw	r2,56(sp)
   13134:	0016c680 	call	16c68 <_Unwind_GetLanguageSpecificData>
   13138:	d8800515 	stw	r2,20(sp)
   1313c:	10005d26 	beq	r2,zero,132b4 <__gxx_personality_sj0+0x230>
   13140:	d9400517 	ldw	r5,20(sp)
   13144:	d9002617 	ldw	r4,152(sp)
   13148:	d9801d04 	addi	r6,sp,116
   1314c:	00bfffc4 	movi	r2,-1
   13150:	d8800e15 	stw	r2,56(sp)
   13154:	0012e480 	call	12e48 <_ZL17parse_lsda_headerP15_Unwind_ContextPKhP16lsda_header_info>
   13158:	d9002203 	ldbu	r4,136(sp)
   1315c:	d9402617 	ldw	r5,152(sp)
   13160:	d8800015 	stw	r2,0(sp)
   13164:	0012dd80 	call	12dd8 <_ZL21base_of_encoded_valuehP15_Unwind_Context>
   13168:	d9002617 	ldw	r4,152(sp)
   1316c:	d9401b04 	addi	r5,sp,108
   13170:	d8801f15 	stw	r2,124(sp)
   13174:	0016c380 	call	16c38 <_Unwind_GetIPInfo>
   13178:	d8c01b17 	ldw	r3,108(sp)
   1317c:	d8800115 	stw	r2,4(sp)
   13180:	18004f26 	beq	r3,zero,132c0 <__gxx_personality_sj0+0x23c>
   13184:	d8800117 	ldw	r2,4(sp)
   13188:	10004a16 	blt	r2,zero,132b4 <__gxx_personality_sj0+0x230>
   1318c:	1000381e 	bne	r2,zero,13270 <__gxx_personality_sj0+0x1ec>
   13190:	d8000415 	stw	zero,16(sp)
   13194:	d8000215 	stw	zero,8(sp)
   13198:	00800044 	movi	r2,1
   1319c:	d8c00317 	ldw	r3,12(sp)
   131a0:	18c0004c 	andi	r3,r3,1
   131a4:	1801061e 	bne	r3,zero,135c0 <__gxx_personality_sj0+0x53c>
   131a8:	d8c00317 	ldw	r3,12(sp)
   131ac:	18c0020c 	andi	r3,r3,8
   131b0:	18010a26 	beq	r3,zero,135dc <__gxx_personality_sj0+0x558>
   131b4:	10800058 	cmpnei	r2,r2,1
   131b8:	10015126 	beq	r2,zero,13700 <__gxx_personality_sj0+0x67c>
   131bc:	d8800417 	ldw	r2,16(sp)
   131c0:	10014a16 	blt	r2,zero,136ec <__gxx_personality_sj0+0x668>
   131c4:	d9002617 	ldw	r4,152(sp)
   131c8:	d9802517 	ldw	r6,148(sp)
   131cc:	00bfffc4 	movi	r2,-1
   131d0:	000b883a 	mov	r5,zero
   131d4:	d8800e15 	stw	r2,56(sp)
   131d8:	0016c100 	call	16c10 <_Unwind_SetGR>
   131dc:	d9800417 	ldw	r6,16(sp)
   131e0:	d9002617 	ldw	r4,152(sp)
   131e4:	01400044 	movi	r5,1
   131e8:	0016c100 	call	16c10 <_Unwind_SetGR>
   131ec:	d9400117 	ldw	r5,4(sp)
   131f0:	d9002617 	ldw	r4,152(sp)
   131f4:	0016c580 	call	16c58 <_Unwind_SetIP>
   131f8:	008001c4 	movi	r2,7
   131fc:	d8800015 	stw	r2,0(sp)
   13200:	00000206 	br	1320c <__gxx_personality_sj0+0x188>
   13204:	008000c4 	movi	r2,3
   13208:	d8800015 	stw	r2,0(sp)
   1320c:	d9000d04 	addi	r4,sp,52
   13210:	0016bd00 	call	16bd0 <_Unwind_SjLj_Unregister>
   13214:	d8800017 	ldw	r2,0(sp)
   13218:	dfc02417 	ldw	ra,144(sp)
   1321c:	df002317 	ldw	fp,140(sp)
   13220:	dec02504 	addi	sp,sp,148
   13224:	f800283a 	ret
   13228:	000b883a 	mov	r5,zero
   1322c:	0009883a 	mov	r4,zero
   13230:	d8c00017 	ldw	r3,0(sp)
   13234:	18800003 	ldbu	r2,0(r3)
   13238:	18c00044 	addi	r3,r3,1
   1323c:	d8c00015 	stw	r3,0(sp)
   13240:	10c01fcc 	andi	r3,r2,127
   13244:	1906983a 	sll	r3,r3,r4
   13248:	10803fcc 	andi	r2,r2,255
   1324c:	1080201c 	xori	r2,r2,128
   13250:	10bfe004 	addi	r2,r2,-128
   13254:	28cab03a 	or	r5,r5,r3
   13258:	210001c4 	addi	r4,r4,7
   1325c:	103ff416 	blt	r2,zero,13230 <__gxx_personality_sj0+0x1ac>
   13260:	d8800117 	ldw	r2,4(sp)
   13264:	10bfffc4 	addi	r2,r2,-1
   13268:	d8800115 	stw	r2,4(sp)
   1326c:	10001726 	beq	r2,zero,132cc <__gxx_personality_sj0+0x248>
   13270:	000d883a 	mov	r6,zero
   13274:	0009883a 	mov	r4,zero
   13278:	d8c00017 	ldw	r3,0(sp)
   1327c:	18800003 	ldbu	r2,0(r3)
   13280:	18c00044 	addi	r3,r3,1
   13284:	d8c00015 	stw	r3,0(sp)
   13288:	10c01fcc 	andi	r3,r2,127
   1328c:	1906983a 	sll	r3,r3,r4
   13290:	10803fcc 	andi	r2,r2,255
   13294:	1080201c 	xori	r2,r2,128
   13298:	10bfe004 	addi	r2,r2,-128
   1329c:	30ccb03a 	or	r6,r6,r3
   132a0:	210001c4 	addi	r4,r4,7
   132a4:	103ff416 	blt	r2,zero,13278 <__gxx_personality_sj0+0x1f4>
   132a8:	003fdf06 	br	13228 <__gxx_personality_sj0+0x1a4>
   132ac:	d88008c3 	ldbu	r2,35(sp)
   132b0:	10008c1e 	bne	r2,zero,134e4 <__gxx_personality_sj0+0x460>
   132b4:	00800204 	movi	r2,8
   132b8:	d8800015 	stw	r2,0(sp)
   132bc:	003fd306 	br	1320c <__gxx_personality_sj0+0x188>
   132c0:	10bfffc4 	addi	r2,r2,-1
   132c4:	d8800115 	stw	r2,4(sp)
   132c8:	003fae06 	br	13184 <__gxx_personality_sj0+0x100>
   132cc:	30800044 	addi	r2,r6,1
   132d0:	d8800a15 	stw	r2,40(sp)
   132d4:	283ff626 	beq	r5,zero,132b0 <__gxx_personality_sj0+0x22c>
   132d8:	d8800a17 	ldw	r2,40(sp)
   132dc:	103ff526 	beq	r2,zero,132b4 <__gxx_personality_sj0+0x230>
   132e0:	d8802117 	ldw	r2,132(sp)
   132e4:	297fffc4 	addi	r5,r5,-1
   132e8:	1145883a 	add	r2,r2,r5
   132ec:	d8800215 	stw	r2,8(sp)
   132f0:	10007c26 	beq	r2,zero,134e4 <__gxx_personality_sj0+0x460>
   132f4:	d8800317 	ldw	r2,12(sp)
   132f8:	1080020c 	andi	r2,r2,8
   132fc:	d8800b15 	stw	r2,44(sp)
   13300:	1000bf1e 	bne	r2,zero,13600 <__gxx_personality_sj0+0x57c>
   13304:	d8800617 	ldw	r2,24(sp)
   13308:	1000e526 	beq	r2,zero,136a0 <__gxx_personality_sj0+0x61c>
   1330c:	008000b4 	movhi	r2,2
   13310:	10a56d04 	addi	r2,r2,-27212
   13314:	d8800915 	stw	r2,36(sp)
   13318:	d8800717 	ldw	r2,28(sp)
   1331c:	d80008c5 	stb	zero,35(sp)
   13320:	108000a8 	cmpgeui	r2,r2,2
   13324:	d8800c15 	stw	r2,48(sp)
   13328:	d8800217 	ldw	r2,8(sp)
   1332c:	000f883a 	mov	r7,zero
   13330:	0007883a 	mov	r3,zero
   13334:	d8800015 	stw	r2,0(sp)
   13338:	d8800017 	ldw	r2,0(sp)
   1333c:	11000003 	ldbu	r4,0(r2)
   13340:	10800044 	addi	r2,r2,1
   13344:	d8800015 	stw	r2,0(sp)
   13348:	20801fcc 	andi	r2,r4,127
   1334c:	10c4983a 	sll	r2,r2,r3
   13350:	21403fcc 	andi	r5,r4,255
   13354:	2940201c 	xori	r5,r5,128
   13358:	297fe004 	addi	r5,r5,-128
   1335c:	388eb03a 	or	r7,r7,r2
   13360:	18c001c4 	addi	r3,r3,7
   13364:	283ff416 	blt	r5,zero,13338 <__gxx_personality_sj0+0x2b4>
   13368:	18800828 	cmpgeui	r2,r3,32
   1336c:	1000061e 	bne	r2,zero,13388 <__gxx_personality_sj0+0x304>
   13370:	2100100c 	andi	r4,r4,64
   13374:	20000426 	beq	r4,zero,13388 <__gxx_personality_sj0+0x304>
   13378:	00800044 	movi	r2,1
   1337c:	10c6983a 	sll	r3,r2,r3
   13380:	00c7c83a 	sub	r3,zero,r3
   13384:	38ceb03a 	or	r7,r7,r3
   13388:	d9400017 	ldw	r5,0(sp)
   1338c:	d9c00415 	stw	r7,16(sp)
   13390:	d8000115 	stw	zero,4(sp)
   13394:	0007883a 	mov	r3,zero
   13398:	29000003 	ldbu	r4,0(r5)
   1339c:	da000117 	ldw	r8,4(sp)
   133a0:	29400044 	addi	r5,r5,1
   133a4:	20801fcc 	andi	r2,r4,127
   133a8:	10c4983a 	sll	r2,r2,r3
   133ac:	21803fcc 	andi	r6,r4,255
   133b0:	3180201c 	xori	r6,r6,128
   133b4:	4084b03a 	or	r2,r8,r2
   133b8:	31bfe004 	addi	r6,r6,-128
   133bc:	d8800115 	stw	r2,4(sp)
   133c0:	18c001c4 	addi	r3,r3,7
   133c4:	303ff416 	blt	r6,zero,13398 <__gxx_personality_sj0+0x314>
   133c8:	18800828 	cmpgeui	r2,r3,32
   133cc:	1000081e 	bne	r2,zero,133f0 <__gxx_personality_sj0+0x36c>
   133d0:	2100100c 	andi	r4,r4,64
   133d4:	20000626 	beq	r4,zero,133f0 <__gxx_personality_sj0+0x36c>
   133d8:	00800044 	movi	r2,1
   133dc:	10c6983a 	sll	r3,r2,r3
   133e0:	d8800117 	ldw	r2,4(sp)
   133e4:	00c7c83a 	sub	r3,zero,r3
   133e8:	10c4b03a 	or	r2,r2,r3
   133ec:	d8800115 	stw	r2,4(sp)
   133f0:	38004726 	beq	r7,zero,13510 <__gxx_personality_sj0+0x48c>
   133f4:	01c04916 	blt	zero,r7,1351c <__gxx_personality_sj0+0x498>
   133f8:	d8800917 	ldw	r2,36(sp)
   133fc:	10000426 	beq	r2,zero,13410 <__gxx_personality_sj0+0x38c>
   13400:	d8800b17 	ldw	r2,44(sp)
   13404:	1000021e 	bne	r2,zero,13410 <__gxx_personality_sj0+0x38c>
   13408:	d8800617 	ldw	r2,24(sp)
   1340c:	10008026 	beq	r2,zero,13610 <__gxx_personality_sj0+0x58c>
   13410:	d8802017 	ldw	r2,128(sp)
   13414:	01ce303a 	nor	r7,zero,r7
   13418:	000b883a 	mov	r5,zero
   1341c:	11cf883a 	add	r7,r2,r7
   13420:	0009883a 	mov	r4,zero
   13424:	38800003 	ldbu	r2,0(r7)
   13428:	39c00044 	addi	r7,r7,1
   1342c:	10c01fcc 	andi	r3,r2,127
   13430:	1906983a 	sll	r3,r3,r4
   13434:	10803fcc 	andi	r2,r2,255
   13438:	1080201c 	xori	r2,r2,128
   1343c:	10bfe004 	addi	r2,r2,-128
   13440:	28cab03a 	or	r5,r5,r3
   13444:	210001c4 	addi	r4,r4,7
   13448:	103ff616 	blt	r2,zero,13424 <__gxx_personality_sj0+0x3a0>
   1344c:	28005126 	beq	r5,zero,13594 <__gxx_personality_sj0+0x510>
   13450:	d8800117 	ldw	r2,4(sp)
   13454:	103f9526 	beq	r2,zero,132ac <__gxx_personality_sj0+0x228>
   13458:	d8c00017 	ldw	r3,0(sp)
   1345c:	1885883a 	add	r2,r3,r2
   13460:	d8800215 	stw	r2,8(sp)
   13464:	003fb006 	br	13328 <__gxx_personality_sj0+0x2a4>
   13468:	d8800717 	ldw	r2,28(sp)
   1346c:	108000a8 	cmpgeui	r2,r2,2
   13470:	103f2d1e 	bne	r2,zero,13128 <__gxx_personality_sj0+0xa4>
   13474:	d8802517 	ldw	r2,148(sp)
   13478:	10bffe17 	ldw	r2,-8(r2)
   1347c:	d8800115 	stw	r2,4(sp)
   13480:	10005d26 	beq	r2,zero,135f8 <__gxx_personality_sj0+0x574>
   13484:	d8802517 	ldw	r2,148(sp)
   13488:	10bffb17 	ldw	r2,-20(r2)
   1348c:	d8800415 	stw	r2,16(sp)
   13490:	d8802517 	ldw	r2,148(sp)
   13494:	10bffd17 	ldw	r2,-12(r2)
   13498:	d8800515 	stw	r2,20(sp)
   1349c:	d8800417 	ldw	r2,16(sp)
   134a0:	103f480e 	bge	r2,zero,131c4 <__gxx_personality_sj0+0x140>
   134a4:	d9002617 	ldw	r4,152(sp)
   134a8:	d9400517 	ldw	r5,20(sp)
   134ac:	d9801d04 	addi	r6,sp,116
   134b0:	00bfffc4 	movi	r2,-1
   134b4:	d8800e15 	stw	r2,56(sp)
   134b8:	0012e480 	call	12e48 <_ZL17parse_lsda_headerP15_Unwind_ContextPKhP16lsda_header_info>
   134bc:	d9402617 	ldw	r5,152(sp)
   134c0:	d9002203 	ldbu	r4,136(sp)
   134c4:	0012dd80 	call	12dd8 <_ZL21base_of_encoded_valuehP15_Unwind_Context>
   134c8:	d9002203 	ldbu	r4,136(sp)
   134cc:	d9402617 	ldw	r5,152(sp)
   134d0:	d8801f15 	stw	r2,124(sp)
   134d4:	0012dd80 	call	12dd8 <_ZL21base_of_encoded_valuehP15_Unwind_Context>
   134d8:	d8c02517 	ldw	r3,148(sp)
   134dc:	18bffe15 	stw	r2,-8(r3)
   134e0:	003f3806 	br	131c4 <__gxx_personality_sj0+0x140>
   134e4:	d8800317 	ldw	r2,12(sp)
   134e8:	1080004c 	andi	r2,r2,1
   134ec:	103f711e 	bne	r2,zero,132b4 <__gxx_personality_sj0+0x230>
   134f0:	d8800317 	ldw	r2,12(sp)
   134f4:	1080020c 	andi	r2,r2,8
   134f8:	d8800415 	stw	r2,16(sp)
   134fc:	10008126 	beq	r2,zero,13704 <__gxx_personality_sj0+0x680>
   13500:	d8800a17 	ldw	r2,40(sp)
   13504:	d8000415 	stw	zero,16(sp)
   13508:	d8800115 	stw	r2,4(sp)
   1350c:	003f2d06 	br	131c4 <__gxx_personality_sj0+0x140>
   13510:	00800044 	movi	r2,1
   13514:	d88008c5 	stb	r2,35(sp)
   13518:	003fcd06 	br	13450 <__gxx_personality_sj0+0x3cc>
   1351c:	d8802203 	ldbu	r2,136(sp)
   13520:	11003fcc 	andi	r4,r2,255
   13524:	20c03fe0 	cmpeqi	r3,r4,255
   13528:	18002a1e 	bne	r3,zero,135d4 <__gxx_personality_sj0+0x550>
   1352c:	108001cc 	andi	r2,r2,7
   13530:	10c000a0 	cmpeqi	r3,r2,2
   13534:	18001f1e 	bne	r3,zero,135b4 <__gxx_personality_sj0+0x530>
   13538:	10c000e8 	cmpgeui	r3,r2,3
   1353c:	18001926 	beq	r3,zero,135a4 <__gxx_personality_sj0+0x520>
   13540:	10c000e0 	cmpeqi	r3,r2,3
   13544:	1800181e 	bne	r3,zero,135a8 <__gxx_personality_sj0+0x524>
   13548:	10800120 	cmpeqi	r2,r2,4
   1354c:	10007026 	beq	r2,zero,13710 <__gxx_personality_sj0+0x68c>
   13550:	380490fa 	slli	r2,r7,3
   13554:	0085c83a 	sub	r2,zero,r2
   13558:	d9802017 	ldw	r6,128(sp)
   1355c:	d9401f17 	ldw	r5,124(sp)
   13560:	d9c01c04 	addi	r7,sp,112
   13564:	308d883a 	add	r6,r6,r2
   13568:	00bfffc4 	movi	r2,-1
   1356c:	d8800e15 	stw	r2,56(sp)
   13570:	0012bf00 	call	12bf0 <_ZL28read_encoded_value_with_basehjPKhPj>
   13574:	d9001c17 	ldw	r4,112(sp)
   13578:	20000626 	beq	r4,zero,13594 <__gxx_personality_sj0+0x510>
   1357c:	d9400917 	ldw	r5,36(sp)
   13580:	283fb326 	beq	r5,zero,13450 <__gxx_personality_sj0+0x3cc>
   13584:	d9801a04 	addi	r6,sp,104
   13588:	0012b600 	call	12b60 <_ZL16get_adjusted_ptrPKSt9type_infoS1_PPv>
   1358c:	10803fcc 	andi	r2,r2,255
   13590:	103faf26 	beq	r2,zero,13450 <__gxx_personality_sj0+0x3cc>
   13594:	d8800a17 	ldw	r2,40(sp)
   13598:	d8800115 	stw	r2,4(sp)
   1359c:	008000c4 	movi	r2,3
   135a0:	003efe06 	br	1319c <__gxx_personality_sj0+0x118>
   135a4:	10005a1e 	bne	r2,zero,13710 <__gxx_personality_sj0+0x68c>
   135a8:	380490ba 	slli	r2,r7,2
   135ac:	0085c83a 	sub	r2,zero,r2
   135b0:	003fe906 	br	13558 <__gxx_personality_sj0+0x4d4>
   135b4:	39cf883a 	add	r7,r7,r7
   135b8:	01c5c83a 	sub	r2,zero,r7
   135bc:	003fe606 	br	13558 <__gxx_personality_sj0+0x4d4>
   135c0:	d8800617 	ldw	r2,24(sp)
   135c4:	10002326 	beq	r2,zero,13654 <__gxx_personality_sj0+0x5d0>
   135c8:	00800184 	movi	r2,6
   135cc:	d8800015 	stw	r2,0(sp)
   135d0:	003f0e06 	br	1320c <__gxx_personality_sj0+0x188>
   135d4:	0005883a 	mov	r2,zero
   135d8:	003fdf06 	br	13558 <__gxx_personality_sj0+0x4d4>
   135dc:	d8c00617 	ldw	r3,24(sp)
   135e0:	183ef41e 	bne	r3,zero,131b4 <__gxx_personality_sj0+0x130>
   135e4:	d8c00717 	ldw	r3,28(sp)
   135e8:	18c000a8 	cmpgeui	r3,r3,2
   135ec:	183ef11e 	bne	r3,zero,131b4 <__gxx_personality_sj0+0x130>
   135f0:	10800060 	cmpeqi	r2,r2,1
   135f4:	103fa926 	beq	r2,zero,1349c <__gxx_personality_sj0+0x418>
   135f8:	d9002517 	ldw	r4,148(sp)
   135fc:	0014d700 	call	14d70 <__cxa_call_terminate>
   13600:	008000b4 	movhi	r2,2
   13604:	10a56b04 	addi	r2,r2,-27220
   13608:	d8800915 	stw	r2,36(sp)
   1360c:	003f4206 	br	13318 <__gxx_personality_sj0+0x294>
   13610:	d8800c17 	ldw	r2,48(sp)
   13614:	103f7e1e 	bne	r2,zero,13410 <__gxx_personality_sj0+0x38c>
   13618:	d9801a17 	ldw	r6,104(sp)
   1361c:	d9400917 	ldw	r5,36(sp)
   13620:	00bfffc4 	movi	r2,-1
   13624:	d9001d04 	addi	r4,sp,116
   13628:	d8800e15 	stw	r2,56(sp)
   1362c:	0012f740 	call	12f74 <_ZL20check_exception_specP16lsda_header_infoPKSt9type_infoPvl>
   13630:	10803fcc 	andi	r2,r2,255
   13634:	103f861e 	bne	r2,zero,13450 <__gxx_personality_sj0+0x3cc>
   13638:	d8800317 	ldw	r2,12(sp)
   1363c:	1080004c 	andi	r2,r2,1
   13640:	1000271e 	bne	r2,zero,136e0 <__gxx_personality_sj0+0x65c>
   13644:	d8800a17 	ldw	r2,40(sp)
   13648:	d8800115 	stw	r2,4(sp)
   1364c:	008000c4 	movi	r2,3
   13650:	003fe406 	br	135e4 <__gxx_personality_sj0+0x560>
   13654:	d8800717 	ldw	r2,28(sp)
   13658:	108000a8 	cmpgeui	r2,r2,2
   1365c:	103fda1e 	bne	r2,zero,135c8 <__gxx_personality_sj0+0x544>
   13660:	d8802517 	ldw	r2,148(sp)
   13664:	d8c00417 	ldw	r3,16(sp)
   13668:	10fffb15 	stw	r3,-20(r2)
   1366c:	d8c00217 	ldw	r3,8(sp)
   13670:	10fffc15 	stw	r3,-16(r2)
   13674:	d8c00517 	ldw	r3,20(sp)
   13678:	10fffd15 	stw	r3,-12(r2)
   1367c:	d8c02517 	ldw	r3,148(sp)
   13680:	d8801a17 	ldw	r2,104(sp)
   13684:	18bfff15 	stw	r2,-4(r3)
   13688:	1805883a 	mov	r2,r3
   1368c:	d8c00117 	ldw	r3,4(sp)
   13690:	10fffe15 	stw	r3,-8(r2)
   13694:	00800184 	movi	r2,6
   13698:	d8800015 	stw	r2,0(sp)
   1369c:	003edb06 	br	1320c <__gxx_personality_sj0+0x188>
   136a0:	d8800717 	ldw	r2,28(sp)
   136a4:	108000a8 	cmpgeui	r2,r2,2
   136a8:	103f181e 	bne	r2,zero,1330c <__gxx_personality_sj0+0x288>
   136ac:	d8802517 	ldw	r2,148(sp)
   136b0:	10800003 	ldbu	r2,0(r2)
   136b4:	1080004c 	andi	r2,r2,1
   136b8:	10000626 	beq	r2,zero,136d4 <__gxx_personality_sj0+0x650>
   136bc:	d8802517 	ldw	r2,148(sp)
   136c0:	10bff517 	ldw	r2,-44(r2)
   136c4:	10fff017 	ldw	r3,-64(r2)
   136c8:	d8801a15 	stw	r2,104(sp)
   136cc:	d8c00915 	stw	r3,36(sp)
   136d0:	003f1106 	br	13318 <__gxx_personality_sj0+0x294>
   136d4:	d8802517 	ldw	r2,148(sp)
   136d8:	10800504 	addi	r2,r2,20
   136dc:	003ff906 	br	136c4 <__gxx_personality_sj0+0x640>
   136e0:	d8800a17 	ldw	r2,40(sp)
   136e4:	d8800115 	stw	r2,4(sp)
   136e8:	003fdd06 	br	13660 <__gxx_personality_sj0+0x5dc>
   136ec:	00800044 	movi	r2,1
   136f0:	d8800e15 	stw	r2,56(sp)
   136f4:	00139840 	call	13984 <_ZSt10unexpectedv>
   136f8:	d9000f17 	ldw	r4,60(sp)
   136fc:	0014dd00 	call	14dd0 <__cxa_begin_catch>
   13700:	00139600 	call	13960 <_ZSt9terminatev>
   13704:	d8800a17 	ldw	r2,40(sp)
   13708:	d8800115 	stw	r2,4(sp)
   1370c:	003ead06 	br	131c4 <__gxx_personality_sj0+0x140>
   13710:	00bfffc4 	movi	r2,-1
   13714:	d8800e15 	stw	r2,56(sp)
   13718:	00170f40 	call	170f4 <abort>

0001371c <__cxa_call_unexpected>:
   1371c:	deffe704 	addi	sp,sp,-100
   13720:	01400074 	movhi	r5,1
   13724:	00c000b4 	movhi	r3,2
   13728:	00800074 	movhi	r2,1
   1372c:	294c2104 	addi	r5,r5,12420
   13730:	18e1d404 	addi	r3,r3,-30896
   13734:	108de704 	addi	r2,r2,14236
   13738:	d9000015 	stw	r4,0(sp)
   1373c:	d9000404 	addi	r4,sp,16
   13740:	d9400a15 	stw	r5,40(sp)
   13744:	d8c00b15 	stw	r3,44(sp)
   13748:	dfc01815 	stw	ra,96(sp)
   1374c:	d8800d15 	stw	r2,52(sp)
   13750:	df001715 	stw	fp,92(sp)
   13754:	df000c15 	stw	fp,48(sp)
   13758:	dec00e15 	stw	sp,56(sp)
   1375c:	0016bb80 	call	16bb8 <_Unwind_SjLj_Register>
   13760:	d9000017 	ldw	r4,0(sp)
   13764:	0014dd00 	call	14dd0 <__cxa_begin_catch>
   13768:	d8c00017 	ldw	r3,0(sp)
   1376c:	197ffd17 	ldw	r5,-12(r3)
   13770:	18bffe17 	ldw	r2,-8(r3)
   13774:	193ff717 	ldw	r4,-36(r3)
   13778:	d9400115 	stw	r5,4(sp)
   1377c:	197ffb17 	ldw	r5,-20(r3)
   13780:	18fff817 	ldw	r3,-32(r3)
   13784:	d8801315 	stw	r2,76(sp)
   13788:	00800044 	movi	r2,1
   1378c:	d9400015 	stw	r5,0(sp)
   13790:	d8c00215 	stw	r3,8(sp)
   13794:	d8800515 	stw	r2,20(sp)
   13798:	00139740 	call	13974 <_ZN10__cxxabiv112__unexpectedEPFvvE>
   1379c:	d8c00617 	ldw	r3,24(sp)
   137a0:	d8800517 	ldw	r2,20(sp)
   137a4:	d8c00315 	stw	r3,12(sp)
   137a8:	10002b1e 	bne	r2,zero,13858 <__cxa_call_unexpected+0x13c>
   137ac:	d9000317 	ldw	r4,12(sp)
   137b0:	0014dd00 	call	14dd0 <__cxa_begin_catch>
   137b4:	0014fc80 	call	14fc8 <__cxa_get_globals_fast>
   137b8:	10800017 	ldw	r2,0(r2)
   137bc:	10c00b03 	ldbu	r3,44(r2)
   137c0:	18c0004c 	andi	r3,r3,1
   137c4:	18002e26 	beq	r3,zero,13880 <__cxa_call_unexpected+0x164>
   137c8:	10800017 	ldw	r2,0(r2)
   137cc:	d8800315 	stw	r2,12(sp)
   137d0:	d9400117 	ldw	r5,4(sp)
   137d4:	00800084 	movi	r2,2
   137d8:	d9801104 	addi	r6,sp,68
   137dc:	0009883a 	mov	r4,zero
   137e0:	d8800515 	stw	r2,20(sp)
   137e4:	0012e480 	call	12e48 <_ZL17parse_lsda_headerP15_Unwind_ContextPKhP16lsda_header_info>
   137e8:	d9800317 	ldw	r6,12(sp)
   137ec:	d9c00017 	ldw	r7,0(sp)
   137f0:	d9001104 	addi	r4,sp,68
   137f4:	317ff017 	ldw	r5,-64(r6)
   137f8:	0012f740 	call	12f74 <_ZL20check_exception_specP16lsda_header_infoPKSt9type_infoPvl>
   137fc:	10803fcc 	andi	r2,r2,255
   13800:	1000221e 	bne	r2,zero,1388c <__cxa_call_unexpected+0x170>
   13804:	d9c00017 	ldw	r7,0(sp)
   13808:	014000b4 	movhi	r5,2
   1380c:	00800084 	movi	r2,2
   13810:	000d883a 	mov	r6,zero
   13814:	2962e404 	addi	r5,r5,-29808
   13818:	d9001104 	addi	r4,sp,68
   1381c:	d8800515 	stw	r2,20(sp)
   13820:	0012f740 	call	12f74 <_ZL20check_exception_specP16lsda_header_infoPKSt9type_infoPvl>
   13824:	10803fcc 	andi	r2,r2,255
   13828:	10001926 	beq	r2,zero,13890 <__cxa_call_unexpected+0x174>
   1382c:	01000104 	movi	r4,4
   13830:	0014c1c0 	call	14c1c <__cxa_allocate_exception>
   13834:	1009883a 	mov	r4,r2
   13838:	008000b4 	movhi	r2,2
   1383c:	01800074 	movhi	r6,1
   13840:	014000b4 	movhi	r5,2
   13844:	10a2ff04 	addi	r2,r2,-29700
   13848:	3193df04 	addi	r6,r6,20348
   1384c:	2962e404 	addi	r5,r5,-29808
   13850:	20800015 	stw	r2,0(r4)
   13854:	0013ac40 	call	13ac4 <__cxa_throw>
   13858:	10bfffc4 	addi	r2,r2,-1
   1385c:	10000126 	beq	r2,zero,13864 <__cxa_call_unexpected+0x148>
   13860:	003b68fa 	trap	3
   13864:	d8000515 	stw	zero,20(sp)
   13868:	0014e880 	call	14e88 <__cxa_end_catch>
   1386c:	0014e880 	call	14e88 <__cxa_end_catch>
   13870:	d9000317 	ldw	r4,12(sp)
   13874:	00bfffc4 	movi	r2,-1
   13878:	d8800515 	stw	r2,20(sp)
   1387c:	0016da00 	call	16da0 <_Unwind_SjLj_Resume>
   13880:	10801004 	addi	r2,r2,64
   13884:	d8800315 	stw	r2,12(sp)
   13888:	003fd106 	br	137d0 <__cxa_call_unexpected+0xb4>
   1388c:	0013b240 	call	13b24 <__cxa_rethrow>
   13890:	d9000217 	ldw	r4,8(sp)
   13894:	00138980 	call	13898 <_ZN10__cxxabiv111__terminateEPFvvE>

00013898 <_ZN10__cxxabiv111__terminateEPFvvE>:
   13898:	deffef04 	addi	sp,sp,-68
   1389c:	01400074 	movhi	r5,1
   138a0:	00c000b4 	movhi	r3,2
   138a4:	00800074 	movhi	r2,1
   138a8:	200d883a 	mov	r6,r4
   138ac:	108e3d04 	addi	r2,r2,14580
   138b0:	294c2104 	addi	r5,r5,12420
   138b4:	18e1d804 	addi	r3,r3,-30880
   138b8:	d9000204 	addi	r4,sp,8
   138bc:	d8800b15 	stw	r2,44(sp)
   138c0:	dfc01015 	stw	ra,64(sp)
   138c4:	df000f15 	stw	fp,60(sp)
   138c8:	d9800015 	stw	r6,0(sp)
   138cc:	d9400815 	stw	r5,32(sp)
   138d0:	d8c00915 	stw	r3,36(sp)
   138d4:	df000a15 	stw	fp,40(sp)
   138d8:	dec00c15 	stw	sp,48(sp)
   138dc:	0016bb80 	call	16bb8 <_Unwind_SjLj_Register>
   138e0:	00800044 	movi	r2,1
   138e4:	d8800315 	stw	r2,12(sp)
   138e8:	d8800017 	ldw	r2,0(sp)
   138ec:	103ee83a 	callr	r2
   138f0:	00170f40 	call	170f4 <abort>
   138f4:	d8c00417 	ldw	r3,16(sp)
   138f8:	d8800317 	ldw	r2,12(sp)
   138fc:	d8c00015 	stw	r3,0(sp)
   13900:	d8c00517 	ldw	r3,20(sp)
   13904:	d8c00115 	stw	r3,4(sp)
   13908:	1000051e 	bne	r2,zero,13920 <_ZN10__cxxabiv111__terminateEPFvvE+0x88>
   1390c:	d9000017 	ldw	r4,0(sp)
   13910:	0014dd00 	call	14dd0 <__cxa_begin_catch>
   13914:	00800084 	movi	r2,2
   13918:	d8800315 	stw	r2,12(sp)
   1391c:	00170f40 	call	170f4 <abort>
   13920:	10bfffc4 	addi	r2,r2,-1
   13924:	10000126 	beq	r2,zero,1392c <_ZN10__cxxabiv111__terminateEPFvvE+0x94>
   13928:	003b68fa 	trap	3
   1392c:	d8000315 	stw	zero,12(sp)
   13930:	0014e880 	call	14e88 <__cxa_end_catch>
   13934:	d8c00117 	ldw	r3,4(sp)
   13938:	18bfffe0 	cmpeqi	r2,r3,-1
   1393c:	10000426 	beq	r2,zero,13950 <_ZN10__cxxabiv111__terminateEPFvvE+0xb8>
   13940:	d8800117 	ldw	r2,4(sp)
   13944:	d9000017 	ldw	r4,0(sp)
   13948:	d8800315 	stw	r2,12(sp)
   1394c:	001371c0 	call	1371c <__cxa_call_unexpected>
   13950:	d9000017 	ldw	r4,0(sp)
   13954:	00bfffc4 	movi	r2,-1
   13958:	d8800315 	stw	r2,12(sp)
   1395c:	0016da00 	call	16da0 <_Unwind_SjLj_Resume>

00013960 <_ZSt9terminatev>:
   13960:	008000b4 	movhi	r2,2
   13964:	11256f17 	ldw	r4,-27204(r2)
   13968:	deffff04 	addi	sp,sp,-4
   1396c:	dfc00015 	stw	ra,0(sp)
   13970:	00138980 	call	13898 <_ZN10__cxxabiv111__terminateEPFvvE>

00013974 <_ZN10__cxxabiv112__unexpectedEPFvvE>:
   13974:	deffff04 	addi	sp,sp,-4
   13978:	dfc00015 	stw	ra,0(sp)
   1397c:	203ee83a 	callr	r4
   13980:	00139600 	call	13960 <_ZSt9terminatev>

00013984 <_ZSt10unexpectedv>:
   13984:	008000b4 	movhi	r2,2
   13988:	11256617 	ldw	r4,-27240(r2)
   1398c:	deffff04 	addi	sp,sp,-4
   13990:	dfc00015 	stw	ra,0(sp)
   13994:	00139740 	call	13974 <_ZN10__cxxabiv112__unexpectedEPFvvE>

00013998 <_ZSt13set_terminatePFvvE>:
   13998:	20000526 	beq	r4,zero,139b0 <_ZSt13set_terminatePFvvE+0x18>
   1399c:	00c000b4 	movhi	r3,2
   139a0:	008000b4 	movhi	r2,2
   139a4:	10a56f17 	ldw	r2,-27204(r2)
   139a8:	19256f15 	stw	r4,-27204(r3)
   139ac:	f800283a 	ret
   139b0:	01000074 	movhi	r4,1
   139b4:	211c3d04 	addi	r4,r4,28916
   139b8:	003ff806 	br	1399c <_ZSt13set_terminatePFvvE+0x4>

000139bc <_ZSt13get_terminatev>:
   139bc:	008000b4 	movhi	r2,2
   139c0:	10a56f17 	ldw	r2,-27204(r2)
   139c4:	f800283a 	ret

000139c8 <_ZSt14set_unexpectedPFvvE>:
   139c8:	20000526 	beq	r4,zero,139e0 <_ZSt14set_unexpectedPFvvE+0x18>
   139cc:	00c000b4 	movhi	r3,2
   139d0:	008000b4 	movhi	r2,2
   139d4:	10a56617 	ldw	r2,-27240(r2)
   139d8:	19256615 	stw	r4,-27240(r3)
   139dc:	f800283a 	ret
   139e0:	01000074 	movhi	r4,1
   139e4:	210e5804 	addi	r4,r4,14688
   139e8:	003ff806 	br	139cc <_ZSt14set_unexpectedPFvvE+0x4>

000139ec <_ZSt14get_unexpectedv>:
   139ec:	008000b4 	movhi	r2,2
   139f0:	10a56617 	ldw	r2,-27240(r2)
   139f4:	f800283a 	ret

000139f8 <_ZL23__gxx_exception_cleanup19_Unwind_Reason_CodeP17_Unwind_Exception>:
   139f8:	defffe04 	addi	sp,sp,-8
   139fc:	dfc00115 	stw	ra,4(sp)
   13a00:	dc000015 	stw	r16,0(sp)
   13a04:	210000b0 	cmpltui	r4,r4,2
   13a08:	20001326 	beq	r4,zero,13a58 <_ZL23__gxx_exception_cleanup19_Unwind_Reason_CodeP17_Unwind_Exception+0x60>
   13a0c:	28bff417 	ldw	r2,-48(r5)
   13a10:	10ffffc4 	addi	r3,r2,-1
   13a14:	28fff415 	stw	r3,-48(r5)
   13a18:	10800058 	cmpnei	r2,r2,1
   13a1c:	10000426 	beq	r2,zero,13a30 <_ZL23__gxx_exception_cleanup19_Unwind_Reason_CodeP17_Unwind_Exception+0x38>
   13a20:	dfc00117 	ldw	ra,4(sp)
   13a24:	dc000017 	ldw	r16,0(sp)
   13a28:	dec00204 	addi	sp,sp,8
   13a2c:	f800283a 	ret
   13a30:	28bff617 	ldw	r2,-40(r5)
   13a34:	2c000504 	addi	r16,r5,20
   13a38:	10000226 	beq	r2,zero,13a44 <_ZL23__gxx_exception_cleanup19_Unwind_Reason_CodeP17_Unwind_Exception+0x4c>
   13a3c:	8009883a 	mov	r4,r16
   13a40:	103ee83a 	callr	r2
   13a44:	8009883a 	mov	r4,r16
   13a48:	dfc00117 	ldw	ra,4(sp)
   13a4c:	dc000017 	ldw	r16,0(sp)
   13a50:	dec00204 	addi	sp,sp,8
   13a54:	0014c741 	jmpi	14c74 <__cxa_free_exception>
   13a58:	293ff817 	ldw	r4,-32(r5)
   13a5c:	00138980 	call	13898 <_ZN10__cxxabiv111__terminateEPFvvE>

00013a60 <__cxa_init_primary_exception>:
   13a60:	defffe04 	addi	sp,sp,-8
   13a64:	dfc00115 	stw	ra,4(sp)
   13a68:	dc000015 	stw	r16,0(sp)
   13a6c:	217ff015 	stw	r5,-64(r4)
   13a70:	21bff115 	stw	r6,-60(r4)
   13a74:	203fef15 	stw	zero,-68(r4)
   13a78:	2021883a 	mov	r16,r4
   13a7c:	00139ec0 	call	139ec <_ZSt14get_unexpectedv>
   13a80:	80bff215 	stw	r2,-56(r16)
   13a84:	00139bc0 	call	139bc <_ZSt13get_terminatev>
   13a88:	0150caf4 	movhi	r5,17195
   13a8c:	0111d3b4 	movhi	r4,18254
   13a90:	00c00074 	movhi	r3,1
   13a94:	294ac004 	addi	r5,r5,11008
   13a98:	211550c4 	addi	r4,r4,21827
   13a9c:	18ce7e04 	addi	r3,r3,14840
   13aa0:	80bff315 	stw	r2,-52(r16)
   13aa4:	80bfef04 	addi	r2,r16,-68
   13aa8:	817ffb15 	stw	r5,-20(r16)
   13aac:	813ffc15 	stw	r4,-16(r16)
   13ab0:	80fffd15 	stw	r3,-12(r16)
   13ab4:	dfc00117 	ldw	ra,4(sp)
   13ab8:	dc000017 	ldw	r16,0(sp)
   13abc:	dec00204 	addi	sp,sp,8
   13ac0:	f800283a 	ret

00013ac4 <__cxa_throw>:
   13ac4:	defffc04 	addi	sp,sp,-16
   13ac8:	dfc00315 	stw	ra,12(sp)
   13acc:	dc800215 	stw	r18,8(sp)
   13ad0:	dc400115 	stw	r17,4(sp)
   13ad4:	dc000015 	stw	r16,0(sp)
   13ad8:	2823883a 	mov	r17,r5
   13adc:	2021883a 	mov	r16,r4
   13ae0:	3025883a 	mov	r18,r6
   13ae4:	0014fd40 	call	14fd4 <__cxa_get_globals>
   13ae8:	10c00117 	ldw	r3,4(r2)
   13aec:	900d883a 	mov	r6,r18
   13af0:	880b883a 	mov	r5,r17
   13af4:	18c00044 	addi	r3,r3,1
   13af8:	8009883a 	mov	r4,r16
   13afc:	10c00115 	stw	r3,4(r2)
   13b00:	0013a600 	call	13a60 <__cxa_init_primary_exception>
   13b04:	14000c04 	addi	r16,r2,48
   13b08:	00c00044 	movi	r3,1
   13b0c:	10c00015 	stw	r3,0(r2)
   13b10:	8009883a 	mov	r4,r16
   13b14:	0016c940 	call	16c94 <_Unwind_SjLj_RaiseException>
   13b18:	8009883a 	mov	r4,r16
   13b1c:	0014dd00 	call	14dd0 <__cxa_begin_catch>
   13b20:	00139600 	call	13960 <_ZSt9terminatev>

00013b24 <__cxa_rethrow>:
   13b24:	defffe04 	addi	sp,sp,-8
   13b28:	dfc00115 	stw	ra,4(sp)
   13b2c:	dc000015 	stw	r16,0(sp)
   13b30:	0014fd40 	call	14fd4 <__cxa_get_globals>
   13b34:	10c00117 	ldw	r3,4(r2)
   13b38:	11000017 	ldw	r4,0(r2)
   13b3c:	18c00044 	addi	r3,r3,1
   13b40:	10c00115 	stw	r3,4(r2)
   13b44:	20001126 	beq	r4,zero,13b8c <__cxa_rethrow+0x68>
   13b48:	20c00b17 	ldw	r3,44(r4)
   13b4c:	21800c17 	ldw	r6,48(r4)
   13b50:	016f3574 	movhi	r5,48341
   13b54:	29754004 	addi	r5,r5,-11008
   13b58:	01ee2cb4 	movhi	r7,47282
   13b5c:	39eaaf04 	addi	r7,r7,-21828
   13b60:	194b883a 	add	r5,r3,r5
   13b64:	28c7803a 	cmpltu	r3,r5,r3
   13b68:	31cd883a 	add	r6,r6,r7
   13b6c:	1987883a 	add	r3,r3,r6
   13b70:	18000726 	beq	r3,zero,13b90 <__cxa_rethrow+0x6c>
   13b74:	10000015 	stw	zero,0(r2)
   13b78:	24000b04 	addi	r16,r4,44
   13b7c:	8009883a 	mov	r4,r16
   13b80:	0016de40 	call	16de4 <_Unwind_SjLj_Resume_or_Rethrow>
   13b84:	8009883a 	mov	r4,r16
   13b88:	0014dd00 	call	14dd0 <__cxa_begin_catch>
   13b8c:	00139600 	call	13960 <_ZSt9terminatev>
   13b90:	294000a8 	cmpgeui	r5,r5,2
   13b94:	283ff71e 	bne	r5,zero,13b74 <__cxa_rethrow+0x50>
   13b98:	20800517 	ldw	r2,20(r4)
   13b9c:	0085c83a 	sub	r2,zero,r2
   13ba0:	20800515 	stw	r2,20(r4)
   13ba4:	003ff406 	br	13b78 <__cxa_rethrow+0x54>

00013ba8 <_ZNK10__cxxabiv120__function_type_info15__is_function_pEv>:
   13ba8:	00800044 	movi	r2,1
   13bac:	f800283a 	ret

00013bb0 <_ZN10__cxxabiv120__function_type_infoD1Ev>:
   13bb0:	008000b4 	movhi	r2,2
   13bb4:	10a26804 	addi	r2,r2,-30304
   13bb8:	20800015 	stw	r2,0(r4)
   13bbc:	0013fb81 	jmpi	13fb8 <_ZNSt9type_infoD1Ev>

00013bc0 <_ZN10__cxxabiv120__function_type_infoD0Ev>:
   13bc0:	defffe04 	addi	sp,sp,-8
   13bc4:	008000b4 	movhi	r2,2
   13bc8:	dc000015 	stw	r16,0(sp)
   13bcc:	dfc00115 	stw	ra,4(sp)
   13bd0:	10a26804 	addi	r2,r2,-30304
   13bd4:	20800015 	stw	r2,0(r4)
   13bd8:	2021883a 	mov	r16,r4
   13bdc:	0013fb80 	call	13fb8 <_ZNSt9type_infoD1Ev>
   13be0:	01400204 	movi	r5,8
   13be4:	8009883a 	mov	r4,r16
   13be8:	dfc00117 	ldw	ra,4(sp)
   13bec:	dc000017 	ldw	r16,0(sp)
   13bf0:	dec00204 	addi	sp,sp,8
   13bf4:	0012b581 	jmpi	12b58 <_ZdlPvj>

00013bf8 <_Znaj>:
   13bf8:	00150281 	jmpi	15028 <_Znwj>

00013bfc <_ZNK10__cxxabiv119__pointer_type_info14__is_pointer_pEv>:
   13bfc:	00800044 	movi	r2,1
   13c00:	f800283a 	ret

00013c04 <_ZN10__cxxabiv119__pointer_type_infoD1Ev>:
   13c04:	008000b4 	movhi	r2,2
   13c08:	10a27c04 	addi	r2,r2,-30224
   13c0c:	20800015 	stw	r2,0(r4)
   13c10:	00150b01 	jmpi	150b0 <_ZN10__cxxabiv117__pbase_type_infoD1Ev>

00013c14 <_ZN10__cxxabiv119__pointer_type_infoD0Ev>:
   13c14:	defffe04 	addi	sp,sp,-8
   13c18:	008000b4 	movhi	r2,2
   13c1c:	dc000015 	stw	r16,0(sp)
   13c20:	dfc00115 	stw	ra,4(sp)
   13c24:	10a27c04 	addi	r2,r2,-30224
   13c28:	20800015 	stw	r2,0(r4)
   13c2c:	2021883a 	mov	r16,r4
   13c30:	00150b00 	call	150b0 <_ZN10__cxxabiv117__pbase_type_infoD1Ev>
   13c34:	01400404 	movi	r5,16
   13c38:	8009883a 	mov	r4,r16
   13c3c:	dfc00117 	ldw	ra,4(sp)
   13c40:	dc000017 	ldw	r16,0(sp)
   13c44:	dec00204 	addi	sp,sp,8
   13c48:	0012b581 	jmpi	12b58 <_ZdlPvj>

00013c4c <_ZNK10__cxxabiv119__pointer_type_info15__pointer_catchEPKNS_17__pbase_type_infoEPPvj>:
   13c4c:	defffb04 	addi	sp,sp,-20
   13c50:	dc800315 	stw	r18,12(sp)
   13c54:	dc400215 	stw	r17,8(sp)
   13c58:	dfc00415 	stw	ra,16(sp)
   13c5c:	388000a8 	cmpgeui	r2,r7,2
   13c60:	24800317 	ldw	r18,12(r4)
   13c64:	2823883a 	mov	r17,r5
   13c68:	10000a26 	beq	r2,zero,13c94 <_ZNK10__cxxabiv119__pointer_type_info15__pointer_catchEPKNS_17__pbase_type_infoEPPvj+0x48>
   13c6c:	90800017 	ldw	r2,0(r18)
   13c70:	89400317 	ldw	r5,12(r17)
   13c74:	39c00084 	addi	r7,r7,2
   13c78:	10800417 	ldw	r2,16(r2)
   13c7c:	9009883a 	mov	r4,r18
   13c80:	dfc00417 	ldw	ra,16(sp)
   13c84:	dc800317 	ldw	r18,12(sp)
   13c88:	dc400217 	ldw	r17,8(sp)
   13c8c:	dec00504 	addi	sp,sp,20
   13c90:	1000683a 	jmp	r2
   13c94:	008000b4 	movhi	r2,2
   13c98:	91000117 	ldw	r4,4(r18)
   13c9c:	1165ee17 	ldw	r5,-26696(r2)
   13ca0:	21400926 	beq	r4,r5,13cc8 <_ZNK10__cxxabiv119__pointer_type_info15__pointer_catchEPKNS_17__pbase_type_infoEPPvj+0x7c>
   13ca4:	20800007 	ldb	r2,0(r4)
   13ca8:	10800aa0 	cmpeqi	r2,r2,42
   13cac:	103fef1e 	bne	r2,zero,13c6c <_ZNK10__cxxabiv119__pointer_type_info15__pointer_catchEPKNS_17__pbase_type_infoEPPvj+0x20>
   13cb0:	d9c00115 	stw	r7,4(sp)
   13cb4:	d9800015 	stw	r6,0(sp)
   13cb8:	001766c0 	call	1766c <strcmp>
   13cbc:	d9800017 	ldw	r6,0(sp)
   13cc0:	d9c00117 	ldw	r7,4(sp)
   13cc4:	103fe91e 	bne	r2,zero,13c6c <_ZNK10__cxxabiv119__pointer_type_info15__pointer_catchEPKNS_17__pbase_type_infoEPPvj+0x20>
   13cc8:	89000317 	ldw	r4,12(r17)
   13ccc:	20800017 	ldw	r2,0(r4)
   13cd0:	10800317 	ldw	r2,12(r2)
   13cd4:	103ee83a 	callr	r2
   13cd8:	1080005c 	xori	r2,r2,1
   13cdc:	dfc00417 	ldw	ra,16(sp)
   13ce0:	dc800317 	ldw	r18,12(sp)
   13ce4:	dc400217 	ldw	r17,8(sp)
   13ce8:	dec00504 	addi	sp,sp,20
   13cec:	f800283a 	ret

00013cf0 <_ZN10__cxxabiv120__si_class_type_infoD1Ev>:
   13cf0:	008000b4 	movhi	r2,2
   13cf4:	10a29204 	addi	r2,r2,-30136
   13cf8:	20800015 	stw	r2,0(r4)
   13cfc:	00129441 	jmpi	12944 <_ZN10__cxxabiv117__class_type_infoD1Ev>

00013d00 <_ZN10__cxxabiv120__si_class_type_infoD0Ev>:
   13d00:	defffe04 	addi	sp,sp,-8
   13d04:	008000b4 	movhi	r2,2
   13d08:	dc000015 	stw	r16,0(sp)
   13d0c:	dfc00115 	stw	ra,4(sp)
   13d10:	10a29204 	addi	r2,r2,-30136
