
jiwy_controller.elf:     file format elf32-littlenios2
jiwy_controller.elf
architecture: nios2:r1, flags 0x00000112:
EXEC_P, HAS_SYMS, D_PAGED
start address 0x00010224

Program Header:
    LOAD off    0x00001000 vaddr 0x00010000 paddr 0x00010000 align 2**12
         filesz 0x00000020 memsz 0x00000020 flags r-x
    LOAD off    0x00001020 vaddr 0x00010020 paddr 0x00010020 align 2**12
         filesz 0x000073b0 memsz 0x000073b0 flags r-x
    LOAD off    0x000083d0 vaddr 0x000173d0 paddr 0x00017924 align 2**12
         filesz 0x00000554 memsz 0x00000554 flags rw-
    LOAD off    0x00008e78 vaddr 0x00017e78 paddr 0x00017e78 align 2**12
         filesz 0x00000000 memsz 0x00000188 flags rw-

Sections:
Idx Name          Size      VMA       LMA       File off  Algn
  0 .entry        00000020  00010000  00010000  00001000  2**5
                  CONTENTS, ALLOC, LOAD, READONLY, CODE
  1 .exceptions   00000204  00010020  00010020  00001020  2**2
                  CONTENTS, ALLOC, LOAD, READONLY, CODE
  2 .text         00006924  00010224  00010224  00001224  2**2
                  CONTENTS, ALLOC, LOAD, READONLY, CODE
  3 .rodata       00000888  00016b48  00016b48  00007b48  2**2
                  CONTENTS, ALLOC, LOAD, READONLY, DATA
  4 .rwdata       00000554  000173d0  00017924  000083d0  2**2
                  CONTENTS, ALLOC, LOAD, DATA, SMALL_DATA
  5 .bss          00000188  00017e78  00017e78  00008e78  2**2
                  ALLOC, SMALL_DATA
  6 .onchip_mem   00000000  00018000  00018000  00008924  2**0
                  CONTENTS
  7 .comment      0000002d  00000000  00000000  00008924  2**0
                  CONTENTS, READONLY
  8 .debug_aranges 00001030  00000000  00000000  00008958  2**3
                  CONTENTS, READONLY, DEBUGGING, OCTETS
  9 .debug_info   0001fff9  00000000  00000000  00009988  2**0
                  CONTENTS, READONLY, DEBUGGING, OCTETS
 10 .debug_abbrev 0000bcbd  00000000  00000000  00029981  2**0
                  CONTENTS, READONLY, DEBUGGING, OCTETS
 11 .debug_line   0000ed58  00000000  00000000  0003563e  2**0
                  CONTENTS, READONLY, DEBUGGING, OCTETS
 12 .debug_frame  000029f0  00000000  00000000  00044398  2**2
                  CONTENTS, READONLY, DEBUGGING, OCTETS
 13 .debug_str    000094e2  00000000  00000000  00046d88  2**0
                  CONTENTS, READONLY, DEBUGGING, OCTETS
 14 .debug_loc    0000730a  00000000  00000000  0005026a  2**0
                  CONTENTS, READONLY, DEBUGGING, OCTETS
 15 .debug_alt_sim_info 00000010  00000000  00000000  00057574  2**2
                  CONTENTS, READONLY, DEBUGGING, OCTETS
 16 .debug_ranges 000015d0  00000000  00000000  00057588  2**3
                  CONTENTS, READONLY, DEBUGGING, OCTETS
 17 .thread_model 00000003  00000000  00000000  0005fcaf  2**0
                  CONTENTS, READONLY
 18 .cpu          00000003  00000000  00000000  0005fcb2  2**0
                  CONTENTS, READONLY
 19 .qsys         00000001  00000000  00000000  0005fcb5  2**0
                  CONTENTS, READONLY
 20 .simulation_enabled 00000001  00000000  00000000  0005fcb6  2**0
                  CONTENTS, READONLY
 21 .sysid_hash   00000004  00000000  00000000  0005fcb7  2**0
                  CONTENTS, READONLY
 22 .sysid_base   00000004  00000000  00000000  0005fcbb  2**0
                  CONTENTS, READONLY
 23 .sysid_time   00000004  00000000  00000000  0005fcbf  2**0
                  CONTENTS, READONLY
 24 .stderr_dev   00000009  00000000  00000000  0005fcc3  2**0
                  CONTENTS, READONLY
 25 .stdin_dev    00000009  00000000  00000000  0005fccc  2**0
                  CONTENTS, READONLY
 26 .stdout_dev   00000009  00000000  00000000  0005fcd5  2**0
                  CONTENTS, READONLY
 27 .sopc_system_name 00000013  00000000  00000000  0005fcde  2**0
                  CONTENTS, READONLY
 28 .quartus_project_dir 0000002a  00000000  00000000  0005fcf1  2**0
                  CONTENTS, READONLY
SYMBOL TABLE:
00010000 l    d  .entry	00000000 .entry
00010020 l    d  .exceptions	00000000 .exceptions
00010224 l    d  .text	00000000 .text
00016b48 l    d  .rodata	00000000 .rodata
000173d0 l    d  .rwdata	00000000 .rwdata
00017e78 l    d  .bss	00000000 .bss
00018000 l    d  .onchip_mem	00000000 .onchip_mem
00000000 l    d  .comment	00000000 .comment
00000000 l    d  .debug_aranges	00000000 .debug_aranges
00000000 l    d  .debug_info	00000000 .debug_info
00000000 l    d  .debug_abbrev	00000000 .debug_abbrev
00000000 l    d  .debug_line	00000000 .debug_line
00000000 l    d  .debug_frame	00000000 .debug_frame
00000000 l    d  .debug_str	00000000 .debug_str
00000000 l    d  .debug_loc	00000000 .debug_loc
00000000 l    d  .debug_alt_sim_info	00000000 .debug_alt_sim_info
00000000 l    d  .debug_ranges	00000000 .debug_ranges
00000000 l    df *ABS*	00000000 c:/Users/gteho/Repositories/EMSYS-LAB/nios/software/jiwy_controller_bsp//obj/HAL/src/crt0.o
0001025c l       .text	00000000 alt_after_alt_main
00000000 l    df *ABS*	00000000 alt_irq_handler.c
00000000 l    df *ABS*	00000000 alt_instruction_exception_entry.c
00000000 l    df *ABS*	00000000 main.cpp
000176b4 l     O .rwdata	00000001 _ZStL19piecewise_construct
000176b5 l     O .rwdata	00000001 _ZStL13allocator_arg
000176b6 l     O .rwdata	00000001 _ZStL6ignore
000176b7 l     O .rwdata	00000001 _ZN6SerialL12MESSAGE_SIZEE
000103b4 l     F .text	00000198 _Z41__static_initialization_and_destruction_0ii
0001054c l     F .text	00000030 _GLOBAL__sub_I_uart
00000000 l    df *ABS*	00000000 encoder.cpp
00000000 l    df *ABS*	00000000 motor.cpp
00000000 l    df *ABS*	00000000 uart.cpp
000176c0 l     O .rwdata	00000001 _ZStL19piecewise_construct
000176c1 l     O .rwdata	00000001 _ZStL13allocator_arg
000176c2 l     O .rwdata	00000001 _ZStL6ignore
000176c3 l     O .rwdata	00000001 _ZN6SerialL12MESSAGE_SIZEE
000113c0 l     F .text	00000074 _Z41__static_initialization_and_destruction_0ii
00011434 l     F .text	00000030 _GLOBAL__sub_I__ZN6Serial4UART10uart_readyE
00011464 l     F .text	00000030 _GLOBAL__sub_D__ZN6Serial4UART10uart_readyE
00000000 l    df *ABS*	00000000 eh_personality.cc
00011cf4 l     F .text	00000090 _ZL16get_adjusted_ptrPKSt9type_infoS1_PPv
00011d84 l     F .text	000001e8 _ZL28read_encoded_value_with_basehjPKhPj
00011f6c l     F .text	00000070 _ZL21base_of_encoded_valuehP15_Unwind_Context
00011fdc l     F .text	0000012c _ZL17parse_lsda_headerP15_Unwind_ContextPKhP16lsda_header_info
00012108 l     F .text	00000110 _ZL20check_exception_specP16lsda_header_infoPKSt9type_infoPvl
00000000 l    df *ABS*	00000000 eh_terminate.cc
00000000 l    df *ABS*	00000000 eh_throw.cc
00012b8c l     F .text	00000068 _ZL23__gxx_exception_cleanup19_Unwind_Reason_CodeP17_Unwind_Exception
00000000 l    df *ABS*	00000000 eh_unex_handler.cc
00000000 l    df *ABS*	00000000 function_type_info.cc
00000000 l    df *ABS*	00000000 pointer_type_info.cc
00000000 l    df *ABS*	00000000 si_class_type_info.cc
00000000 l    df *ABS*	00000000 tinfo.cc
00000000 l    df *ABS*	00000000 functional.cc
00000000 l    df *ABS*	00000000 class_type_info.cc
00000000 l    df *ABS*	00000000 del_op.cc
00000000 l    df *ABS*	00000000 del_ops.cc
00000000 l    df *ABS*	00000000 eh_alloc.cc
000134d8 l     F .text	000000cc _ZN12_GLOBAL__N_14pool4freeEPv.constprop.0
00017ef0 l     O .bss	00000010 _ZN12_GLOBAL__N_114emergency_poolE
000135a4 l     F .text	00000090 _ZN12_GLOBAL__N_14pool8allocateEj.constprop.0
00013754 l     F .text	00000064 _GLOBAL__sub_I__ZN9__gnu_cxx9__freeresEv
00000000 l    df *ABS*	00000000 eh_call.cc
00000000 l    df *ABS*	00000000 eh_catch.cc
00000000 l    df *ABS*	00000000 eh_exception.cc
00000000 l    df *ABS*	00000000 eh_globals.cc
00017e8c l     O .bss	00000008 _ZL10eh_globals
00000000 l    df *ABS*	00000000 eh_term_handler.cc
00000000 l    df *ABS*	00000000 fundamental_type_info.cc
00000000 l    df *ABS*	00000000 pbase_type_info.cc
000178ec l     O .rwdata	00000008 _ZZNK10__cxxabiv117__pbase_type_info10__do_catchEPKSt9type_infoPPvjE3pmf
000178e8 l     O .rwdata	00000004 _ZZNK10__cxxabiv117__pbase_type_info10__do_catchEPKSt9type_infoPPvjE2pm
00000000 l    df *ABS*	00000000 pmem_type_info.cc
00000000 l    df *ABS*	00000000 pure.cc
00000000 l    df *ABS*	00000000 eh_aux_runtime.cc
00000000 l    df *ABS*	00000000 bad_array_new.cc
00000000 l    df *ABS*	00000000 bad_cast.cc
00000000 l    df *ABS*	00000000 bad_typeid.cc
00000000 l    df *ABS*	00000000 bad_alloc.cc
00000000 l    df *ABS*	00000000 unwind-sjlj.c
00014010 l     F .text	00000114 _Unwind_ForcedUnwind_Phase2
00017e94 l     O .bss	00000004 fc_static
00014124 l     F .text	000000d8 _Unwind_RaiseException_Phase2
000141fc l     F .text	0000002c uw_install_context.constprop.0.isra.0
00000000 l    df *ABS*	00000000 abort.c
00000000 l    df *ABS*	00000000 malloc.c
00000000 l    df *ABS*	00000000 memmove.c
00000000 l    df *ABS*	00000000 memset.c
00000000 l    df *ABS*	00000000 nano-mallocr.c
00000000 l    df *ABS*	00000000 nano-mallocr.c
00000000 l    df *ABS*	00000000 puts.c
00000000 l    df *ABS*	00000000 sbrkr.c
00000000 l    df *ABS*	00000000 signal.c
00000000 l    df *ABS*	00000000 signalr.c
00000000 l    df *ABS*	00000000 strcmp.c
00000000 l    df *ABS*	00000000 strlen.c
00000000 l    df *ABS*	00000000 fvwrite_small_dev.c
00000000 l    df *ABS*	00000000 impure.c
000173d0 l     O .rwdata	000000e4 impure_data
00000000 l    df *ABS*	00000000 int_errno.c
00000000 l    df *ABS*	00000000 writer.c
00000000 l    df *ABS*	00000000 alt_exit.c
00000000 l    df *ABS*	00000000 alt_getpid.c
00000000 l    df *ABS*	00000000 alt_iic.c
00000000 l    df *ABS*	00000000 alt_iic_isr_register.c
00000000 l    df *ABS*	00000000 alt_irq_vars.c
00000000 l    df *ABS*	00000000 alt_kill.c
00015024 l     F .text	0000003c alt_get_errno
00000000 l    df *ABS*	00000000 alt_load.c
0001518c l     F .text	00000068 alt_load_section
00000000 l    df *ABS*	00000000 alt_main.c
00000000 l    df *ABS*	00000000 alt_malloc_lock.c
00000000 l    df *ABS*	00000000 alt_sbrk.c
00017900 l     O .rwdata	00000004 heap_end
00000000 l    df *ABS*	00000000 alt_write.c
000153f4 l     F .text	0000003c alt_get_errno
00000000 l    df *ABS*	00000000 alt_sys_init.c
00015534 l     F .text	00000034 alt_dev_reg
000174b4 l     O .rwdata	0000002c jtag_uart
000174e0 l     O .rwdata	0000002c uart_0
00000000 l    df *ABS*	00000000 altera_avalon_jtag_uart_fd.c
00000000 l    df *ABS*	00000000 altera_avalon_jtag_uart_read.c
00000000 l    df *ABS*	00000000 altera_avalon_jtag_uart_write.c
00000000 l    df *ABS*	00000000 altera_avalon_timer_sc.c
00015840 l     F .text	0000007c alt_avalon_timer_sc_irq
00000000 l    df *ABS*	00000000 altera_avalon_uart_fd.c
00000000 l    df *ABS*	00000000 altera_avalon_uart_read.c
00015a00 l     F .text	0000003c alt_get_errno
00000000 l    df *ABS*	00000000 altera_avalon_uart_write.c
00015b00 l     F .text	0000003c alt_get_errno
00000000 l    df *ABS*	00000000 alt_close.c
00015c1c l     F .text	0000003c alt_get_errno
00000000 l    df *ABS*	00000000 alt_dcache_flush_all.c
00000000 l    df *ABS*	00000000 alt_dev.c
00015d54 l     F .text	0000002c alt_dev_null_write
00000000 l    df *ABS*	00000000 alt_dev_llist_insert.c
00015d80 l     F .text	0000003c alt_get_errno
00000000 l    df *ABS*	00000000 alt_do_ctors.c
00000000 l    df *ABS*	00000000 alt_do_dtors.c
00000000 l    df *ABS*	00000000 alt_errno.c
00000000 l    df *ABS*	00000000 alt_icache_flush_all.c
00000000 l    df *ABS*	00000000 alt_io_redirect.c
00015fe4 l     F .text	000000d4 alt_open_fd
00000000 l    df *ABS*	00000000 alt_open.c
00016134 l     F .text	0000003c alt_get_errno
00016170 l     F .text	000000dc alt_file_locked
00000000 l    df *ABS*	00000000 alt_release_fd.c
00000000 l    df *ABS*	00000000 alt_tick.c
00000000 l    df *ABS*	00000000 altera_nios2_gen2_irq.c
00000000 l    df *ABS*	00000000 alt_find_dev.c
00000000 l    df *ABS*	00000000 alt_find_file.c
00000000 l    df *ABS*	00000000 alt_get_fd.c
00000000 l    df *ABS*	00000000 atexit.c
00000000 l    df *ABS*	00000000 exit.c
00000000 l    df *ABS*	00000000 memcmp.c
00000000 l    df *ABS*	00000000 __atexit.c
00000000 l    df *ABS*	00000000 __call_atexit.c
00017eb4 g     O .bss	00000004 alt_instruction_exception_handler
000136bc g     F .text	00000028 __cxa_free_exception
0001314c g     F .text	00000008 _ZNKSt9type_info15__is_function_pEv
0001712c  w    O .rodata	00000010 _ZTIPKDs
00012b18 g     F .text	00000014 _ZSt10unexpectedv
00011090 g     F .text	000000dc _ZN6Serial4UART10uart_0_isrEPv
000178d0  w    O .rwdata	00000008 _ZTIw
000178b0  w    O .rwdata	00000008 _ZTIc
00015278 g     F .text	0000007c alt_main
0001484c g     F .text	00000080 _puts_r
00017f00 g     O .bss	00000100 alt_irq
000139f0 g     F .text	00000004 _ZN10__cxxabiv115__forced_unwindD1Ev
000178a8  w    O .rwdata	00000008 _ZTIa
000116f8  w    F .text	00000140 _ZNSt8functionIFvRN6Serial10rx_messageEEEC1ERKS4_
000142a8 g     F .text	00000020 .hidden _Unwind_GetIPInfo
00017924 g       *ABS*	00000000 __flash_rwdata_start
00016fbc  w    O .rodata	00000010 _ZTIPy
0001774c  w    O .rwdata	00000002 _ZTSa
00010b8c  w    F .text	00000024 _ZSt7forwardIRN6Serial10rx_messageEEOT_RNSt16remove_referenceIS3_E4typeE
00016d20  w    O .rodata	00000014 _ZTVSt17bad_function_call
00012cb8 g     F .text	00000084 __cxa_rethrow
00014240 g     F .text	00000010 .hidden _Unwind_SjLj_Unregister
00012b5c g     F .text	00000024 _ZSt14set_unexpectedPFvvE
0001704c  w    O .rodata	00000010 _ZTIPKi
00014298 g     F .text	00000010 .hidden _Unwind_GetIP
00018000 g       *ABS*	00000000 __alt_heap_start
0001778c  w    O .rwdata	00000003 _ZTSPj
00010744  w    F .text	00000094 _ZN6Serial10tx_messageC2Ell
00011994  w    F .text	00000038 _ZNKSt8functionIFvRN6Serial10rx_messageEEEcvbEv
00014b8c g     F .text	0000004c _kill_r
00010db8  w    F .text	00000058 _ZSt13__invoke_implIvRPFvRN6Serial10rx_messageEEJS2_EET_St14__invoke_otherOT0_DpOT1_
00013fc8 g     F .text	00000010 _ZNSt9bad_allocD2Ev
00010f38 g     F .text	00000064 _ZN5Plant5MotorC2Emm
00014980 g     F .text	00000078 _signal_r
000177b0  w    O .rwdata	00000003 _ZTSPx
0001166c  w    F .text	0000005c _ZSt4copyIPhS0_ET0_T_S2_S1_
000178b8  w    O .rwdata	00000008 _ZTIDi
00017810  w    O .rwdata	00000005 _ZTSPKDd
000177a4  w    O .rwdata	00000003 _ZTSPm
000106d4  w    F .text	00000070 _ZN6Serial10rx_message13getSecondWordEv
00013728 g     F .text	0000002c __cxa_free_dependent_exception
00010ff4 g     F .text	00000058 _ZN5Plant5Motor13setSecondWordEm
00012e80 g     F .text	00000010 _ZN10__cxxabiv120__si_class_type_infoD2Ev
00016c58  w    O .rodata	00000025 _ZTSN10__cxxabiv120__si_class_type_infoE
00015318 g     F .text	00000024 __malloc_unlock
00017718  w    O .rwdata	00000005 _ZTSPKDu
0001725c  w    O .rodata	00000024 _ZTVN10__cxxabiv129__pointer_to_member_type_infoE
000139f0 g     F .text	00000004 _ZN10__cxxabiv115__forced_unwindD2Ev
00013984 g     F .text	00000020 _ZSt18uncaught_exceptionv
00010260 g     F .text	000000ac _Z17handleUartMessageRN6Serial10rx_messageE
000112e8 g     F .text	000000d8 _ZN6Serial4UART14convertToArrayENS_10tx_messageE
00013e18 g     F .text	0000000c __cxa_deleted_virtual
00016f3c  w    O .rodata	00000010 _ZTIPDn
0001190c  w    F .text	00000088 _ZSt13__copy_move_aILb0EPhS0_ET1_T0_S2_S1_
0001456c g     F .text	00000060 memmove
00011638  w    F .text	00000034 _ZNSt5arrayIhLj4EE3endEv
00017788  w    O .rwdata	00000002 _ZTSj
000139c0 g     F .text	00000004 _ZNSt9exceptionD2Ev
00016c04  w    O .rodata	00000024 _ZTSN10__cxxabiv119__pointer_type_infoE
00012d94 g     F .text	00000010 _ZN10__cxxabiv119__pointer_type_infoD1Ev
000172f4  w    O .rodata	0000000c _ZTISt8bad_cast
00016e3c  w    O .rodata	00000014 _ZTVSt13bad_exception
000165c8 g     F .text	00000024 altera_nios2_gen2_irq_init
00010810  w    F .text	00000150 _ZNSt8functionIFvRN6Serial10rx_messageEEEC2IPS3_vvEET_
00017734  w    O .rwdata	00000004 _ZTSPDi
00013ecc g     F .text	00000010 _ZNSt20bad_array_new_lengthD1Ev
000176f8  w    O .rwdata	00000002 _ZTSb
000114f8  w    F .text	0000003c _ZNSt5arrayIhLj4EEixEj
00010000 g     F .entry	0000000c __reset
00017748  w    O .rwdata	00000004 _ZTSPKc
000142e4 g     F .text	00000008 .hidden _Unwind_GetRegionStart
000177c0  w    O .rwdata	00000004 _ZTSPKy
00017700  w    O .rwdata	00000004 _ZTSPKb
000119cc  w    F .text	00000024 _ZSt4moveIRSt9_Any_dataEONSt16remove_referenceIT_E4typeEOS3_
00010020 g       *ABS*	00000000 __flash_exceptions_start
00011c8c  w    F .text	00000068 _ZNSt11__copy_moveILb0ELb1ESt26random_access_iterator_tagE8__copy_mIhEEPT_PKS3_S6_S4_
0001706c  w    O .rodata	00000010 _ZTIPKt
00017750  w    O .rwdata	00000003 _ZTSPa
00017ea0 g     O .bss	00000004 errno
00011c4c  w    F .text	00000040 _ZSt14__copy_move_a2ILb0EPhS0_ET1_T0_S2_S1_
00017e85 g     O .bss	00000004 _ZN6Serial4UART7rx_dataE
000176f4  w    O .rwdata	00000004 _ZTSPKv
000144ac g     F .text	00000088 .hidden _Unwind_Backtrace
0001718c  w    O .rodata	00000010 _ZTIPKb
00017eac g     O .bss	00000004 alt_argv
0001f6b4 g       *ABS*	00000000 _gp
00013f84 g     F .text	00000038 _ZNSt10bad_typeidD0Ev
00013a28 g     F .text	00000010 _ZN10__cxxabiv123__fundamental_type_infoD1Ev
00017ed0 g     O .bss	00000010 pan_motor
00013f30 g     F .text	00000038 _ZNSt8bad_castD0Ev
00014d6c g     F .text	00000020 getpid
000128b0 g     F .text	0000017c __cxa_call_unexpected
00010e10  w    F .text	00000060 _ZNSt14_Function_base13_Base_managerIPFvRN6Serial10rx_messageEEE8_M_cloneERSt9_Any_dataRKS7_St17integral_constantIbLb1EE
00013810 g     F .text	00000008 __cxa_get_exception_ptr
0001779c  w    O .rwdata	00000004 _ZTSPKl
00017534 g     O .rwdata	00000180 alt_fd_list
00011be4  w    F .text	00000040 _ZSt14__copy_move_a1ILb0EPhS0_ET1_T0_S2_S1_
00013a98 g     F .text	00000038 _ZN10__cxxabiv117__pbase_type_infoD0Ev
0001701c  w    O .rodata	00000010 _ZTIPl
000143cc g     F .text	00000044 .hidden _Unwind_SjLj_ForcedUnwind
00014268 g     F .text	00000018 .hidden _Unwind_GetCFA
00017890  w    O .rwdata	00000008 _ZTIt
00012b2c g     F .text	00000024 _ZSt13set_terminatePFvvE
000165ec g     F .text	00000090 alt_find_dev
000176f0  w    O .rwdata	00000003 _ZTSPv
000136e4 g     F .text	00000044 __cxa_allocate_dependent_exception
00017ee0 g     O .bss	00000010 _ZN6Serial4UART8callbackE
00010d70  w    F .text	00000024 _ZSt11__addressofIKPFvRN6Serial10rx_messageEEEPT_RS6_
000132a4 g     F .text	00000018 _ZNK10__cxxabiv117__class_type_info20__do_find_public_srcEiPKvPKS0_S2_
000160b8 g     F .text	0000007c alt_io_redirect
00016b48 g       *ABS*	00000000 __DTOR_END__
000109fc  w    F .text	00000058 _ZNSt17_Function_handlerIFvRN6Serial10rx_messageEEPS3_E9_M_invokeERKSt9_Any_dataS2_
00017220  w    O .rodata	0000002e _ZTSN10__cxxabiv129__pointer_to_member_type_infoE
000171bc  w    O .rodata	00000010 _ZTIPv
000132bc g     F .text	00000010 _ZN10__cxxabiv117__class_type_infoD1Ev
00011bc0  w    F .text	00000024 _ZSt12__niter_baseIPhET_S1_
000148cc g     F .text	00000010 puts
000178d8  w    O .rwdata	00000008 _ZTIb
000171f0  w    O .rodata	0000000c _ZTIN10__cxxabiv117__pbase_type_infoE
00015f4c g     F .text	00000098 alt_exception_cause_generated_bad_addr
00017738  w    O .rwdata	00000005 _ZTSPKDi
0001700c  w    O .rodata	00000010 _ZTIPKl
00012da4 g     F .text	00000038 _ZN10__cxxabiv119__pointer_type_infoD0Ev
00013ecc g     F .text	00000010 _ZNSt20bad_array_new_lengthD2Ev
000156c0 g     F .text	000000ec altera_avalon_jtag_uart_read
0001454c g     F .text	00000010 malloc
0001729c  w    O .rodata	00000019 _ZTSSt20bad_array_new_length
00011494  w    F .text	0000002c _ZNKSt14_Function_base8_M_emptyEv
000149f8 g     F .text	000000b4 _raise_r
00016f2c  w    O .rodata	00000010 _ZTIPKDn
00017774  w    O .rwdata	00000003 _ZTSPt
0001116c g     F .text	00000090 _ZN6Serial4UARTC1ESt8functionIFvRNS_10rx_messageEEE
00013a38 g     F .text	00000038 _ZN10__cxxabiv123__fundamental_type_infoD0Ev
00010ed8 g     F .text	00000034 _ZN5Plant7EncoderC1Em
00014bd8 g     F .text	00000004 _getpid_r
000139a4 g     F .text	0000001c _ZSt19uncaught_exceptionsv
00013634 g     F .text	00000030 _ZN9__gnu_cxx9__freeresEv
00017830  w    O .rwdata	00000008 _ZTIDd
00013370 g     F .text	0000009c _ZNK10__cxxabiv117__class_type_info10__do_catchEPKSt9type_infoPPvj
000177d8  w    O .rwdata	00000004 _ZTSPKd
00014aac g     F .text	000000a0 __sigtramp_r
000148dc g     F .text	00000048 _sbrk_r
000139c8 g     F .text	0000000c _ZGTtNKSt9exception4whatEv
00016cc8  w    O .rodata	00000020 _ZTVSt9type_info
00013a88 g     F .text	00000010 _ZN10__cxxabiv117__pbase_type_infoD1Ev
000139c8 g     F .text	0000000c _ZNKSt9exception4whatEv
000177a8  w    O .rwdata	00000004 _ZTSPKm
00017914 g     O .rwdata	00000004 alt_max_fd
0001711c  w    O .rodata	00000010 _ZTIPDi
00017374  w    O .rodata	0000000c _ZTISt9bad_alloc
00016f9c  w    O .rodata	00000010 _ZTIPf
00016c34  w    O .rodata	00000024 _ZTVN10__cxxabiv119__pointer_type_infoE
00016efc  w    O .rodata	00000010 _ZTIPDd
00016d14  w    O .rodata	0000000c _ZTISt17bad_function_call
00016c8c  w    O .rodata	0000002c _ZTVN10__cxxabiv120__si_class_type_infoE
00013f20 g     F .text	00000010 _ZNSt8bad_castD1Ev
00013304 g     F .text	0000006c _ZNK10__cxxabiv117__class_type_info11__do_upcastEPKS0_PKvRNS0_15__upcast_resultE
000134d0 g     F .text	00000004 _ZdlPv
000178f4 g     O .rwdata	00000004 _global_impure_ptr
00018000 g       *ABS*	00000000 __bss_end
000177bc  w    O .rwdata	00000003 _ZTSPy
00017710  w    O .rwdata	00000003 _ZTSDu
00014f3c g     F .text	000000e8 alt_iic_isr_register
00017784  w    O .rwdata	00000004 _ZTSPKi
0001719c  w    O .rodata	00000010 _ZTIPb
000164c0 g     F .text	00000108 alt_tick
00014228 g     F .text	00000018 .hidden _Unwind_SjLj_Register
000118b4  w    F .text	00000034 _ZNSt5arrayIhLj4EE4dataEv
00011a7c  w    F .text	00000024 _ZSt4moveIRPFbRSt9_Any_dataRKS0_St18_Manager_operationEEONSt16remove_referenceIT_E4typeEOS9_
00014534 g     F .text	00000018 abort
00017e7c g     O .bss	00000004 tilt_encoder
00017860  w    O .rwdata	00000008 _ZTIy
00016ecc  w    O .rodata	00000010 _ZTIPKDe
000138d0 g     F .text	000000b4 __cxa_end_catch
00014ef0 g     F .text	0000004c alt_ic_irq_enabled
000139c4 g     F .text	00000004 _ZNSt13bad_exceptionD2Ev
00016f8c  w    O .rodata	00000010 _ZTIPKf
00010744  w    F .text	00000094 _ZN6Serial10tx_messageC1Ell
0001641c g     F .text	000000a4 alt_alarm_stop
000105c8  w    F .text	00000024 _ZNKSt9_Any_data9_M_accessEv
00016f7c  w    O .rodata	00000010 _ZTIPd
00017ea4 g     O .bss	00000004 alt_irq_active
00012af4 g     F .text	00000014 _ZSt9terminatev
00017764  w    O .rwdata	00000002 _ZTSs
000177ec  w    O .rwdata	00000004 _ZTSPDn
00010000 g       *ABS*	00000000 __alt_mem_onchip_mem
000171fc  w    O .rodata	00000024 _ZTVN10__cxxabiv117__pbase_type_infoE
000100fc g     F .exceptions	000000c8 alt_irq_handler
00010618  w    F .text	0000008c _ZNSt14_Function_baseD2Ev
0001750c g     O .rwdata	00000028 alt_dev_null
00011c24  w    F .text	00000028 _ZSt12__niter_wrapIPhET_RKS1_S1_
00017780  w    O .rwdata	00000003 _ZTSPi
000139fc g     F .text	00000004 _ZN10__cxxabiv119__foreign_exceptionD2Ev
000177c8  w    O .rwdata	00000003 _ZTSPf
0001716c  w    O .rodata	00000010 _ZTIPKw
000177d4  w    O .rwdata	00000003 _ZTSPd
000177fc  w    O .rwdata	00000004 _ZTSPDf
00016d34  w    O .rodata	00000022 _ZTSN10__cxxabiv117__class_type_infoE
00015d34 g     F .text	00000020 alt_dcache_flush_all
00017868  w    O .rwdata	00000008 _ZTIx
00017708  w    O .rwdata	00000003 _ZTSPw
000176d0  w    O .rwdata	00000008 _ZTISt9exception
00017808  w    O .rwdata	00000003 _ZTSDd
00017800  w    O .rwdata	00000005 _ZTSPKDf
000177a0  w    O .rwdata	00000002 _ZTSm
00017924 g       *ABS*	00000000 __ram_rwdata_end
0001705c  w    O .rodata	00000010 _ZTIPi
00013148 g     F .text	00000004 _ZNSt9type_infoD1Ev
0001790c g     O .rwdata	00000008 alt_dev_list
000139fc g     F .text	00000004 _ZN10__cxxabiv119__foreign_exceptionD1Ev
00015430 g     F .text	00000104 write
00012d54 g     F .text	00000038 _ZN10__cxxabiv120__function_type_infoD0Ev
00017724  w    O .rwdata	00000004 _ZTSPDs
0001315c g     F .text	00000008 _ZNSt9type_infoD0Ev
000173d0 g       *ABS*	00000000 __ram_rodata_end
000134d4 g     F .text	00000004 _ZdlPvj
00017858  w    O .rwdata	00000008 _ZTIf
00015060 g     F .text	0000012c kill
00017798  w    O .rwdata	00000003 _ZTSPl
00010aec  w    F .text	00000060 _ZNSt14_Function_base13_Base_managerIPFvRN6Serial10rx_messageEEE15_M_init_functorERSt9_Any_dataOS5_St17integral_constantIbLb1EE
00012d3c g     F .text	00000008 _ZNK10__cxxabiv120__function_type_info15__is_function_pEv
00017728  w    O .rwdata	00000005 _ZTSPKDs
0001709c  w    O .rodata	00000010 _ZTIPs
0001057c  w    F .text	00000028 _ZnwjPv
00013154 g     F .text	00000008 _ZNKSt9type_info11__do_upcastEPKN10__cxxabiv117__class_type_infoEPPv
00017720  w    O .rwdata	00000003 _ZTSDs
000177b4  w    O .rwdata	00000004 _ZTSPKx
00012bf4 g     F .text	00000064 __cxa_init_primary_exception
00012b50 g     F .text	0000000c _ZSt13get_terminatev
00018000 g       *ABS*	00000000 end
000177f8  w    O .rwdata	00000003 _ZTSDf
000131b4 g     F .text	00000010 _ZNSt17bad_function_callD2Ev
00017740  w    O .rwdata	00000002 _ZTSc
00010bb0  w    F .text	00000064 _ZSt10__invoke_rIvRPFvRN6Serial10rx_messageEEJS2_EENSt9enable_ifIXsrSt6__and_IJSt7is_voidIT_ESt14__is_invocableIT0_JDpT1_EEEE5valueES9_E4typeEOSC_DpOSD_
00015b3c g     F .text	000000e0 altera_avalon_uart_write
00014494 g     F .text	00000018 .hidden _Unwind_DeleteException
00017790  w    O .rwdata	00000004 _ZTSPKj
000101c4 g     F .exceptions	00000060 alt_instruction_exception_entry
0001340c g     F .text	000000c4 _ZNK10__cxxabiv117__class_type_info12__do_dyncastEiNS0_10__sub_kindEPKS0_PKvS3_S5_RNS0_16__dyncast_resultE
00016b35 g       *ABS*	00000000 __CTOR_LIST__
0001a000 g       *ABS*	00000000 __alt_stack_pointer
00016ffc  w    O .rodata	00000010 _ZTIPm
000158bc g     F .text	00000084 alt_avalon_timer_sc_init
000159a0 g     F .text	00000060 altera_avalon_uart_write_fd
0001322c g     F .text	00000078 _ZNK10__cxxabiv117__class_type_info11__do_upcastEPKS0_PPv
000157ac g     F .text	00000094 altera_avalon_jtag_uart_write
000107d8  w    F .text	00000038 _ZNSt8functionIFvRN6Serial10rx_messageEEED1Ev
00016dc4  w    O .rodata	00000012 _ZTSSt13bad_exception
00010810  w    F .text	00000150 _ZNSt8functionIFvRN6Serial10rx_messageEEEC1IPS3_vvEET_
00017758  w    O .rwdata	00000002 _ZTSh
00013ec0 g     F .text	0000000c _ZNKSt20bad_array_new_length4whatEv
000145ec g     F .text	00000100 _free_r
00013f14 g     F .text	0000000c _ZNKSt8bad_cast4whatEv
00010988  w    F .text	00000024 _ZSt4moveIRPFvRN6Serial10rx_messageEEEONSt16remove_referenceIT_E4typeEOS7_
00017e80 g     O .bss	00000004 pan_encoder
000169bc g     F .text	0000012c __call_exitprocs
00010e70  w    F .text	00000038 _ZNSt14_Function_base13_Base_managerIPFvRN6Serial10rx_messageEEE10_M_destroyERSt9_Any_dataSt17integral_constantIbLb1EE
00010224 g     F .text	0000003c _start
00017eb8 g     O .bss	00000004 _alt_tick_rate
00010f38 g     F .text	00000064 _ZN5Plant5MotorC1Emm
00016cb8  w    O .rodata	0000000d _ZTSSt9type_info
00013a88 g     F .text	00000010 _ZN10__cxxabiv117__pbase_type_infoD2Ev
00013fbc g     F .text	0000000c _ZNKSt9bad_alloc4whatEv
00013e0c g     F .text	0000000c __cxa_pure_virtual
00017380  w    O .rodata	00000014 _ZTVSt9bad_alloc
00017ebc g     O .bss	00000004 _alt_nticks
00014b5c g     F .text	00000014 signal
000155a4 g     F .text	0000005c alt_sys_init
000176fc  w    O .rwdata	00000003 _ZTSPb
000178c0  w    O .rwdata	00000008 _ZTIDs
000170bc  w    O .rodata	00000010 _ZTIPh
0001717c  w    O .rodata	00000010 _ZTIPw
00017334  w    O .rodata	0000000c _ZTISt10bad_typeid
000168a0 g     F .text	0000011c __register_exitproc
00017364  w    O .rodata	0000000d _ZTSSt9bad_alloc
000172c4  w    O .rodata	00000014 _ZTVSt20bad_array_new_length
000139d4 g     F .text	0000000c _ZGTtNKSt13bad_exception4whatEv
00012ec8 g     F .text	00000160 _ZNK10__cxxabiv120__si_class_type_info12__do_dyncastEiNS_17__class_type_info10__sub_kindEPKS1_PKvS4_S6_RNS1_16__dyncast_resultE
00010c74  w    F .text	000000cc _ZNSt14_Function_base13_Base_managerIPFvRN6Serial10rx_messageEEE10_M_managerERSt9_Any_dataRKS7_St18_Manager_operation
000118e8  w    F .text	00000024 _ZSt12__miter_baseIPhET_S1_
000178a0  w    O .rwdata	00000008 _ZTIh
00016fcc  w    O .rodata	00000010 _ZTIPKx
00010f0c g     F .text	0000002c _ZN5Plant7Encoder8readDataEv
000115ac  w    F .text	0000005c _ZNSt8functionIFvRN6Serial10rx_messageEEEaSERKS4_
000173d0 g       *ABS*	00000000 __ram_rwdata_start
00014304 g     F .text	000000c8 .hidden _Unwind_SjLj_RaiseException
00016b48 g       *ABS*	00000000 __ram_rodata_start
00014410 g     F .text	00000044 .hidden _Unwind_SjLj_Resume
000105ec  w    F .text	0000002c _ZNSt14_Function_baseC1Ev
00016e64  w    O .rodata	00000014 _ZTVN10__cxxabiv119__foreign_exceptionE
00017880  w    O .rwdata	00000008 _ZTIj
00013edc g     F .text	00000038 _ZNSt20bad_array_new_lengthD0Ev
00017850  w    O .rwdata	00000008 _ZTId
00013e8c g     F .text	00000034 __cxa_throw_bad_array_new_length
00013148 g     F .text	00000004 _ZNSt9type_infoD2Ev
00011838  w    F .text	0000007c _ZNSt8functionIFvRN6Serial10rx_messageEEE4swapERS4_
000177e8  w    O .rwdata	00000003 _ZTSDn
00013a00 g     F .text	00000008 _ZN10__cxxabiv119__foreign_exceptionD0Ev
00013d2c g     F .text	00000010 _ZN10__cxxabiv129__pointer_to_member_type_infoD2Ev
000130c4 g     F .text	00000084 _ZNK10__cxxabiv120__si_class_type_info11__do_upcastEPKNS_17__class_type_infoEPKvRNS1_15__upcast_resultE
0001702c  w    O .rodata	00000010 _ZTIPKj
00012d8c g     F .text	00000008 _ZNK10__cxxabiv119__pointer_type_info14__is_pointer_pEv
00016ea0  w    O .rodata	0000000c _ZTIN10__cxxabiv123__fundamental_type_infoE
00015600 g     F .text	00000060 altera_avalon_jtag_uart_read_fd
00016784 g     F .text	000000b8 alt_get_fd
00010c44  w    F .text	00000030 _ZNSt9_Any_data9_M_accessIPPFvRN6Serial10rx_messageEEEERT_v
00010b4c  w    F .text	00000040 _ZNSt14_Function_base13_Base_managerIPFvRN6Serial10rx_messageEEE14_M_get_pointerERKSt9_Any_data
000177f0  w    O .rwdata	00000005 _ZTSPKDn
000176e0  w    O .rwdata	00000008 _ZTIN10__cxxabiv119__foreign_exceptionE
00016bd8  w    O .rodata	0000000c _ZTIN10__cxxabiv120__function_type_infoE
000177cc  w    O .rwdata	00000004 _ZTSPKf
00017754  w    O .rwdata	00000004 _ZTSPKa
00016870 g     F .text	00000030 memcmp
00018000 g       *ABS*	00000000 __alt_stack_base
00013fd8 g     F .text	00000038 _ZNSt9bad_allocD0Ev
00012e80 g     F .text	00000010 _ZN10__cxxabiv120__si_class_type_infoD1Ev
00013a28 g     F .text	00000010 _ZN10__cxxabiv123__fundamental_type_infoD2Ev
00017714  w    O .rwdata	00000004 _ZTSPDu
00014454 g     F .text	00000040 .hidden _Unwind_SjLj_Resume_or_Rethrow
000172e8  w    O .rodata	0000000c _ZTSSt8bad_cast
0001314c g     F .text	00000008 _ZNKSt9type_info14__is_pointer_pEv
00012d94 g     F .text	00000010 _ZN10__cxxabiv119__pointer_type_infoD2Ev
00010ed8 g     F .text	00000034 _ZN5Plant7EncoderC2Em
000176b8  w    O .rwdata	00000008 _ZTIFvRN6Serial10rx_messageEE
000119f0  w    F .text	0000008c _ZSt4swapISt9_Any_dataENSt9enable_ifIXsrSt6__and_IJSt6__not_ISt15__is_tuple_likeIT_EESt21is_move_constructibleIS5_ESt18is_move_assignableIS5_EEE5valueEvE4typeERS5_SF_
00010d40  w    F .text	00000030 _ZNKSt9_Any_data9_M_accessIPFvRN6Serial10rx_messageEEEERKT_v
00016e28  w    O .rodata	00000014 _ZTVSt9exception
000139f4 g     F .text	00000008 _ZN10__cxxabiv115__forced_unwindD0Ev
0001667c g     F .text	00000108 alt_find_file
00015dbc g     F .text	000000a8 alt_dev_llist_insert
000152f4 g     F .text	00000024 __malloc_lock
000107d8  w    F .text	00000038 _ZNSt8functionIFvRN6Serial10rx_messageEEED2Ev
0001533c g     F .text	000000b8 sbrk
00013d3c g     F .text	00000038 _ZN10__cxxabiv129__pointer_to_member_type_infoD0Ev
00016d64  w    O .rodata	0000002c _ZTVN10__cxxabiv117__class_type_infoE
00012c58 g     F .text	00000060 __cxa_throw
000142c8 g     F .text	00000010 .hidden _Unwind_SetIP
00016b78  w    O .rodata	0000001b _ZTSPFvRN6Serial10rx_messageEE
00016f1c  w    O .rodata	00000010 _ZTIPDf
00017888  w    O .rwdata	00000008 _ZTIi
00016fac  w    O .rodata	00000010 _ZTIPKy
00014c3c g     F .text	000000a8 __sfvwrite_small_dev
0001715c  w    O .rodata	00000010 _ZTIPDu
00011b30  w    F .text	0000006c _ZSt4swapIPFvRKSt9_Any_dataRN6Serial10rx_messageEEENSt9enable_ifIXsrSt6__and_IJSt6__not_ISt15__is_tuple_likeIT_EESt21is_move_constructibleISC_ESt18is_move_assignableISC_EEE5valueEvE4typeERSC_SM_
00017e78 g       *ABS*	00000000 __bss_start
000145cc g     F .text	00000020 memset
0001030c g     F .text	000000a8 main
000177dc  w    O .rwdata	00000002 _ZTSe
00017e84 g     O .bss	00000001 _ZN6Serial4UART10uart_readyE
00017eb0 g     O .bss	00000004 alt_envp
00017340  w    O .rodata	00000014 _ZTVSt10bad_typeid
00015660 g     F .text	00000060 altera_avalon_jtag_uart_write_fd
00017848  w    O .rwdata	00000008 _ZTIe
00013a08 g     F .text	00000004 _ZGTtNKSt9exceptionD1Ev
00013a10 g     F .text	0000000c __cxa_get_globals_fast
00016b94  w    O .rodata	0000001a _ZTSFvRN6Serial10rx_messageEE
000131f8 g     F .text	00000034 _ZSt25__throw_bad_function_callv
00017300  w    O .rodata	00000014 _ZTVSt8bad_cast
0001a000 g       *ABS*	00000000 __alt_heap_limit
000177c4  w    O .rwdata	00000002 _ZTSf
00013f68 g     F .text	0000000c _ZNKSt10bad_typeid4whatEv
000170ec  w    O .rodata	00000010 _ZTIPKc
000146ec g     F .text	00000160 _malloc_r
000131a8 g     F .text	0000000c _ZNKSt17bad_function_call4whatEv
00016fec  w    O .rodata	00000010 _ZTIPKm
000139d4 g     F .text	0000000c _ZNKSt13bad_exception4whatEv
00017918 g     O .rwdata	00000004 alt_errno
00014b70 g     F .text	0000000c _init_signal
00016d58  w    O .rodata	0000000c _ZTIN10__cxxabiv117__class_type_infoE
0001710c  w    O .rodata	00000010 _ZTIPKDi
000139c4 g     F .text	00000004 _ZNSt13bad_exceptionD1Ev
000172b8  w    O .rodata	0000000c _ZTISt20bad_array_new_length
00013d2c g     F .text	00000010 _ZN10__cxxabiv129__pointer_to_member_type_infoD1Ev
00016f4c  w    O .rodata	00000010 _ZTIPKe
00016b44 g       *ABS*	00000000 __CTOR_END__
00010618  w    F .text	0000008c _ZNSt14_Function_baseD1Ev
00017730  w    O .rwdata	00000003 _ZTSDi
00017e89 g     O .bss	00000001 _ZN6Serial4UART6rx_lenE
00014bdc g     F .text	00000044 strcmp
0001708c  w    O .rodata	00000010 _ZTIPKs
000170fc  w    O .rodata	00000010 _ZTIPc
00017840  w    O .rwdata	00000008 _ZTIDn
00016b48 g       *ABS*	00000000 __flash_rodata_start
00016e50  w    O .rodata	00000014 _ZTVN10__cxxabiv115__forced_unwindE
000106a4  w    F .text	00000030 _ZN6Serial10rx_message12getFirstWordEv
00016b44 g       *ABS*	00000000 __DTOR_LIST__
00017838  w    O .rwdata	00000008 _ZTIDf
00013f20 g     F .text	00000010 _ZNSt8bad_castD2Ev
000177e0  w    O .rwdata	00000003 _ZTSPe
00017704  w    O .rwdata	00000002 _ZTSw
00015568 g     F .text	0000003c alt_irq_init
00017744  w    O .rwdata	00000003 _ZTSPc
000163ac g     F .text	00000070 alt_release_fd
00012e90 g     F .text	00000038 _ZN10__cxxabiv120__si_class_type_infoD0Ev
00013ad0 g     F .text	0000025c _ZNK10__cxxabiv117__pbase_type_info10__do_catchEPKSt9type_infoPPvj
000114c0  w    F .text	00000038 _ZNSt8functionIFvRN6Serial10rx_messageEEEC1Ev
00016f0c  w    O .rodata	00000010 _ZTIPKDf
00017820  w    O .rwdata	00000005 _ZTSPKDe
000116f8  w    F .text	00000140 _ZNSt8functionIFvRN6Serial10rx_messageEEEC2ERKS4_
00010960  w    F .text	00000028 _ZNSt14_Function_base13_Base_managerIPFvRN6Serial10rx_messageEEE21_M_not_empty_functionIS4_EEbPT_
0001683c g     F .text	00000014 atexit
00014ce4 g     F .text	00000050 _write_r
00013e24 g     F .text	00000034 __cxa_bad_cast
000142fc g     F .text	00000008 .hidden _Unwind_GetTextRelBase
000137b8 g     F .text	00000058 __cxa_call_terminate
00017870  w    O .rwdata	00000008 _ZTIm
00011b0c  w    F .text	00000024 _ZSt4moveIRPFvRKSt9_Any_dataRN6Serial10rx_messageEEEONSt16remove_referenceIT_E4typeEOSA_
000178f8 g     O .rwdata	00000004 _impure_ptr
000176d8  w    O .rwdata	00000008 _ZTIN10__cxxabiv115__forced_unwindE
00016be4  w    O .rodata	00000020 _ZTVN10__cxxabiv120__function_type_infoE
00017ea8 g     O .bss	00000004 alt_argc
00016eac  w    O .rodata	00000020 _ZTVN10__cxxabiv123__fundamental_type_infoE
00015ec8 g     F .text	00000064 _do_dtors
00010a54  w    F .text	00000098 _ZNSt17_Function_handlerIFvRN6Serial10rx_messageEEPS3_E10_M_managerERSt9_Any_dataRKS6_St18_Manager_operation
00017250  w    O .rodata	0000000c _ZTIN10__cxxabiv129__pointer_to_member_type_infoE
000109ac  w    F .text	00000050 _ZNSt14_Function_base13_Base_managerIPFvRN6Serial10rx_messageEEE15_M_init_functorERSt9_Any_dataOS5_
00011608  w    F .text	00000030 _ZNSt5arrayIhLj4EE5beginEv
0001714c  w    O .rodata	00000010 _ZTIPKDu
00011534  w    F .text	00000078 _ZNKSt8functionIFvRN6Serial10rx_messageEEEclES2_
00012b80 g     F .text	0000000c _ZSt14get_unexpectedv
00010020 g       .exceptions	00000000 alt_irq_entry
00017818  w    O .rwdata	00000003 _ZTSDe
000142ec g     F .text	00000008 .hidden _Unwind_FindEnclosingFunction
000170cc  w    O .rodata	00000010 _ZTIPKa
00011aa0  w    F .text	0000006c _ZSt4swapIPFbRSt9_Any_dataRKS0_St18_Manager_operationEENSt9enable_ifIXsrSt6__and_IJSt6__not_ISt15__is_tuple_likeIT_EESt21is_move_constructibleISB_ESt18is_move_assignableISB_EEE5valueEvE4typeERSB_SL_
00017904 g     O .rwdata	00000008 alt_fs_list
00016e04  w    O .rodata	00000024 _ZTSN10__cxxabiv119__foreign_exceptionE
000178c8  w    O .rwdata	00000008 _ZTIDu
0001703c  w    O .rodata	00000010 _ZTIPj
000142d8 g     F .text	0000000c .hidden _Unwind_GetLanguageSpecificData
0001781c  w    O .rwdata	00000004 _ZTSPDe
00013818 g     F .text	000000b8 __cxa_begin_catch
00017760  w    O .rwdata	00000004 _ZTSPKh
0001116c g     F .text	00000090 _ZN6Serial4UARTC2ESt8functionIFvRNS_10rx_messageEEE
000132bc g     F .text	00000010 _ZN10__cxxabiv117__class_type_infoD2Ev
00012b08 g     F .text	00000010 _ZN10__cxxabiv112__unexpectedEPFvvE
000171ac  w    O .rodata	00000010 _ZTIPKv
000177e4  w    O .rwdata	00000004 _ZTSPKe
000131c4 g     F .text	00000034 _ZNSt17bad_function_callD0Ev
000116c8  w    F .text	00000030 _ZNSt14__array_traitsIhLj4EE6_S_refERA4_Khj
00010020 g       *ABS*	00000000 __ram_exceptions_start
00016cfc  w    O .rodata	00000016 _ZTSSt17bad_function_call
000176ec  w    O .rwdata	00000002 _ZTSv
000131b4 g     F .text	00000010 _ZNSt17bad_function_callD1Ev
000139e8 g     F .text	00000008 _ZNSt13bad_exceptionD0Ev
000105ec  w    F .text	0000002c _ZNSt14_Function_baseC2Ev
000176e8 g     O .rwdata	00000004 _ZN10__cxxabiv119__terminate_handlerE
00017770  w    O .rwdata	00000002 _ZTSt
00012ddc g     F .text	000000a4 _ZNK10__cxxabiv119__pointer_type_info15__pointer_catchEPKNS_17__pbase_type_infoEPPvj
0001707c  w    O .rodata	00000010 _ZTIPt
00014d8c g     F .text	00000050 alt_ic_isr_register
00013664 g     F .text	00000058 __cxa_allocate_exception
00016f6c  w    O .rodata	00000010 _ZTIPKd
00016c80  w    O .rodata	0000000c _ZTIN10__cxxabiv120__si_class_type_infoE
000170ac  w    O .rodata	00000010 _ZTIPKh
00017924 g       *ABS*	00000000 _edata
00015940 g     F .text	00000060 altera_avalon_uart_read_fd
00018000 g       *ABS*	00000000 _end
00012218 g     F .text	00000698 __gxx_personality_sj0
00010224 g       *ABS*	00000000 __ram_exceptions_end
0001777c  w    O .rwdata	00000002 _ZTSi
00010d94  w    F .text	00000024 _ZSt7forwardIRPFvRN6Serial10rx_messageEEEOT_RNSt16remove_referenceIS6_E4typeE
000177b8  w    O .rwdata	00000002 _ZTSy
000139c0 g     F .text	00000004 _ZNSt9exceptionD1Ev
000171cc  w    O .rodata	00000022 _ZTSN10__cxxabiv117__pbase_type_infoE
00014e64 g     F .text	0000008c alt_ic_irq_disable
00017794  w    O .rwdata	00000002 _ZTSl
000178e0  w    O .rwdata	00000008 _ZTIv
00017768  w    O .rwdata	00000003 _ZTSPs
00016850 g     F .text	00000020 exit
00014280 g     F .text	00000018 .hidden _Unwind_SetGR
00013028 g     F .text	0000009c _ZNK10__cxxabiv120__si_class_type_info20__do_find_public_srcEiPKvPKNS_17__class_type_infoES2_
00012a2c g     F .text	000000c8 _ZN10__cxxabiv111__terminateEPFvvE
00016bb0  w    O .rodata	00000025 _ZTSN10__cxxabiv120__function_type_infoE
00013fc8 g     F .text	00000010 _ZNSt9bad_allocD1Ev
00010c14  w    F .text	00000030 _ZNSt9_Any_data9_M_accessIPKSt9type_infoEERT_v
0001104c g     F .text	00000044 _ZN5Plant5Motor4stopEv
0001a000 g       *ABS*	00000000 __alt_data_end
00010020 g     F .exceptions	00000000 alt_exception
00017e78 g     O .bss	00000001 uart
000177d0  w    O .rwdata	00000002 _ZTSd
00017878  w    O .rwdata	00000008 _ZTIl
0001780c  w    O .rwdata	00000004 _ZTSPDd
00016dd8  w    O .rodata	0000000c _ZTISt13bad_exception
00016edc  w    O .rodata	00000010 _ZTIPDe
000114c0  w    F .text	00000038 _ZNSt8functionIFvRN6Serial10rx_messageEEEC2Ev
000105a4  w    F .text	00000024 _ZNSt9_Any_data9_M_accessEv
00013a70  w    F .text	00000018 _ZNK10__cxxabiv117__pbase_type_info15__pointer_catchEPKS0_PPvj
00012d44 g     F .text	00000010 _ZN10__cxxabiv120__function_type_infoD2Ev
00016fdc  w    O .rodata	00000010 _ZTIPx
00014d34 g     F .text	00000038 _exit
00014250 g     F .text	00000018 .hidden _Unwind_GetGR
00013a1c g     F .text	0000000c __cxa_get_globals
000176c4 g     O .rwdata	00000004 _ZN10__cxxabiv120__unexpected_handlerE
00014c20 g     F .text	0000001c strlen
00014924 g     F .text	0000005c _init_signal_r
000176c8  w    O .rwdata	00000008 _ZTISt9type_info
0001624c g     F .text	00000160 open
00016f5c  w    O .rodata	00000010 _ZTIPe
00013a0c g     F .text	00000004 _ZGTtNKSt13bad_exceptionD1Ev
00016db4  w    O .rodata	0000000d _ZTSSt9exception
00017e98 g     O .bss	00000004 __malloc_sbrk_start
00017324  w    O .rodata	0000000f _ZTSSt10bad_typeid
00017828  w    O .rwdata	00000008 _ZTIDe
00017ec0 g     O .bss	00000010 tilt_motor
00013e58 g     F .text	00000034 __cxa_bad_typeid
000139e0 g     F .text	00000008 _ZNSt9exceptionD0Ev
00010f9c g     F .text	00000058 _ZN5Plant5Motor12setFrequencyEm
00015f2c g     F .text	00000020 alt_icache_flush_all
000177ac  w    O .rwdata	00000002 _ZTSx
00013f74 g     F .text	00000010 _ZNSt10bad_typeidD1Ev
000142f4 g     F .text	00000008 .hidden _Unwind_GetDataRelBase
00011b9c  w    F .text	00000024 _ZNSt14__array_traitsIhLj4EE6_S_ptrERA4_Kh
000178fc g     O .rwdata	00000004 alt_priority_mask
00017e9c g     O .bss	00000004 __malloc_free_list
00014ddc g     F .text	00000088 alt_ic_irq_enable
00017898  w    O .rwdata	00000008 _ZTIs
00015a3c g     F .text	000000c4 altera_avalon_uart_read
000170dc  w    O .rodata	00000010 _ZTIPa
0001770c  w    O .rwdata	00000004 _ZTSPKw
00012d44 g     F .text	00000010 _ZN10__cxxabiv120__function_type_infoD1Ev
00013f74 g     F .text	00000010 _ZNSt10bad_typeidD2Ev
0001713c  w    O .rodata	00000010 _ZTIPDs
00016eec  w    O .rodata	00000010 _ZTIPKDd
0001791c g     O .rwdata	00000008 alt_alarm_list
00016e78  w    O .rodata	00000028 _ZTSN10__cxxabiv123__fundamental_type_infoE
00015e64 g     F .text	00000064 _do_ctors
00014b7c g     F .text	00000010 __sigtramp
00010ea8  w    F .text	00000030 _ZNSt9_Any_data9_M_accessIPFvRN6Serial10rx_messageEEEERT_v
00016c28  w    O .rodata	0000000c _ZTIN10__cxxabiv119__pointer_type_infoE
00015c58 g     F .text	000000dc close
0001775c  w    O .rwdata	00000003 _ZTSPh
00016de4  w    O .rodata	00000020 _ZTSN10__cxxabiv115__forced_unwindE
000151f4 g     F .text	00000084 alt_load
00013164 g     F .text	00000044 _ZNKSt9type_info10__do_catchEPKS_PPvj
0001776c  w    O .rwdata	00000004 _ZTSPKs
00013d74 g     F .text	00000098 _ZNK10__cxxabiv129__pointer_to_member_type_info15__pointer_catchEPKNS_17__pbase_type_infoEPPvj
00014b4c g     F .text	00000010 raise
00017778  w    O .rwdata	00000004 _ZTSPKt
0001455c g     F .text	00000010 free
000132cc g     F .text	00000038 _ZN10__cxxabiv117__class_type_infoD0Ev
000111fc g     F .text	000000ec _ZN6Serial4UART8sendDataENS_10tx_messageE
00016b68  w    O .rodata	00000010 _ZTIPFvRN6Serial10rx_messageEE



Disassembly of section .entry:

00010000 <__reset>:
 * Jump to the _start entry point in the .text section if reset code
 * is allowed or if optimizing for RTL simulation.
 */
#if defined(ALT_ALLOW_CODE_AT_RESET) || defined(ALT_SIM_OPTIMIZE)
    /* Jump to the _start entry point in the .text section. */
    movhi r1, %hi(_start)
   10000:	00400074 	movhi	at,1
    ori r1, r1, %lo(_start)
   10004:	08408914 	ori	at,at,548
    jmp r1
   10008:	0800683a 	jmp	at
	...

Disassembly of section .exceptions:

00010020 <alt_exception>:

#else /* ALT_EXCEPTION_STACK disabled */
        /* 
         * Reserve space on normal stack for registers about to be pushed.
         */
        addi  sp, sp, -76
   10020:	deffed04 	addi	sp,sp,-76
         * documentation for details).
         *
         * Leave a gap in the stack frame at 4(sp) for the muldiv handler to
         * store zero into.
         */
        stw   ra,  0(sp)
   10024:	dfc00015 	stw	ra,0(sp)
        stw   r1,   8(sp)
   10028:	d8400215 	stw	at,8(sp)
        stw   r2,  12(sp)
   1002c:	d8800315 	stw	r2,12(sp)
        stw   r3,  16(sp)
   10030:	d8c00415 	stw	r3,16(sp)
        stw   r4,  20(sp)
   10034:	d9000515 	stw	r4,20(sp)
        stw   r5,  24(sp)
   10038:	d9400615 	stw	r5,24(sp)
        stw   r6,  28(sp)
   1003c:	d9800715 	stw	r6,28(sp)
        stw   r7,  32(sp)
   10040:	d9c00815 	stw	r7,32(sp)
        rdctl r5, estatus   /* Read early to avoid usage stall */
   10044:	000b307a 	rdctl	r5,estatus
        stw   r8,  36(sp)
   10048:	da000915 	stw	r8,36(sp)
        stw   r9,  40(sp)
   1004c:	da400a15 	stw	r9,40(sp)
        stw   r10, 44(sp)
   10050:	da800b15 	stw	r10,44(sp)
        stw   r11, 48(sp)
   10054:	dac00c15 	stw	r11,48(sp)
        stw   r12, 52(sp)
   10058:	db000d15 	stw	r12,52(sp)
        stw   r13, 56(sp)
   1005c:	db400e15 	stw	r13,56(sp)
        stw   r14, 60(sp)
   10060:	db800f15 	stw	r14,60(sp)
        stw   r15, 64(sp)
   10064:	dbc01015 	stw	r15,64(sp)
        /*
         * ea-4 contains the address of the instruction being executed
         * when the exception occured. For interrupt exceptions, we will
         * will be re-issue the isntruction. Store it in 72(sp)
         */
        stw   r5,  68(sp)  /* estatus */
   10068:	d9401115 	stw	r5,68(sp)
        addi  r15, ea, -4  /* instruction that caused exception */
   1006c:	ebffff04 	addi	r15,ea,-4
        stw   r15,  72(sp)
   10070:	dbc01215 	stw	r15,72(sp)
#else
        /*
         * Test to see if the exception was a software exception or caused 
         * by an external interrupt, and vector accordingly.
         */
        rdctl r4, ipending
   10074:	0009313a 	rdctl	r4,ipending
        andi  r2, r5, 1
   10078:	2880004c 	andi	r2,r5,1
        beq   r2, zero, .Lnot_irq
   1007c:	10000326 	beq	r2,zero,1008c <alt_exception+0x6c>
        beq   r4, zero, .Lnot_irq
   10080:	20000226 	beq	r4,zero,1008c <alt_exception+0x6c>
        /*
         * Now that all necessary registers have been preserved, call 
         * alt_irq_handler() to process the interrupts.
         */

        call alt_irq_handler
   10084:	00100fc0 	call	100fc <alt_irq_handler>

        .section .exceptions.irqreturn, "xa"

        br    .Lexception_exit
   10088:	00000706 	br	100a8 <alt_exception+0x88>
         * upon completion, so we write ea (address of instruction *after*
         * the one where the exception occured) into 72(sp). The actual
         * instruction that caused the exception is written in r2, which these
         * handlers will utilize.
         */
        stw ea, 72(sp) /* EA is PC+4 so will skip over instruction causing exception */
   1008c:	df401215 	stw	ea,72(sp)
.Lunknown_16bit:
        addi.n r4, r4, 2 /* Need PC+2 to skip over instruction causing exception */
        stw r4, 72(sp)

#else /* CDX is not Enabled and all instructions are 32bits */
        ldw r2, -4(ea) /* Instruction value that caused exception */
   10090:	e8bfff17 	ldw	r2,-4(ea)
         * debugger is present) or go into an infinite loop since the
         * handling behavior is undefined; in that case we will not return here.
         */

        /* Load exception-causing address as first argument (r4) */
        addi   r4, ea, -4
   10094:	e93fff04 	addi	r4,ea,-4

        /* Call the instruction-exception entry */
        call   alt_instruction_exception_entry
   10098:	00101c40 	call	101c4 <alt_instruction_exception_entry>
         * instruction
         *
         * Return code was 0: Skip. The instruction after the exception is
         * already stored in 72(sp).
         */
        bne   r2, r0, .Lexception_exit
   1009c:	1000021e 	bne	r2,zero,100a8 <alt_exception+0x88>

        /*
         * Otherwise, modify 72(sp) to re-issue the instruction that caused the
         * exception.
         */
        addi  r15, ea, -4  /* instruction that caused exception */
   100a0:	ebffff04 	addi	r15,ea,-4
        stw   r15,  72(sp)
   100a4:	dbc01215 	stw	r15,72(sp)
        /* 
         * Restore the saved registers, so that all general purpose registers 
         * have been restored to their state at the time the interrupt occured.
         */

        ldw   r5,  68(sp)
   100a8:	d9401117 	ldw	r5,68(sp)
        ldw   ea,  72(sp)  /* This becomes the PC once eret is executed */
   100ac:	df401217 	ldw	ea,72(sp)
        ldw   ra,   0(sp)
   100b0:	dfc00017 	ldw	ra,0(sp)

        wrctl estatus, r5
   100b4:	2801707a 	wrctl	estatus,r5

        ldw   r1,   8(sp)
   100b8:	d8400217 	ldw	at,8(sp)
        ldw   r2,  12(sp)
   100bc:	d8800317 	ldw	r2,12(sp)
        ldw   r3,  16(sp)
   100c0:	d8c00417 	ldw	r3,16(sp)
        ldw   r4,  20(sp)
   100c4:	d9000517 	ldw	r4,20(sp)
        ldw   r5,  24(sp)
   100c8:	d9400617 	ldw	r5,24(sp)
        ldw   r6,  28(sp)
   100cc:	d9800717 	ldw	r6,28(sp)
        ldw   r7,  32(sp)
   100d0:	d9c00817 	ldw	r7,32(sp)

#if defined(ALT_EXCEPTION_STACK) && defined(ALT_STACK_CHECK)
        ldw   et, %gprel(alt_exception_old_stack_limit)(gp)
#endif

        ldw   r8,  36(sp)
   100d4:	da000917 	ldw	r8,36(sp)
        ldw   r9,  40(sp)
   100d8:	da400a17 	ldw	r9,40(sp)
        ldw   r10, 44(sp)
   100dc:	da800b17 	ldw	r10,44(sp)
        ldw   r11, 48(sp)
   100e0:	dac00c17 	ldw	r11,48(sp)
        ldw   r12, 52(sp)
   100e4:	db000d17 	ldw	r12,52(sp)
        ldw   r13, 56(sp)
   100e8:	db400e17 	ldw	r13,56(sp)
        ldw   r14, 60(sp)
   100ec:	db800f17 	ldw	r14,60(sp)
        ldw   r15, 64(sp)
   100f0:	dbc01017 	ldw	r15,64(sp)
        stw   et, %gprel(alt_stack_limit_value)(gp)
        stw   zero, %gprel(alt_exception_old_stack_limit)(gp)
#endif /* ALT_STACK_CHECK */
        ldw   sp,  76(sp)
#else /* ALT_EXCEPTION_STACK disabled */
        addi  sp, sp, 76
   100f4:	dec01304 	addi	sp,sp,76

        /*
         * Return to the interrupted instruction.
         */

        eret
   100f8:	ef80083a 	eret

000100fc <alt_irq_handler>:
 * instruction is present if the macro ALT_CI_INTERRUPT_VECTOR defined.
 */

void alt_irq_handler (void) __attribute__ ((section (".exceptions")));
void alt_irq_handler (void)
{
   100fc:	defff904 	addi	sp,sp,-28
   10100:	dfc00615 	stw	ra,24(sp)
   10104:	df000515 	stw	fp,20(sp)
   10108:	df000504 	addi	fp,sp,20
  
  /*
   * Notify the operating system that we are at interrupt level.
   */ 
  
  ALT_OS_INT_ENTER();
   1010c:	0001883a 	nop
#ifndef NIOS2_EIC_PRESENT
static ALT_INLINE alt_u32 ALT_ALWAYS_INLINE alt_irq_pending (void)
{
  alt_u32 active;

  NIOS2_READ_IPENDING (active);
   10110:	0005313a 	rdctl	r2,ipending
   10114:	e0bffc15 	stw	r2,-16(fp)

  return active;
   10118:	e0bffc17 	ldw	r2,-16(fp)
   * Consider the case where the high priority interupt is asserted during
   * the interrupt entry sequence for a lower priority interrupt to see why
   * this is the case.
   */

  active = alt_irq_pending ();
   1011c:	e0bfff15 	stw	r2,-4(fp)

  do
  {
    i = 0;
   10120:	e03ffd15 	stw	zero,-12(fp)
    mask = 1;
   10124:	00800044 	movi	r2,1
   10128:	e0bffe15 	stw	r2,-8(fp)
     * called to clear the interrupt condition.
     */

    do
    {
      if (active & mask)
   1012c:	e0ffff17 	ldw	r3,-4(fp)
   10130:	e0bffe17 	ldw	r2,-8(fp)
   10134:	1884703a 	and	r2,r3,r2
   10138:	10001126 	beq	r2,zero,10180 <alt_irq_handler+0x84>
      { 
#ifdef ALT_ENHANCED_INTERRUPT_API_PRESENT
        alt_irq[i].handler(alt_irq[i].context); 
   1013c:	e0bffd17 	ldw	r2,-12(fp)
   10140:	100690fa 	slli	r3,r2,3
   10144:	00800074 	movhi	r2,1
   10148:	1885883a 	add	r2,r3,r2
   1014c:	10dfc017 	ldw	r3,32512(r2)
   10150:	e0bffd17 	ldw	r2,-12(fp)
   10154:	100890fa 	slli	r4,r2,3
   10158:	00800074 	movhi	r2,1
   1015c:	2085883a 	add	r2,r4,r2
   10160:	109fc117 	ldw	r2,32516(r2)
   10164:	1009883a 	mov	r4,r2
   10168:	183ee83a 	callr	r3
#else
        alt_irq[i].handler(alt_irq[i].context, i); 
#endif
        break;
   1016c:	0001883a 	nop
  NIOS2_READ_IPENDING (active);
   10170:	0005313a 	rdctl	r2,ipending
   10174:	e0bffb15 	stw	r2,-20(fp)
  return active;
   10178:	e0bffb17 	ldw	r2,-20(fp)
   1017c:	00000706 	br	1019c <alt_irq_handler+0xa0>
      }
      mask <<= 1;
   10180:	e0bffe17 	ldw	r2,-8(fp)
   10184:	1085883a 	add	r2,r2,r2
   10188:	e0bffe15 	stw	r2,-8(fp)
      i++;
   1018c:	e0bffd17 	ldw	r2,-12(fp)
   10190:	10800044 	addi	r2,r2,1
   10194:	e0bffd15 	stw	r2,-12(fp)
      if (active & mask)
   10198:	003fe406 	br	1012c <alt_irq_handler+0x30>

    } while (1);

    active = alt_irq_pending ();
   1019c:	e0bfff15 	stw	r2,-4(fp)
    
  } while (active);
   101a0:	e0bfff17 	ldw	r2,-4(fp)
   101a4:	103fde1e 	bne	r2,zero,10120 <alt_irq_handler+0x24>

  /*
   * Notify the operating system that interrupt processing is complete.
   */ 

  ALT_OS_INT_EXIT();
   101a8:	0001883a 	nop
}
   101ac:	0001883a 	nop
   101b0:	e037883a 	mov	sp,fp
   101b4:	dfc00117 	ldw	ra,4(sp)
   101b8:	df000017 	ldw	fp,0(sp)
   101bc:	dec00204 	addi	sp,sp,8
   101c0:	f800283a 	ret

000101c4 <alt_instruction_exception_entry>:
 * that handler if it has been registered. Absent a handler, it will
 * break break or hang as discussed below.
 */
int 
alt_instruction_exception_entry (alt_u32 exception_pc)
{
   101c4:	defffb04 	addi	sp,sp,-20
   101c8:	dfc00415 	stw	ra,16(sp)
   101cc:	df000315 	stw	fp,12(sp)
   101d0:	df000304 	addi	fp,sp,12
   101d4:	e13ffd15 	stw	r4,-12(fp)
  cause = ( (cause & NIOS2_EXCEPTION_REG_CAUSE_MASK) >>
              NIOS2_EXCEPTION_REG_CAUSE_OFST );

  NIOS2_READ_BADADDR(badaddr);
#else
  cause = NIOS2_EXCEPTION_CAUSE_NOT_PRESENT;
   101d8:	00bfffc4 	movi	r2,-1
   101dc:	e0bfff15 	stw	r2,-4(fp)
  badaddr = 0;
   101e0:	e03ffe15 	stw	zero,-8(fp)
#endif /* NIOS2_HAS_EXTRA_EXCEPTION_INFO */

  if(alt_instruction_exception_handler) {
   101e4:	d0a20017 	ldw	r2,-30720(gp)
   101e8:	10000726 	beq	r2,zero,10208 <alt_instruction_exception_entry+0x44>
     * Call handler. Its return value indicates whether the exception-causing
     * instruction should be re-issued. The code that called us,
     * alt_eceptions_entry.S, will look at this value and adjust the ea
     * register as necessary
     */
    return alt_instruction_exception_handler(cause, exception_pc, badaddr);
   101ec:	d0a20017 	ldw	r2,-30720(gp)
   101f0:	e0ffff17 	ldw	r3,-4(fp)
   101f4:	e1bffe17 	ldw	r6,-8(fp)
   101f8:	e17ffd17 	ldw	r5,-12(fp)
   101fc:	1809883a 	mov	r4,r3
   10200:	103ee83a 	callr	r2
   10204:	00000206 	br	10210 <alt_instruction_exception_entry+0x4c>
   *    (a peripheral which negates its interrupt output before its
   *    interrupt handler has been executed will cause spurious interrupts)
   */
  else {
#ifdef NIOS2_HAS_DEBUG_STUB
    NIOS2_BREAK();
   10208:	003da03a 	break	0
      ;
#endif /* NIOS2_HAS_DEBUG_STUB */
  }

  /* We should not get here. Remove compiler warning. */
  return NIOS2_EXCEPTION_RETURN_REISSUE_INST;
   1020c:	0005883a 	mov	r2,zero
}
   10210:	e037883a 	mov	sp,fp
   10214:	dfc00117 	ldw	ra,4(sp)
   10218:	df000017 	ldw	fp,0(sp)
   1021c:	dec00204 	addi	sp,sp,8
   10220:	f800283a 	ret

Disassembly of section .text:

00010224 <_start>:

    /*
     * Now that the caches are initialized, set up the stack pointer and global pointer.
     * The values provided by the linker are assumed to be correctly aligned.
     */
    movhi sp, %hi(__alt_stack_pointer)
   10224:	06c00074 	movhi	sp,1
    ori sp, sp, %lo(__alt_stack_pointer)
   10228:	dee80014 	ori	sp,sp,40960
    movhi gp, %hi(_gp)
   1022c:	06800074 	movhi	gp,1
    ori gp, gp, %lo(_gp)
   10230:	d6bdad14 	ori	gp,gp,63156
 */
#ifndef ALT_SIM_OPTIMIZE
    /* Log that the BSS is about to be cleared. */
    ALT_LOG_PUTS(alt_log_msg_bss)

    movhi r2, %hi(__bss_start)
   10234:	00800074 	movhi	r2,1
    ori r2, r2, %lo(__bss_start)
   10238:	109f9e14 	ori	r2,r2,32376

    movhi r3, %hi(__bss_end)
   1023c:	00c00074 	movhi	r3,1
    ori r3, r3, %lo(__bss_end)
   10240:	18e00014 	ori	r3,r3,32768

    beq r2, r3, 1f
   10244:	10c00326 	beq	r2,r3,10254 <_start+0x30>

0:
    stw zero, (r2)
   10248:	10000015 	stw	zero,0(r2)
    addi r2, r2, 4
   1024c:	10800104 	addi	r2,r2,4
    bltu r2, r3, 0b
   10250:	10fffd36 	bltu	r2,r3,10248 <_start+0x24>
     * section aren't defined until alt_load() has been called).
     */
    mov   et, zero
#endif

    call alt_load
   10254:	00151f40 	call	151f4 <alt_load>

    /* Log that alt_main is about to be called. */
    ALT_LOG_PUTS(alt_log_msg_alt_main)

    /* Call the C entry point. It should never return. */
    call alt_main
   10258:	00152780 	call	15278 <alt_main>

0001025c <alt_after_alt_main>:

    /* Wait in infinite loop in case alt_main does return. */
alt_after_alt_main:
    br alt_after_alt_main
   1025c:	003fff06 	br	1025c <alt_after_alt_main>

00010260 <_Z17handleUartMessageRN6Serial10rx_messageE>:
// Setup Motors.
Plant::Motor tilt_motor = Plant::Motor(MOTOR_PWM_0_SLAVE_1_BASE, MOTOR_PWM_0_SLAVE_2_BASE);
Plant::Motor pan_motor = Plant::Motor(MOTOR_PWM_1_SLAVE_1_BASE, MOTOR_PWM_1_SLAVE_2_BASE);

void handleUartMessage(Serial::rx_message &received_message)
{
   10260:	defffd04 	addi	sp,sp,-12
   10264:	dfc00215 	stw	ra,8(sp)
   10268:	df000115 	stw	fp,4(sp)
   1026c:	df000104 	addi	fp,sp,4
   10270:	e13fff15 	stw	r4,-4(fp)
	// Determine for which motor this message is intended.
	switch (received_message.motor)
   10274:	e0bfff17 	ldw	r2,-4(fp)
   10278:	10800017 	ldw	r2,0(r2)
   1027c:	1004d7fa 	srli	r2,r2,31
   10280:	10803fcc 	andi	r2,r2,255
   10284:	10800060 	cmpeqi	r2,r2,1
   10288:	10000d1e 	bne	r2,zero,102c0 <_Z17handleUartMessageRN6Serial10rx_messageE+0x60>
	{
		case 0:
		{
			tilt_motor.setFrequency(received_message.getFirstWord());
   1028c:	e13fff17 	ldw	r4,-4(fp)
   10290:	00106a40 	call	106a4 <_ZN6Serial10rx_message12getFirstWordEv>
   10294:	100b883a 	mov	r5,r2
   10298:	01000074 	movhi	r4,1
   1029c:	211fb004 	addi	r4,r4,32448
   102a0:	0010f9c0 	call	10f9c <_ZN5Plant5Motor12setFrequencyEm>
			tilt_motor.setSecondWord(received_message.getSecondWord());
   102a4:	e13fff17 	ldw	r4,-4(fp)
   102a8:	00106d40 	call	106d4 <_ZN6Serial10rx_message13getSecondWordEv>
   102ac:	100b883a 	mov	r5,r2
   102b0:	01000074 	movhi	r4,1
   102b4:	211fb004 	addi	r4,r4,32448
   102b8:	0010ff40 	call	10ff4 <_ZN5Plant5Motor13setSecondWordEm>
			break;
   102bc:	00000d06 	br	102f4 <_Z17handleUartMessageRN6Serial10rx_messageE+0x94>
		}

		case 1:
		{
			pan_motor.setFrequency(received_message.getFirstWord());
   102c0:	e13fff17 	ldw	r4,-4(fp)
   102c4:	00106a40 	call	106a4 <_ZN6Serial10rx_message12getFirstWordEv>
   102c8:	100b883a 	mov	r5,r2
   102cc:	01000074 	movhi	r4,1
   102d0:	211fb404 	addi	r4,r4,32464
   102d4:	0010f9c0 	call	10f9c <_ZN5Plant5Motor12setFrequencyEm>
			pan_motor.setSecondWord(received_message.getSecondWord());
   102d8:	e13fff17 	ldw	r4,-4(fp)
   102dc:	00106d40 	call	106d4 <_ZN6Serial10rx_message13getSecondWordEv>
   102e0:	100b883a 	mov	r5,r2
   102e4:	01000074 	movhi	r4,1
   102e8:	211fb404 	addi	r4,r4,32464
   102ec:	0010ff40 	call	10ff4 <_ZN5Plant5Motor13setSecondWordEm>
			break;
   102f0:	0001883a 	nop
		}
	}
}
   102f4:	0001883a 	nop
   102f8:	e037883a 	mov	sp,fp
   102fc:	dfc00117 	ldw	ra,4(sp)
   10300:	df000017 	ldw	fp,0(sp)
   10304:	dec00204 	addi	sp,sp,8
   10308:	f800283a 	ret

0001030c <main>:
/**
 * Motor 0 = tilt
 * Motor 1 = pan
 */
int main()
{
   1030c:	defff804 	addi	sp,sp,-32
   10310:	dfc00715 	stw	ra,28(sp)
   10314:	df000615 	stw	fp,24(sp)
   10318:	df000604 	addi	fp,sp,24
	// Print startup message.
	printf("JIWY motor controller running..\n");
   1031c:	01000074 	movhi	r4,1
   10320:	211ad204 	addi	r4,r4,27464
   10324:	00148cc0 	call	148cc <puts>

	int32_t prev_tilt = 0;
   10328:	e03fff15 	stw	zero,-4(fp)
	int32_t prev_pan = 0;
   1032c:	e03ffe15 	stw	zero,-8(fp)

	while(1)
	{
		int32_t tilt = tilt_encoder.readData();
   10330:	d121f204 	addi	r4,gp,-30776
   10334:	0010f0c0 	call	10f0c <_ZN5Plant7Encoder8readDataEv>
   10338:	e0bffd15 	stw	r2,-12(fp)

		if (tilt != prev_tilt)
   1033c:	e0fffd17 	ldw	r3,-12(fp)
   10340:	e0bfff17 	ldw	r2,-4(fp)
   10344:	18800a26 	beq	r3,r2,10370 <main+0x64>
		{
			prev_tilt = tilt;
   10348:	e0bffd17 	ldw	r2,-12(fp)
   1034c:	e0bfff15 	stw	r2,-4(fp)
			Serial::tx_message message(tilt, 0);
   10350:	e0bffb04 	addi	r2,fp,-20
   10354:	000d883a 	mov	r6,zero
   10358:	e17ffd17 	ldw	r5,-12(fp)
   1035c:	1009883a 	mov	r4,r2
   10360:	00107440 	call	10744 <_ZN6Serial10tx_messageC1Ell>
			uart.sendData(message);
   10364:	e17ffb17 	ldw	r5,-20(fp)
   10368:	d121f104 	addi	r4,gp,-30780
   1036c:	00111fc0 	call	111fc <_ZN6Serial4UART8sendDataENS_10tx_messageE>
		}

		int32_t pan = pan_encoder.readData();
   10370:	d121f304 	addi	r4,gp,-30772
   10374:	0010f0c0 	call	10f0c <_ZN5Plant7Encoder8readDataEv>
   10378:	e0bffc15 	stw	r2,-16(fp)

		if (pan != prev_pan)
   1037c:	e0fffc17 	ldw	r3,-16(fp)
   10380:	e0bffe17 	ldw	r2,-8(fp)
   10384:	18bfea26 	beq	r3,r2,10330 <main+0x24>
		{
			prev_pan = pan;
   10388:	e0bffc17 	ldw	r2,-16(fp)
   1038c:	e0bffe15 	stw	r2,-8(fp)
			Serial::tx_message message(pan, 1);
   10390:	e0bffa04 	addi	r2,fp,-24
   10394:	01800044 	movi	r6,1
   10398:	e17ffc17 	ldw	r5,-16(fp)
   1039c:	1009883a 	mov	r4,r2
   103a0:	00107440 	call	10744 <_ZN6Serial10tx_messageC1Ell>
			uart.sendData(message);
   103a4:	e17ffa17 	ldw	r5,-24(fp)
   103a8:	d121f104 	addi	r4,gp,-30780
   103ac:	00111fc0 	call	111fc <_ZN6Serial4UART8sendDataENS_10tx_messageE>
		}

		//usleep(10);
	}
   103b0:	003fdf06 	br	10330 <main+0x24>

000103b4 <_Z41__static_initialization_and_destruction_0ii>:

	return 0;
}
   103b4:	deffe204 	addi	sp,sp,-120
   103b8:	dfc01d15 	stw	ra,116(sp)
   103bc:	df001c15 	stw	fp,112(sp)
   103c0:	ddc01b15 	stw	r23,108(sp)
   103c4:	dd801a15 	stw	r22,104(sp)
   103c8:	dd401915 	stw	r21,100(sp)
   103cc:	dd001815 	stw	r20,96(sp)
   103d0:	dcc01715 	stw	r19,92(sp)
   103d4:	dc801615 	stw	r18,88(sp)
   103d8:	dc401515 	stw	r17,84(sp)
   103dc:	dc001415 	stw	r16,80(sp)
   103e0:	df001c04 	addi	fp,sp,112
   103e4:	e13ff315 	stw	r4,-52(fp)
   103e8:	e17ff215 	stw	r5,-56(fp)
   103ec:	00800074 	movhi	r2,1
   103f0:	10888604 	addi	r2,r2,8728
   103f4:	e0bfeb15 	stw	r2,-84(fp)
   103f8:	00800074 	movhi	r2,1
   103fc:	109abc84 	addi	r2,r2,27378
   10400:	e0bfec15 	stw	r2,-80(fp)
   10404:	e0bfed04 	addi	r2,fp,-76
   10408:	17000015 	stw	fp,0(r2)
   1040c:	00c00074 	movhi	r3,1
   10410:	18c13904 	addi	r3,r3,1252
   10414:	10c00115 	stw	r3,4(r2)
   10418:	16c00215 	stw	sp,8(r2)
   1041c:	e0bfe504 	addi	r2,fp,-108
   10420:	1009883a 	mov	r4,r2
   10424:	00142280 	call	14228 <_Unwind_SjLj_Register>
   10428:	e0bff317 	ldw	r2,-52(fp)
   1042c:	10800058 	cmpnei	r2,r2,1
   10430:	1000361e 	bne	r2,zero,1050c <_Z41__static_initialization_and_destruction_0ii+0x158>
   10434:	e0fff217 	ldw	r3,-56(fp)
   10438:	00bfffd4 	movui	r2,65535
   1043c:	1880331e 	bne	r3,r2,1050c <_Z41__static_initialization_and_destruction_0ii+0x158>
Serial::UART uart = Serial::UART(handleUartMessage);
   10440:	e0fff404 	addi	r3,fp,-48
   10444:	00bfffc4 	movi	r2,-1
   10448:	e0bfe615 	stw	r2,-104(fp)
   1044c:	01400074 	movhi	r5,1
   10450:	29409804 	addi	r5,r5,608
   10454:	1809883a 	mov	r4,r3
   10458:	00108100 	call	10810 <_ZNSt8functionIFvRN6Serial10rx_messageEEEC1IPS3_vvEET_>
   1045c:	e0fff404 	addi	r3,fp,-48
   10460:	00800044 	movi	r2,1
   10464:	e0bfe615 	stw	r2,-104(fp)
   10468:	180b883a 	mov	r5,r3
   1046c:	d121f104 	addi	r4,gp,-30780
   10470:	001116c0 	call	1116c <_ZN6Serial4UARTC1ESt8functionIFvRNS_10rx_messageEEE>
   10474:	e0bff404 	addi	r2,fp,-48
   10478:	1009883a 	mov	r4,r2
   1047c:	00107d80 	call	107d8 <_ZNSt8functionIFvRN6Serial10rx_messageEEED1Ev>
Plant::Encoder tilt_encoder = Plant::Encoder(QUADRATURE_ENCODER_0_BASE);
   10480:	014000b4 	movhi	r5,2
   10484:	00bfffc4 	movi	r2,-1
   10488:	e0bfe615 	stw	r2,-104(fp)
   1048c:	29490004 	addi	r5,r5,9216
   10490:	d121f204 	addi	r4,gp,-30776
   10494:	0010ed80 	call	10ed8 <_ZN5Plant7EncoderC1Em>
Plant::Encoder pan_encoder = Plant::Encoder(QUADRATURE_ENCODER_1_BASE);
   10498:	014000b4 	movhi	r5,2
   1049c:	29480004 	addi	r5,r5,8192
   104a0:	d121f304 	addi	r4,gp,-30772
   104a4:	0010ed80 	call	10ed8 <_ZN5Plant7EncoderC1Em>
Plant::Motor tilt_motor = Plant::Motor(MOTOR_PWM_0_SLAVE_1_BASE, MOTOR_PWM_0_SLAVE_2_BASE);
   104a8:	018000b4 	movhi	r6,2
   104ac:	31850004 	addi	r6,r6,5120
   104b0:	014000b4 	movhi	r5,2
   104b4:	29470004 	addi	r5,r5,7168
   104b8:	01000074 	movhi	r4,1
   104bc:	211fb004 	addi	r4,r4,32448
   104c0:	0010f380 	call	10f38 <_ZN5Plant5MotorC1Emm>
Plant::Motor pan_motor = Plant::Motor(MOTOR_PWM_1_SLAVE_1_BASE, MOTOR_PWM_1_SLAVE_2_BASE);
   104c4:	018000b4 	movhi	r6,2
   104c8:	31840004 	addi	r6,r6,4096
   104cc:	014000b4 	movhi	r5,2
   104d0:	29460004 	addi	r5,r5,6144
   104d4:	01000074 	movhi	r4,1
   104d8:	211fb404 	addi	r4,r4,32464
   104dc:	0010f380 	call	10f38 <_ZN5Plant5MotorC1Emm>
}
   104e0:	00000a06 	br	1050c <_Z41__static_initialization_and_destruction_0ii+0x158>
Serial::UART uart = Serial::UART(handleUartMessage);
   104e4:	e0bfe717 	ldw	r2,-100(fp)
   104e8:	e0bfe415 	stw	r2,-112(fp)
   104ec:	e0bff404 	addi	r2,fp,-48
   104f0:	1009883a 	mov	r4,r2
   104f4:	00107d80 	call	107d8 <_ZNSt8functionIFvRN6Serial10rx_messageEEED1Ev>
   104f8:	e0ffe417 	ldw	r3,-112(fp)
   104fc:	00bfffc4 	movi	r2,-1
   10500:	e0bfe615 	stw	r2,-104(fp)
   10504:	1809883a 	mov	r4,r3
   10508:	00144100 	call	14410 <_Unwind_SjLj_Resume>
   1050c:	e0bfe504 	addi	r2,fp,-108
   10510:	1009883a 	mov	r4,r2
   10514:	00142400 	call	14240 <_Unwind_SjLj_Unregister>
}
   10518:	e6fff804 	addi	sp,fp,-32
   1051c:	dfc00917 	ldw	ra,36(sp)
   10520:	df000817 	ldw	fp,32(sp)
   10524:	ddc00717 	ldw	r23,28(sp)
   10528:	dd800617 	ldw	r22,24(sp)
   1052c:	dd400517 	ldw	r21,20(sp)
   10530:	dd000417 	ldw	r20,16(sp)
   10534:	dcc00317 	ldw	r19,12(sp)
   10538:	dc800217 	ldw	r18,8(sp)
   1053c:	dc400117 	ldw	r17,4(sp)
   10540:	dc000017 	ldw	r16,0(sp)
   10544:	dec00a04 	addi	sp,sp,40
   10548:	f800283a 	ret

0001054c <_GLOBAL__sub_I_uart>:
   1054c:	defffe04 	addi	sp,sp,-8
   10550:	dfc00115 	stw	ra,4(sp)
   10554:	df000015 	stw	fp,0(sp)
   10558:	d839883a 	mov	fp,sp
   1055c:	017fffd4 	movui	r5,65535
   10560:	01000044 	movi	r4,1
   10564:	00103b40 	call	103b4 <_Z41__static_initialization_and_destruction_0ii>
   10568:	e037883a 	mov	sp,fp
   1056c:	dfc00117 	ldw	ra,4(sp)
   10570:	df000017 	ldw	fp,0(sp)
   10574:	dec00204 	addi	sp,sp,8
   10578:	f800283a 	ret

0001057c <_ZnwjPv>:
#endif // __cpp_sized_deallocation
#endif // __cpp_aligned_new

// Default placement versions of operator new.
_GLIBCXX_NODISCARD inline void* operator new(std::size_t, void* __p) _GLIBCXX_USE_NOEXCEPT
{ return __p; }
   1057c:	defffd04 	addi	sp,sp,-12
   10580:	df000215 	stw	fp,8(sp)
   10584:	df000204 	addi	fp,sp,8
   10588:	e13fff15 	stw	r4,-4(fp)
   1058c:	e17ffe15 	stw	r5,-8(fp)
   10590:	e0bffe17 	ldw	r2,-8(fp)
   10594:	e037883a 	mov	sp,fp
   10598:	df000017 	ldw	fp,0(sp)
   1059c:	dec00104 	addi	sp,sp,4
   105a0:	f800283a 	ret

000105a4 <_ZNSt9_Any_data9_M_accessEv>:
    void (_Undefined_class::*_M_member_pointer)();
  };

  union [[gnu::may_alias]] _Any_data
  {
    void*       _M_access()       { return &_M_pod_data[0]; }
   105a4:	defffe04 	addi	sp,sp,-8
   105a8:	df000115 	stw	fp,4(sp)
   105ac:	df000104 	addi	fp,sp,4
   105b0:	e13fff15 	stw	r4,-4(fp)
   105b4:	e0bfff17 	ldw	r2,-4(fp)
   105b8:	e037883a 	mov	sp,fp
   105bc:	df000017 	ldw	fp,0(sp)
   105c0:	dec00104 	addi	sp,sp,4
   105c4:	f800283a 	ret

000105c8 <_ZNKSt9_Any_data9_M_accessEv>:
    const void* _M_access() const { return &_M_pod_data[0]; }
   105c8:	defffe04 	addi	sp,sp,-8
   105cc:	df000115 	stw	fp,4(sp)
   105d0:	df000104 	addi	fp,sp,4
   105d4:	e13fff15 	stw	r4,-4(fp)
   105d8:	e0bfff17 	ldw	r2,-4(fp)
   105dc:	e037883a 	mov	sp,fp
   105e0:	df000017 	ldw	fp,0(sp)
   105e4:	dec00104 	addi	sp,sp,4
   105e8:	f800283a 	ret

000105ec <_ZNSt14_Function_baseC1Ev>:
	static void
	_M_init_functor(_Any_data& __functor, _Functor&& __f, false_type)
	{ __functor._M_access<_Functor*>() = new _Functor(std::move(__f)); }
      };

    _Function_base() : _M_manager(nullptr) { }
   105ec:	defffe04 	addi	sp,sp,-8
   105f0:	df000115 	stw	fp,4(sp)
   105f4:	df000104 	addi	fp,sp,4
   105f8:	e13fff15 	stw	r4,-4(fp)
   105fc:	e0bfff17 	ldw	r2,-4(fp)
   10600:	10000215 	stw	zero,8(r2)
   10604:	0001883a 	nop
   10608:	e037883a 	mov	sp,fp
   1060c:	df000017 	ldw	fp,0(sp)
   10610:	dec00104 	addi	sp,sp,4
   10614:	f800283a 	ret

00010618 <_ZNSt14_Function_baseD1Ev>:

    ~_Function_base()
   10618:	defff004 	addi	sp,sp,-64
   1061c:	dfc00f15 	stw	ra,60(sp)
   10620:	df000e15 	stw	fp,56(sp)
   10624:	df000e04 	addi	fp,sp,56
   10628:	e13fff15 	stw	r4,-4(fp)
   1062c:	00800074 	movhi	r2,1
   10630:	10888604 	addi	r2,r2,8728
   10634:	e0bff815 	stw	r2,-32(fp)
   10638:	00800074 	movhi	r2,1
   1063c:	109aba04 	addi	r2,r2,27368
   10640:	e0bff915 	stw	r2,-28(fp)
   10644:	e0bff204 	addi	r2,fp,-56
   10648:	1009883a 	mov	r4,r2
   1064c:	00142280 	call	14228 <_Unwind_SjLj_Register>
    {
      if (_M_manager)
   10650:	e0bfff17 	ldw	r2,-4(fp)
   10654:	10800217 	ldw	r2,8(r2)
   10658:	10000926 	beq	r2,zero,10680 <_ZNSt14_Function_baseD1Ev+0x68>
	_M_manager(_M_functor, _M_functor, __destroy_functor);
   1065c:	e0bfff17 	ldw	r2,-4(fp)
   10660:	10800217 	ldw	r2,8(r2)
   10664:	e0ffff17 	ldw	r3,-4(fp)
   10668:	e13fff17 	ldw	r4,-4(fp)
   1066c:	e03ff315 	stw	zero,-52(fp)
   10670:	018000c4 	movi	r6,3
   10674:	200b883a 	mov	r5,r4
   10678:	1809883a 	mov	r4,r3
   1067c:	103ee83a 	callr	r2
    }
   10680:	0001883a 	nop
   10684:	e0bff204 	addi	r2,fp,-56
   10688:	1009883a 	mov	r4,r2
   1068c:	00142400 	call	14240 <_Unwind_SjLj_Unregister>
   10690:	e037883a 	mov	sp,fp
   10694:	dfc00117 	ldw	ra,4(sp)
   10698:	df000017 	ldw	fp,0(sp)
   1069c:	dec00204 	addi	sp,sp,8
   106a0:	f800283a 	ret

000106a4 <_ZN6Serial10rx_message12getFirstWordEv>:
		uint32_t getFullField()
		{
			return (freq << 18) | (duty << 4) | (direction << 2) | (enable << 1) | motor;
		}

		uint32_t getFirstWord()
   106a4:	defffe04 	addi	sp,sp,-8
   106a8:	df000115 	stw	fp,4(sp)
   106ac:	df000104 	addi	fp,sp,4
   106b0:	e13fff15 	stw	r4,-4(fp)
		{
			return freq;
   106b4:	e0bfff17 	ldw	r2,-4(fp)
   106b8:	10800017 	ldw	r2,0(r2)
   106bc:	108fffcc 	andi	r2,r2,16383
   106c0:	10bfffcc 	andi	r2,r2,65535
		}
   106c4:	e037883a 	mov	sp,fp
   106c8:	df000017 	ldw	fp,0(sp)
   106cc:	dec00104 	addi	sp,sp,4
   106d0:	f800283a 	ret

000106d4 <_ZN6Serial10rx_message13getSecondWordEv>:

		uint32_t getSecondWord()
   106d4:	defffe04 	addi	sp,sp,-8
   106d8:	df000115 	stw	fp,4(sp)
   106dc:	df000104 	addi	fp,sp,4
   106e0:	e13fff15 	stw	r4,-4(fp)
		{
			return (duty << 16) | (direction << 14) | enable << 13;
   106e4:	e0bfff17 	ldw	r2,-4(fp)
   106e8:	10800017 	ldw	r2,0(r2)
   106ec:	1004d3ba 	srli	r2,r2,14
   106f0:	108fffcc 	andi	r2,r2,16383
   106f4:	10bfffcc 	andi	r2,r2,65535
   106f8:	1006943a 	slli	r3,r2,16
   106fc:	e0bfff17 	ldw	r2,-4(fp)
   10700:	10800017 	ldw	r2,0(r2)
   10704:	1004d73a 	srli	r2,r2,28
   10708:	108000cc 	andi	r2,r2,3
   1070c:	10803fcc 	andi	r2,r2,255
   10710:	100493ba 	slli	r2,r2,14
   10714:	1886b03a 	or	r3,r3,r2
   10718:	e0bfff17 	ldw	r2,-4(fp)
   1071c:	10800017 	ldw	r2,0(r2)
   10720:	1004d7ba 	srli	r2,r2,30
   10724:	1080004c 	andi	r2,r2,1
   10728:	10803fcc 	andi	r2,r2,255
   1072c:	1004937a 	slli	r2,r2,13
   10730:	1884b03a 	or	r2,r3,r2
		}
   10734:	e037883a 	mov	sp,fp
   10738:	df000017 	ldw	fp,0(sp)
   1073c:	dec00104 	addi	sp,sp,4
   10740:	f800283a 	ret

00010744 <_ZN6Serial10tx_messageC1Ell>:
	struct tx_message
	{
		int32_t encoder_value : 31;
		int32_t motor : 1;

		tx_message(int32_t encoder_value, int32_t motor_value) :
   10744:	defffc04 	addi	sp,sp,-16
   10748:	df000315 	stw	fp,12(sp)
   1074c:	df000304 	addi	fp,sp,12
   10750:	e13fff15 	stw	r4,-4(fp)
   10754:	e17ffe15 	stw	r5,-8(fp)
   10758:	e1bffd15 	stw	r6,-12(fp)
				encoder_value(encoder_value),
   1075c:	e0bffe17 	ldw	r2,-8(fp)
   10760:	1085883a 	add	r2,r2,r2
   10764:	1009d07a 	srai	r4,r2,1
				motor (motor_value)
   10768:	e0ffff17 	ldw	r3,-4(fp)
   1076c:	00a00034 	movhi	r2,32768
   10770:	10bfffc4 	addi	r2,r2,-1
   10774:	2084703a 	and	r2,r4,r2
   10778:	19000017 	ldw	r4,0(r3)
   1077c:	2120002c 	andhi	r4,r4,32768
   10780:	2084b03a 	or	r2,r4,r2
   10784:	18800015 	stw	r2,0(r3)
   10788:	e0bffd17 	ldw	r2,-12(fp)
   1078c:	100491fa 	slli	r2,r2,7
   10790:	10803fcc 	andi	r2,r2,255
   10794:	1080201c 	xori	r2,r2,128
   10798:	10bfe004 	addi	r2,r2,-128
   1079c:	1005d1fa 	srai	r2,r2,7
   107a0:	e0ffff17 	ldw	r3,-4(fp)
   107a4:	10803fcc 	andi	r2,r2,255
   107a8:	100897fa 	slli	r4,r2,31
   107ac:	19400017 	ldw	r5,0(r3)
   107b0:	00a00034 	movhi	r2,32768
   107b4:	10bfffc4 	addi	r2,r2,-1
   107b8:	2884703a 	and	r2,r5,r2
   107bc:	1104b03a 	or	r2,r2,r4
   107c0:	18800015 	stw	r2,0(r3)
		{}
   107c4:	0001883a 	nop
   107c8:	e037883a 	mov	sp,fp
   107cc:	df000017 	ldw	fp,0(sp)
   107d0:	dec00104 	addi	sp,sp,4
   107d4:	f800283a 	ret

000107d8 <_ZNSt8functionIFvRN6Serial10rx_messageEEED1Ev>:
   *  @ingroup functors
   *
   *  Polymorphic function wrapper.
   */
  template<typename _Res, typename... _ArgTypes>
    class function<_Res(_ArgTypes...)>
   107d8:	defffd04 	addi	sp,sp,-12
   107dc:	dfc00215 	stw	ra,8(sp)
   107e0:	df000115 	stw	fp,4(sp)
   107e4:	df000104 	addi	fp,sp,4
   107e8:	e13fff15 	stw	r4,-4(fp)
   107ec:	e0bfff17 	ldw	r2,-4(fp)
   107f0:	1009883a 	mov	r4,r2
   107f4:	00106180 	call	10618 <_ZNSt14_Function_baseD1Ev>
   107f8:	0001883a 	nop
   107fc:	e037883a 	mov	sp,fp
   10800:	dfc00117 	ldw	ra,4(sp)
   10804:	df000017 	ldw	fp,0(sp)
   10808:	dec00204 	addi	sp,sp,8
   1080c:	f800283a 	ret

00010810 <_ZNSt8functionIFvRN6Serial10rx_messageEEEC1IPS3_vvEET_>:
	}
    }

  template<typename _Res, typename... _ArgTypes>
    template<typename _Functor, typename, typename>
      function<_Res(_ArgTypes...)>::
   10810:	deffe604 	addi	sp,sp,-104
   10814:	dfc01915 	stw	ra,100(sp)
   10818:	df001815 	stw	fp,96(sp)
   1081c:	ddc01715 	stw	r23,92(sp)
   10820:	dd801615 	stw	r22,88(sp)
   10824:	dd401515 	stw	r21,84(sp)
   10828:	dd001415 	stw	r20,80(sp)
   1082c:	dcc01315 	stw	r19,76(sp)
   10830:	dc801215 	stw	r18,72(sp)
   10834:	dc401115 	stw	r17,68(sp)
   10838:	dc001015 	stw	r16,64(sp)
   1083c:	df001804 	addi	fp,sp,96
   10840:	e13ff715 	stw	r4,-36(fp)
   10844:	e17ff615 	stw	r5,-40(fp)
   10848:	00800074 	movhi	r2,1
   1084c:	10888604 	addi	r2,r2,8728
   10850:	e0bfef15 	stw	r2,-68(fp)
   10854:	00800074 	movhi	r2,1
   10858:	109abb04 	addi	r2,r2,27372
   1085c:	e0bff015 	stw	r2,-64(fp)
   10860:	e0bff104 	addi	r2,fp,-60
   10864:	17000015 	stw	fp,0(r2)
   10868:	00c00074 	movhi	r3,1
   1086c:	18c23d04 	addi	r3,r3,2292
   10870:	10c00115 	stw	r3,4(r2)
   10874:	16c00215 	stw	sp,8(r2)
   10878:	e0bfe904 	addi	r2,fp,-92
   1087c:	1009883a 	mov	r4,r2
   10880:	00142280 	call	14228 <_Unwind_SjLj_Register>
      function(_Functor __f)
      : _Function_base()
   10884:	e0bff717 	ldw	r2,-36(fp)
   10888:	1009883a 	mov	r4,r2
   1088c:	00105ec0 	call	105ec <_ZNSt14_Function_baseC1Ev>
      {
	typedef _Function_handler<_Res(_ArgTypes...), _Functor> _My_handler;

	if (_My_handler::_M_not_empty_function(__f))
   10890:	e0bff617 	ldw	r2,-40(fp)
   10894:	1009883a 	mov	r4,r2
   10898:	00109600 	call	10960 <_ZNSt14_Function_base13_Base_managerIPFvRN6Serial10rx_messageEEE21_M_not_empty_functionIS4_EEbPT_>
   1089c:	10803fcc 	andi	r2,r2,255
   108a0:	10001e26 	beq	r2,zero,1091c <_ZNSt8functionIFvRN6Serial10rx_messageEEEC1IPS3_vvEET_+0x10c>
	  {
	    _My_handler::_M_init_functor(_M_functor, std::move(__f));
   108a4:	e0bff717 	ldw	r2,-36(fp)
   108a8:	e0bfe815 	stw	r2,-96(fp)
   108ac:	e0bff604 	addi	r2,fp,-40
   108b0:	1009883a 	mov	r4,r2
   108b4:	00109880 	call	10988 <_ZSt4moveIRPFvRN6Serial10rx_messageEEEONSt16remove_referenceIT_E4typeEOS7_>
   108b8:	1007883a 	mov	r3,r2
   108bc:	00800044 	movi	r2,1
   108c0:	e0bfea15 	stw	r2,-88(fp)
   108c4:	180b883a 	mov	r5,r3
   108c8:	e13fe817 	ldw	r4,-96(fp)
   108cc:	00109ac0 	call	109ac <_ZNSt14_Function_base13_Base_managerIPFvRN6Serial10rx_messageEEE15_M_init_functorERSt9_Any_dataOS5_>
	    _M_invoker = &_My_handler::_M_invoke;
   108d0:	e0fff717 	ldw	r3,-36(fp)
   108d4:	00800074 	movhi	r2,1
   108d8:	10827f04 	addi	r2,r2,2556
   108dc:	18800315 	stw	r2,12(r3)
	    _M_manager = &_My_handler::_M_manager;
   108e0:	e0fff717 	ldw	r3,-36(fp)
   108e4:	00800074 	movhi	r2,1
   108e8:	10829504 	addi	r2,r2,2644
   108ec:	18800215 	stw	r2,8(r3)
	  }
      }
   108f0:	00000a06 	br	1091c <_ZNSt8functionIFvRN6Serial10rx_messageEEEC1IPS3_vvEET_+0x10c>
      : _Function_base()
   108f4:	e0bfeb17 	ldw	r2,-84(fp)
   108f8:	e0bfe815 	stw	r2,-96(fp)
   108fc:	e0bff717 	ldw	r2,-36(fp)
   10900:	1009883a 	mov	r4,r2
   10904:	00106180 	call	10618 <_ZNSt14_Function_baseD1Ev>
   10908:	e0ffe817 	ldw	r3,-96(fp)
   1090c:	00bfffc4 	movi	r2,-1
   10910:	e0bfea15 	stw	r2,-88(fp)
   10914:	1809883a 	mov	r4,r3
   10918:	00144100 	call	14410 <_Unwind_SjLj_Resume>
      }
   1091c:	0001883a 	nop
   10920:	e0bfe904 	addi	r2,fp,-92
   10924:	1009883a 	mov	r4,r2
   10928:	00142400 	call	14240 <_Unwind_SjLj_Unregister>
   1092c:	e6fff804 	addi	sp,fp,-32
   10930:	dfc00917 	ldw	ra,36(sp)
   10934:	df000817 	ldw	fp,32(sp)
   10938:	ddc00717 	ldw	r23,28(sp)
   1093c:	dd800617 	ldw	r22,24(sp)
   10940:	dd400517 	ldw	r21,20(sp)
   10944:	dd000417 	ldw	r20,16(sp)
   10948:	dcc00317 	ldw	r19,12(sp)
   1094c:	dc800217 	ldw	r18,8(sp)
   10950:	dc400117 	ldw	r17,4(sp)
   10954:	dc000017 	ldw	r16,0(sp)
   10958:	dec00a04 	addi	sp,sp,40
   1095c:	f800283a 	ret

00010960 <_ZNSt14_Function_base13_Base_managerIPFvRN6Serial10rx_messageEEE21_M_not_empty_functionIS4_EEbPT_>:
	  _M_not_empty_function(_Tp* __fp)
   10960:	defffe04 	addi	sp,sp,-8
   10964:	df000115 	stw	fp,4(sp)
   10968:	df000104 	addi	fp,sp,4
   1096c:	e13fff15 	stw	r4,-4(fp)
	  { return __fp != nullptr; }
   10970:	e0bfff17 	ldw	r2,-4(fp)
   10974:	1004c03a 	cmpne	r2,r2,zero
   10978:	e037883a 	mov	sp,fp
   1097c:	df000017 	ldw	fp,0(sp)
   10980:	dec00104 	addi	sp,sp,4
   10984:	f800283a 	ret

00010988 <_ZSt4moveIRPFvRN6Serial10rx_messageEEEONSt16remove_referenceIT_E4typeEOS7_>:
   *  @param  __t  A thing of arbitrary type.
   *  @return The parameter cast to an rvalue-reference to allow moving it.
  */
  template<typename _Tp>
    constexpr typename std::remove_reference<_Tp>::type&&
    move(_Tp&& __t) noexcept
   10988:	defffe04 	addi	sp,sp,-8
   1098c:	df000115 	stw	fp,4(sp)
   10990:	df000104 	addi	fp,sp,4
   10994:	e13fff15 	stw	r4,-4(fp)
    { return static_cast<typename std::remove_reference<_Tp>::type&&>(__t); }
   10998:	e0bfff17 	ldw	r2,-4(fp)
   1099c:	e037883a 	mov	sp,fp
   109a0:	df000017 	ldw	fp,0(sp)
   109a4:	dec00104 	addi	sp,sp,4
   109a8:	f800283a 	ret

000109ac <_ZNSt14_Function_base13_Base_managerIPFvRN6Serial10rx_messageEEE15_M_init_functorERSt9_Any_dataOS5_>:
	_M_init_functor(_Any_data& __functor, _Functor&& __f)
   109ac:	defffb04 	addi	sp,sp,-20
   109b0:	dfc00415 	stw	ra,16(sp)
   109b4:	df000315 	stw	fp,12(sp)
   109b8:	dc000215 	stw	r16,8(sp)
   109bc:	df000304 	addi	fp,sp,12
   109c0:	e13ffe15 	stw	r4,-8(fp)
   109c4:	e17ffd15 	stw	r5,-12(fp)
	{ _M_init_functor(__functor, std::move(__f), _Local_storage()); }
   109c8:	e13ffd17 	ldw	r4,-12(fp)
   109cc:	00109880 	call	10988 <_ZSt4moveIRPFvRN6Serial10rx_messageEEEONSt16remove_referenceIT_E4typeEOS7_>
   109d0:	800d883a 	mov	r6,r16
   109d4:	100b883a 	mov	r5,r2
   109d8:	e13ffe17 	ldw	r4,-8(fp)
   109dc:	0010aec0 	call	10aec <_ZNSt14_Function_base13_Base_managerIPFvRN6Serial10rx_messageEEE15_M_init_functorERSt9_Any_dataOS5_St17integral_constantIbLb1EE>
   109e0:	0001883a 	nop
   109e4:	e6ffff04 	addi	sp,fp,-4
   109e8:	dfc00217 	ldw	ra,8(sp)
   109ec:	df000117 	ldw	fp,4(sp)
   109f0:	dc000017 	ldw	r16,0(sp)
   109f4:	dec00304 	addi	sp,sp,12
   109f8:	f800283a 	ret

000109fc <_ZNSt17_Function_handlerIFvRN6Serial10rx_messageEEPS3_E9_M_invokeERKSt9_Any_dataS2_>:
      _M_invoke(const _Any_data& __functor, _ArgTypes&&... __args)
   109fc:	defffb04 	addi	sp,sp,-20
   10a00:	dfc00415 	stw	ra,16(sp)
   10a04:	df000315 	stw	fp,12(sp)
   10a08:	dc000215 	stw	r16,8(sp)
   10a0c:	df000304 	addi	fp,sp,12
   10a10:	e13ffe15 	stw	r4,-8(fp)
   10a14:	e17ffd15 	stw	r5,-12(fp)
	return std::__invoke_r<_Res>(*_Base::_M_get_pointer(__functor),
   10a18:	e13ffe17 	ldw	r4,-8(fp)
   10a1c:	0010b4c0 	call	10b4c <_ZNSt14_Function_base13_Base_managerIPFvRN6Serial10rx_messageEEE14_M_get_pointerERKSt9_Any_data>
   10a20:	1021883a 	mov	r16,r2
   10a24:	e13ffd17 	ldw	r4,-12(fp)
   10a28:	0010b8c0 	call	10b8c <_ZSt7forwardIRN6Serial10rx_messageEEOT_RNSt16remove_referenceIS3_E4typeE>
   10a2c:	100b883a 	mov	r5,r2
   10a30:	8009883a 	mov	r4,r16
   10a34:	0010bb00 	call	10bb0 <_ZSt10__invoke_rIvRPFvRN6Serial10rx_messageEEJS2_EENSt9enable_ifIXsrSt6__and_IJSt7is_voidIT_ESt14__is_invocableIT0_JDpT1_EEEE5valueES9_E4typeEOSC_DpOSD_>
				     std::forward<_ArgTypes>(__args)...);
   10a38:	0001883a 	nop
      }
   10a3c:	e6ffff04 	addi	sp,fp,-4
   10a40:	dfc00217 	ldw	ra,8(sp)
   10a44:	df000117 	ldw	fp,4(sp)
   10a48:	dc000017 	ldw	r16,0(sp)
   10a4c:	dec00304 	addi	sp,sp,12
   10a50:	f800283a 	ret

00010a54 <_ZNSt17_Function_handlerIFvRN6Serial10rx_messageEEPS3_E10_M_managerERSt9_Any_dataRKS6_St18_Manager_operation>:
      _M_manager(_Any_data& __dest, const _Any_data& __source,
   10a54:	defffa04 	addi	sp,sp,-24
   10a58:	dfc00515 	stw	ra,20(sp)
   10a5c:	df000415 	stw	fp,16(sp)
   10a60:	dc000315 	stw	r16,12(sp)
   10a64:	df000404 	addi	fp,sp,16
   10a68:	e13ffe15 	stw	r4,-8(fp)
   10a6c:	e17ffd15 	stw	r5,-12(fp)
   10a70:	e1bffc15 	stw	r6,-16(fp)
	switch (__op)
   10a74:	e0bffc17 	ldw	r2,-16(fp)
   10a78:	10000326 	beq	r2,zero,10a88 <_ZNSt17_Function_handlerIFvRN6Serial10rx_messageEEPS3_E10_M_managerERSt9_Any_dataRKS6_St18_Manager_operation+0x34>
   10a7c:	10800060 	cmpeqi	r2,r2,1
   10a80:	1000081e 	bne	r2,zero,10aa4 <_ZNSt17_Function_handlerIFvRN6Serial10rx_messageEEPS3_E10_M_managerERSt9_Any_dataRKS6_St18_Manager_operation+0x50>
   10a84:	00000e06 	br	10ac0 <_ZNSt17_Function_handlerIFvRN6Serial10rx_messageEEPS3_E10_M_managerERSt9_Any_dataRKS6_St18_Manager_operation+0x6c>
	    __dest._M_access<const type_info*>() = &typeid(_Functor);
   10a88:	e13ffe17 	ldw	r4,-8(fp)
   10a8c:	0010c140 	call	10c14 <_ZNSt9_Any_data9_M_accessIPKSt9type_infoEERT_v>
   10a90:	1007883a 	mov	r3,r2
   10a94:	00800074 	movhi	r2,1
   10a98:	109ada04 	addi	r2,r2,27496
   10a9c:	18800015 	stw	r2,0(r3)
	    break;
   10aa0:	00000b06 	br	10ad0 <_ZNSt17_Function_handlerIFvRN6Serial10rx_messageEEPS3_E10_M_managerERSt9_Any_dataRKS6_St18_Manager_operation+0x7c>
	    __dest._M_access<_Functor*>() = _Base::_M_get_pointer(__source);
   10aa4:	e13ffe17 	ldw	r4,-8(fp)
   10aa8:	0010c440 	call	10c44 <_ZNSt9_Any_data9_M_accessIPPFvRN6Serial10rx_messageEEEERT_v>
   10aac:	1021883a 	mov	r16,r2
   10ab0:	e13ffd17 	ldw	r4,-12(fp)
   10ab4:	0010b4c0 	call	10b4c <_ZNSt14_Function_base13_Base_managerIPFvRN6Serial10rx_messageEEE14_M_get_pointerERKSt9_Any_data>
   10ab8:	80800015 	stw	r2,0(r16)
	    break;
   10abc:	00000406 	br	10ad0 <_ZNSt17_Function_handlerIFvRN6Serial10rx_messageEEPS3_E10_M_managerERSt9_Any_dataRKS6_St18_Manager_operation+0x7c>
	    _Base::_M_manager(__dest, __source, __op);
   10ac0:	e1bffc17 	ldw	r6,-16(fp)
   10ac4:	e17ffd17 	ldw	r5,-12(fp)
   10ac8:	e13ffe17 	ldw	r4,-8(fp)
   10acc:	0010c740 	call	10c74 <_ZNSt14_Function_base13_Base_managerIPFvRN6Serial10rx_messageEEE10_M_managerERSt9_Any_dataRKS7_St18_Manager_operation>
	return false;
   10ad0:	0005883a 	mov	r2,zero
      }
   10ad4:	e6ffff04 	addi	sp,fp,-4
   10ad8:	dfc00217 	ldw	ra,8(sp)
   10adc:	df000117 	ldw	fp,4(sp)
   10ae0:	dc000017 	ldw	r16,0(sp)
   10ae4:	dec00304 	addi	sp,sp,12
   10ae8:	f800283a 	ret

00010aec <_ZNSt14_Function_base13_Base_managerIPFvRN6Serial10rx_messageEEE15_M_init_functorERSt9_Any_dataOS5_St17integral_constantIbLb1EE>:
	_M_init_functor(_Any_data& __functor, _Functor&& __f, true_type)
   10aec:	defffa04 	addi	sp,sp,-24
   10af0:	dfc00515 	stw	ra,20(sp)
   10af4:	df000415 	stw	fp,16(sp)
   10af8:	dc000315 	stw	r16,12(sp)
   10afc:	df000404 	addi	fp,sp,16
   10b00:	e13ffe15 	stw	r4,-8(fp)
   10b04:	e17ffd15 	stw	r5,-12(fp)
   10b08:	e1bffcc5 	stb	r6,-13(fp)
	{ ::new (__functor._M_access()) _Functor(std::move(__f)); }
   10b0c:	e13ffd17 	ldw	r4,-12(fp)
   10b10:	00109880 	call	10988 <_ZSt4moveIRPFvRN6Serial10rx_messageEEEONSt16remove_referenceIT_E4typeEOS7_>
   10b14:	14000017 	ldw	r16,0(r2)
   10b18:	e13ffe17 	ldw	r4,-8(fp)
   10b1c:	00105a40 	call	105a4 <_ZNSt9_Any_data9_M_accessEv>
   10b20:	100b883a 	mov	r5,r2
   10b24:	01000104 	movi	r4,4
   10b28:	001057c0 	call	1057c <_ZnwjPv>
   10b2c:	14000015 	stw	r16,0(r2)
   10b30:	0001883a 	nop
   10b34:	e6ffff04 	addi	sp,fp,-4
   10b38:	dfc00217 	ldw	ra,8(sp)
   10b3c:	df000117 	ldw	fp,4(sp)
   10b40:	dc000017 	ldw	r16,0(sp)
   10b44:	dec00304 	addi	sp,sp,12
   10b48:	f800283a 	ret

00010b4c <_ZNSt14_Function_base13_Base_managerIPFvRN6Serial10rx_messageEEE14_M_get_pointerERKSt9_Any_data>:
	_M_get_pointer(const _Any_data& __source)
   10b4c:	defffc04 	addi	sp,sp,-16
   10b50:	dfc00315 	stw	ra,12(sp)
   10b54:	df000215 	stw	fp,8(sp)
   10b58:	df000204 	addi	fp,sp,8
   10b5c:	e13ffe15 	stw	r4,-8(fp)
	      const _Functor& __f = __source._M_access<_Functor>();
   10b60:	e13ffe17 	ldw	r4,-8(fp)
   10b64:	0010d400 	call	10d40 <_ZNKSt9_Any_data9_M_accessIPFvRN6Serial10rx_messageEEEERKT_v>
   10b68:	e0bfff15 	stw	r2,-4(fp)
	      return const_cast<_Functor*>(std::__addressof(__f));
   10b6c:	e13fff17 	ldw	r4,-4(fp)
   10b70:	0010d700 	call	10d70 <_ZSt11__addressofIKPFvRN6Serial10rx_messageEEEPT_RS6_>
   10b74:	0001883a 	nop
	}
   10b78:	e037883a 	mov	sp,fp
   10b7c:	dfc00117 	ldw	ra,4(sp)
   10b80:	df000017 	ldw	fp,0(sp)
   10b84:	dec00204 	addi	sp,sp,8
   10b88:	f800283a 	ret

00010b8c <_ZSt7forwardIRN6Serial10rx_messageEEOT_RNSt16remove_referenceIS3_E4typeE>:
    forward(typename std::remove_reference<_Tp>::type& __t) noexcept
   10b8c:	defffe04 	addi	sp,sp,-8
   10b90:	df000115 	stw	fp,4(sp)
   10b94:	df000104 	addi	fp,sp,4
   10b98:	e13fff15 	stw	r4,-4(fp)
    { return static_cast<_Tp&&>(__t); }
   10b9c:	e0bfff17 	ldw	r2,-4(fp)
   10ba0:	e037883a 	mov	sp,fp
   10ba4:	df000017 	ldw	fp,0(sp)
   10ba8:	dec00104 	addi	sp,sp,4
   10bac:	f800283a 	ret

00010bb0 <_ZSt10__invoke_rIvRPFvRN6Serial10rx_messageEEJS2_EENSt9enable_ifIXsrSt6__and_IJSt7is_voidIT_ESt14__is_invocableIT0_JDpT1_EEEE5valueES9_E4typeEOSC_DpOSD_>:
    }

  // INVOKE<R> when R is cv void
  template<typename _Res, typename _Callable, typename... _Args>
    _GLIBCXX14_CONSTEXPR __can_invoke_as_void<_Res, _Callable, _Args...>
    __invoke_r(_Callable&& __fn, _Args&&... __args)
   10bb0:	defffa04 	addi	sp,sp,-24
   10bb4:	dfc00515 	stw	ra,20(sp)
   10bb8:	df000415 	stw	fp,16(sp)
   10bbc:	dc400315 	stw	r17,12(sp)
   10bc0:	dc000215 	stw	r16,8(sp)
   10bc4:	df000404 	addi	fp,sp,16
   10bc8:	e13ffd15 	stw	r4,-12(fp)
   10bcc:	e17ffc15 	stw	r5,-16(fp)
    {
      using __result = __invoke_result<_Callable, _Args...>;
      using __type = typename __result::type;
      using __tag = typename __result::__invoke_type;
      std::__invoke_impl<__type>(__tag{}, std::forward<_Callable>(__fn),
   10bd0:	e13ffd17 	ldw	r4,-12(fp)
   10bd4:	0010d940 	call	10d94 <_ZSt7forwardIRPFvRN6Serial10rx_messageEEEOT_RNSt16remove_referenceIS6_E4typeE>
   10bd8:	1021883a 	mov	r16,r2
   10bdc:	e13ffc17 	ldw	r4,-16(fp)
   10be0:	0010b8c0 	call	10b8c <_ZSt7forwardIRN6Serial10rx_messageEEOT_RNSt16remove_referenceIS3_E4typeE>
   10be4:	100d883a 	mov	r6,r2
   10be8:	800b883a 	mov	r5,r16
   10bec:	8809883a 	mov	r4,r17
   10bf0:	0010db80 	call	10db8 <_ZSt13__invoke_implIvRPFvRN6Serial10rx_messageEEJS2_EET_St14__invoke_otherOT0_DpOT1_>
				 std::forward<_Args>(__args)...);
    }
   10bf4:	0001883a 	nop
   10bf8:	e6fffe04 	addi	sp,fp,-8
   10bfc:	dfc00317 	ldw	ra,12(sp)
   10c00:	df000217 	ldw	fp,8(sp)
   10c04:	dc400117 	ldw	r17,4(sp)
   10c08:	dc000017 	ldw	r16,0(sp)
   10c0c:	dec00404 	addi	sp,sp,16
   10c10:	f800283a 	ret

00010c14 <_ZNSt9_Any_data9_M_accessIPKSt9type_infoEERT_v>:
      _M_access()
   10c14:	defffd04 	addi	sp,sp,-12
   10c18:	dfc00215 	stw	ra,8(sp)
   10c1c:	df000115 	stw	fp,4(sp)
   10c20:	df000104 	addi	fp,sp,4
   10c24:	e13fff15 	stw	r4,-4(fp)
      { return *static_cast<_Tp*>(_M_access()); }
   10c28:	e13fff17 	ldw	r4,-4(fp)
   10c2c:	00105a40 	call	105a4 <_ZNSt9_Any_data9_M_accessEv>
   10c30:	e037883a 	mov	sp,fp
   10c34:	dfc00117 	ldw	ra,4(sp)
   10c38:	df000017 	ldw	fp,0(sp)
   10c3c:	dec00204 	addi	sp,sp,8
   10c40:	f800283a 	ret

00010c44 <_ZNSt9_Any_data9_M_accessIPPFvRN6Serial10rx_messageEEEERT_v>:
      _M_access()
   10c44:	defffd04 	addi	sp,sp,-12
   10c48:	dfc00215 	stw	ra,8(sp)
   10c4c:	df000115 	stw	fp,4(sp)
   10c50:	df000104 	addi	fp,sp,4
   10c54:	e13fff15 	stw	r4,-4(fp)
      { return *static_cast<_Tp*>(_M_access()); }
   10c58:	e13fff17 	ldw	r4,-4(fp)
   10c5c:	00105a40 	call	105a4 <_ZNSt9_Any_data9_M_accessEv>
   10c60:	e037883a 	mov	sp,fp
   10c64:	dfc00117 	ldw	ra,4(sp)
   10c68:	df000017 	ldw	fp,0(sp)
   10c6c:	dec00204 	addi	sp,sp,8
   10c70:	f800283a 	ret

00010c74 <_ZNSt14_Function_base13_Base_managerIPFvRN6Serial10rx_messageEEE10_M_managerERSt9_Any_dataRKS7_St18_Manager_operation>:
	_M_manager(_Any_data& __dest, const _Any_data& __source,
   10c74:	defffa04 	addi	sp,sp,-24
   10c78:	dfc00515 	stw	ra,20(sp)
   10c7c:	df000415 	stw	fp,16(sp)
   10c80:	dc000315 	stw	r16,12(sp)
   10c84:	df000404 	addi	fp,sp,16
   10c88:	e13ffe15 	stw	r4,-8(fp)
   10c8c:	e17ffd15 	stw	r5,-12(fp)
   10c90:	e1bffc15 	stw	r6,-16(fp)
	  switch (__op)
   10c94:	e0bffc17 	ldw	r2,-16(fp)
   10c98:	10c000e0 	cmpeqi	r3,r2,3
   10c9c:	18001d1e 	bne	r3,zero,10d14 <_ZNSt14_Function_base13_Base_managerIPFvRN6Serial10rx_messageEEE10_M_managerERSt9_Any_dataRKS7_St18_Manager_operation+0xa0>
   10ca0:	10c00108 	cmpgei	r3,r2,4
   10ca4:	18001f1e 	bne	r3,zero,10d24 <_ZNSt14_Function_base13_Base_managerIPFvRN6Serial10rx_messageEEE10_M_managerERSt9_Any_dataRKS7_St18_Manager_operation+0xb0>
   10ca8:	10c000a0 	cmpeqi	r3,r2,2
   10cac:	1800141e 	bne	r3,zero,10d00 <_ZNSt14_Function_base13_Base_managerIPFvRN6Serial10rx_messageEEE10_M_managerERSt9_Any_dataRKS7_St18_Manager_operation+0x8c>
   10cb0:	10c000c8 	cmpgei	r3,r2,3
   10cb4:	18001b1e 	bne	r3,zero,10d24 <_ZNSt14_Function_base13_Base_managerIPFvRN6Serial10rx_messageEEE10_M_managerERSt9_Any_dataRKS7_St18_Manager_operation+0xb0>
   10cb8:	10000326 	beq	r2,zero,10cc8 <_ZNSt14_Function_base13_Base_managerIPFvRN6Serial10rx_messageEEE10_M_managerERSt9_Any_dataRKS7_St18_Manager_operation+0x54>
   10cbc:	10800060 	cmpeqi	r2,r2,1
   10cc0:	1000081e 	bne	r2,zero,10ce4 <_ZNSt14_Function_base13_Base_managerIPFvRN6Serial10rx_messageEEE10_M_managerERSt9_Any_dataRKS7_St18_Manager_operation+0x70>
   10cc4:	00001706 	br	10d24 <_ZNSt14_Function_base13_Base_managerIPFvRN6Serial10rx_messageEEE10_M_managerERSt9_Any_dataRKS7_St18_Manager_operation+0xb0>
	      __dest._M_access<const type_info*>() = &typeid(_Functor);
   10cc8:	e13ffe17 	ldw	r4,-8(fp)
   10ccc:	0010c140 	call	10c14 <_ZNSt9_Any_data9_M_accessIPKSt9type_infoEERT_v>
   10cd0:	1007883a 	mov	r3,r2
   10cd4:	00800074 	movhi	r2,1
   10cd8:	109ada04 	addi	r2,r2,27496
   10cdc:	18800015 	stw	r2,0(r3)
	      break;
   10ce0:	00001006 	br	10d24 <_ZNSt14_Function_base13_Base_managerIPFvRN6Serial10rx_messageEEE10_M_managerERSt9_Any_dataRKS7_St18_Manager_operation+0xb0>
	      __dest._M_access<_Functor*>() = _M_get_pointer(__source);
   10ce4:	e13ffe17 	ldw	r4,-8(fp)
   10ce8:	0010c440 	call	10c44 <_ZNSt9_Any_data9_M_accessIPPFvRN6Serial10rx_messageEEEERT_v>
   10cec:	1021883a 	mov	r16,r2
   10cf0:	e13ffd17 	ldw	r4,-12(fp)
   10cf4:	0010b4c0 	call	10b4c <_ZNSt14_Function_base13_Base_managerIPFvRN6Serial10rx_messageEEE14_M_get_pointerERKSt9_Any_data>
   10cf8:	80800015 	stw	r2,0(r16)
	      break;
   10cfc:	00000906 	br	10d24 <_ZNSt14_Function_base13_Base_managerIPFvRN6Serial10rx_messageEEE10_M_managerERSt9_Any_dataRKS7_St18_Manager_operation+0xb0>
	      _M_clone(__dest, __source, _Local_storage());
   10d00:	400d883a 	mov	r6,r8
   10d04:	e17ffd17 	ldw	r5,-12(fp)
   10d08:	e13ffe17 	ldw	r4,-8(fp)
   10d0c:	0010e100 	call	10e10 <_ZNSt14_Function_base13_Base_managerIPFvRN6Serial10rx_messageEEE8_M_cloneERSt9_Any_dataRKS7_St17integral_constantIbLb1EE>
	      break;
   10d10:	00000406 	br	10d24 <_ZNSt14_Function_base13_Base_managerIPFvRN6Serial10rx_messageEEE10_M_managerERSt9_Any_dataRKS7_St18_Manager_operation+0xb0>
	      _M_destroy(__dest, _Local_storage());
   10d14:	380b883a 	mov	r5,r7
   10d18:	e13ffe17 	ldw	r4,-8(fp)
   10d1c:	0010e700 	call	10e70 <_ZNSt14_Function_base13_Base_managerIPFvRN6Serial10rx_messageEEE10_M_destroyERSt9_Any_dataSt17integral_constantIbLb1EE>
	      break;
   10d20:	0001883a 	nop
	  return false;
   10d24:	0005883a 	mov	r2,zero
	}
   10d28:	e6ffff04 	addi	sp,fp,-4
   10d2c:	dfc00217 	ldw	ra,8(sp)
   10d30:	df000117 	ldw	fp,4(sp)
   10d34:	dc000017 	ldw	r16,0(sp)
   10d38:	dec00304 	addi	sp,sp,12
   10d3c:	f800283a 	ret

00010d40 <_ZNKSt9_Any_data9_M_accessIPFvRN6Serial10rx_messageEEEERKT_v>:
      _M_access() const
   10d40:	defffd04 	addi	sp,sp,-12
   10d44:	dfc00215 	stw	ra,8(sp)
   10d48:	df000115 	stw	fp,4(sp)
   10d4c:	df000104 	addi	fp,sp,4
   10d50:	e13fff15 	stw	r4,-4(fp)
      { return *static_cast<const _Tp*>(_M_access()); }
   10d54:	e13fff17 	ldw	r4,-4(fp)
   10d58:	00105c80 	call	105c8 <_ZNKSt9_Any_data9_M_accessEv>
   10d5c:	e037883a 	mov	sp,fp
   10d60:	dfc00117 	ldw	ra,4(sp)
   10d64:	df000017 	ldw	fp,0(sp)
   10d68:	dec00204 	addi	sp,sp,8
   10d6c:	f800283a 	ret

00010d70 <_ZSt11__addressofIKPFvRN6Serial10rx_messageEEEPT_RS6_>:
    __addressof(_Tp& __r) _GLIBCXX_NOEXCEPT
   10d70:	defffe04 	addi	sp,sp,-8
   10d74:	df000115 	stw	fp,4(sp)
   10d78:	df000104 	addi	fp,sp,4
   10d7c:	e13fff15 	stw	r4,-4(fp)
    { return __builtin_addressof(__r); }
   10d80:	e0bfff17 	ldw	r2,-4(fp)
   10d84:	e037883a 	mov	sp,fp
   10d88:	df000017 	ldw	fp,0(sp)
   10d8c:	dec00104 	addi	sp,sp,4
   10d90:	f800283a 	ret

00010d94 <_ZSt7forwardIRPFvRN6Serial10rx_messageEEEOT_RNSt16remove_referenceIS6_E4typeE>:
    forward(typename std::remove_reference<_Tp>::type& __t) noexcept
   10d94:	defffe04 	addi	sp,sp,-8
   10d98:	df000115 	stw	fp,4(sp)
   10d9c:	df000104 	addi	fp,sp,4
   10da0:	e13fff15 	stw	r4,-4(fp)
    { return static_cast<_Tp&&>(__t); }
   10da4:	e0bfff17 	ldw	r2,-4(fp)
   10da8:	e037883a 	mov	sp,fp
   10dac:	df000017 	ldw	fp,0(sp)
   10db0:	dec00104 	addi	sp,sp,4
   10db4:	f800283a 	ret

00010db8 <_ZSt13__invoke_implIvRPFvRN6Serial10rx_messageEEJS2_EET_St14__invoke_otherOT0_DpOT1_>:
    __invoke_impl(__invoke_other, _Fn&& __f, _Args&&... __args)
   10db8:	defffa04 	addi	sp,sp,-24
   10dbc:	dfc00515 	stw	ra,20(sp)
   10dc0:	df000415 	stw	fp,16(sp)
   10dc4:	dc000315 	stw	r16,12(sp)
   10dc8:	df000404 	addi	fp,sp,16
   10dcc:	e13ffec5 	stb	r4,-5(fp)
   10dd0:	e17ffd15 	stw	r5,-12(fp)
   10dd4:	e1bffc15 	stw	r6,-16(fp)
    { return std::forward<_Fn>(__f)(std::forward<_Args>(__args)...); }
   10dd8:	e13ffd17 	ldw	r4,-12(fp)
   10ddc:	0010d940 	call	10d94 <_ZSt7forwardIRPFvRN6Serial10rx_messageEEEOT_RNSt16remove_referenceIS6_E4typeE>
   10de0:	14000017 	ldw	r16,0(r2)
   10de4:	e13ffc17 	ldw	r4,-16(fp)
   10de8:	0010b8c0 	call	10b8c <_ZSt7forwardIRN6Serial10rx_messageEEOT_RNSt16remove_referenceIS3_E4typeE>
   10dec:	1009883a 	mov	r4,r2
   10df0:	803ee83a 	callr	r16
   10df4:	0001883a 	nop
   10df8:	e6ffff04 	addi	sp,fp,-4
   10dfc:	dfc00217 	ldw	ra,8(sp)
   10e00:	df000117 	ldw	fp,4(sp)
   10e04:	dc000017 	ldw	r16,0(sp)
   10e08:	dec00304 	addi	sp,sp,12
   10e0c:	f800283a 	ret

00010e10 <_ZNSt14_Function_base13_Base_managerIPFvRN6Serial10rx_messageEEE8_M_cloneERSt9_Any_dataRKS7_St17integral_constantIbLb1EE>:
	_M_clone(_Any_data& __dest, const _Any_data& __source, true_type)
   10e10:	defffa04 	addi	sp,sp,-24
   10e14:	dfc00515 	stw	ra,20(sp)
   10e18:	df000415 	stw	fp,16(sp)
   10e1c:	dc000315 	stw	r16,12(sp)
   10e20:	df000404 	addi	fp,sp,16
   10e24:	e13ffe15 	stw	r4,-8(fp)
   10e28:	e17ffd15 	stw	r5,-12(fp)
   10e2c:	e1bffcc5 	stb	r6,-13(fp)
	  ::new (__dest._M_access()) _Functor(__source._M_access<_Functor>());
   10e30:	e13ffd17 	ldw	r4,-12(fp)
   10e34:	0010d400 	call	10d40 <_ZNKSt9_Any_data9_M_accessIPFvRN6Serial10rx_messageEEEERKT_v>
   10e38:	14000017 	ldw	r16,0(r2)
   10e3c:	e13ffe17 	ldw	r4,-8(fp)
   10e40:	00105a40 	call	105a4 <_ZNSt9_Any_data9_M_accessEv>
   10e44:	100b883a 	mov	r5,r2
   10e48:	01000104 	movi	r4,4
   10e4c:	001057c0 	call	1057c <_ZnwjPv>
   10e50:	14000015 	stw	r16,0(r2)
	}
   10e54:	0001883a 	nop
   10e58:	e6ffff04 	addi	sp,fp,-4
   10e5c:	dfc00217 	ldw	ra,8(sp)
   10e60:	df000117 	ldw	fp,4(sp)
   10e64:	dc000017 	ldw	r16,0(sp)
   10e68:	dec00304 	addi	sp,sp,12
   10e6c:	f800283a 	ret

00010e70 <_ZNSt14_Function_base13_Base_managerIPFvRN6Serial10rx_messageEEE10_M_destroyERSt9_Any_dataSt17integral_constantIbLb1EE>:
	_M_destroy(_Any_data& __victim, true_type)
   10e70:	defffc04 	addi	sp,sp,-16
   10e74:	dfc00315 	stw	ra,12(sp)
   10e78:	df000215 	stw	fp,8(sp)
   10e7c:	df000204 	addi	fp,sp,8
   10e80:	e13fff15 	stw	r4,-4(fp)
   10e84:	e17ffec5 	stb	r5,-5(fp)
	  __victim._M_access<_Functor>().~_Functor();
   10e88:	e13fff17 	ldw	r4,-4(fp)
   10e8c:	0010ea80 	call	10ea8 <_ZNSt9_Any_data9_M_accessIPFvRN6Serial10rx_messageEEEERT_v>
	}
   10e90:	0001883a 	nop
   10e94:	e037883a 	mov	sp,fp
   10e98:	dfc00117 	ldw	ra,4(sp)
   10e9c:	df000017 	ldw	fp,0(sp)
   10ea0:	dec00204 	addi	sp,sp,8
   10ea4:	f800283a 	ret

00010ea8 <_ZNSt9_Any_data9_M_accessIPFvRN6Serial10rx_messageEEEERT_v>:
      _M_access()
   10ea8:	defffd04 	addi	sp,sp,-12
   10eac:	dfc00215 	stw	ra,8(sp)
   10eb0:	df000115 	stw	fp,4(sp)
   10eb4:	df000104 	addi	fp,sp,4
   10eb8:	e13fff15 	stw	r4,-4(fp)
      { return *static_cast<_Tp*>(_M_access()); }
   10ebc:	e13fff17 	ldw	r4,-4(fp)
   10ec0:	00105a40 	call	105a4 <_ZNSt9_Any_data9_M_accessEv>
   10ec4:	e037883a 	mov	sp,fp
   10ec8:	dfc00117 	ldw	ra,4(sp)
   10ecc:	df000017 	ldw	fp,0(sp)
   10ed0:	dec00204 	addi	sp,sp,8
   10ed4:	f800283a 	ret

00010ed8 <_ZN5Plant7EncoderC1Em>:
#include "encoder.hpp"

Plant::Encoder::Encoder(uint32_t base_address) :
   10ed8:	defffd04 	addi	sp,sp,-12
   10edc:	df000215 	stw	fp,8(sp)
   10ee0:	df000204 	addi	fp,sp,8
   10ee4:	e13fff15 	stw	r4,-4(fp)
   10ee8:	e17ffe15 	stw	r5,-8(fp)
	base_address(base_address)
   10eec:	e0bfff17 	ldw	r2,-4(fp)
   10ef0:	e0fffe17 	ldw	r3,-8(fp)
   10ef4:	10c00015 	stw	r3,0(r2)
{}
   10ef8:	0001883a 	nop
   10efc:	e037883a 	mov	sp,fp
   10f00:	df000017 	ldw	fp,0(sp)
   10f04:	dec00104 	addi	sp,sp,4
   10f08:	f800283a 	ret

00010f0c <_ZN5Plant7Encoder8readDataEv>:

int32_t Plant::Encoder::readData()
{
   10f0c:	defffe04 	addi	sp,sp,-8
   10f10:	df000115 	stw	fp,4(sp)
   10f14:	df000104 	addi	fp,sp,4
   10f18:	e13fff15 	stw	r4,-4(fp)
	return IORD_32DIRECT(base_address, 0);
   10f1c:	e0bfff17 	ldw	r2,-4(fp)
   10f20:	10800017 	ldw	r2,0(r2)
   10f24:	10800037 	ldwio	r2,0(r2)
}
   10f28:	e037883a 	mov	sp,fp
   10f2c:	df000017 	ldw	fp,0(sp)
   10f30:	dec00104 	addi	sp,sp,4
   10f34:	f800283a 	ret

00010f38 <_ZN5Plant5MotorC1Emm>:
#include "motor.hpp"

Plant::Motor::Motor(uint32_t base_address_first_word, uint32_t base_address_second_word) :
   10f38:	defffb04 	addi	sp,sp,-20
   10f3c:	dfc00415 	stw	ra,16(sp)
   10f40:	df000315 	stw	fp,12(sp)
   10f44:	df000304 	addi	fp,sp,12
   10f48:	e13fff15 	stw	r4,-4(fp)
   10f4c:	e17ffe15 	stw	r5,-8(fp)
   10f50:	e1bffd15 	stw	r6,-12(fp)
	base_address_first_word(base_address_first_word),
	base_address_second_word(base_address_second_word)
   10f54:	e0bfff17 	ldw	r2,-4(fp)
   10f58:	e0fffe17 	ldw	r3,-8(fp)
   10f5c:	10c00015 	stw	r3,0(r2)
   10f60:	e0bfff17 	ldw	r2,-4(fp)
   10f64:	e0fffd17 	ldw	r3,-12(fp)
   10f68:	10c00115 	stw	r3,4(r2)
   10f6c:	e0bfff17 	ldw	r2,-4(fp)
   10f70:	10000215 	stw	zero,8(r2)
   10f74:	e0bfff17 	ldw	r2,-4(fp)
   10f78:	10000315 	stw	zero,12(r2)
{
	stop();
   10f7c:	e13fff17 	ldw	r4,-4(fp)
   10f80:	001104c0 	call	1104c <_ZN5Plant5Motor4stopEv>
}
   10f84:	0001883a 	nop
   10f88:	e037883a 	mov	sp,fp
   10f8c:	dfc00117 	ldw	ra,4(sp)
   10f90:	df000017 	ldw	fp,0(sp)
   10f94:	dec00204 	addi	sp,sp,8
   10f98:	f800283a 	ret

00010f9c <_ZN5Plant5Motor12setFrequencyEm>:

void Plant::Motor::setFrequency(uint32_t new_frequency)
{
   10f9c:	defffd04 	addi	sp,sp,-12
   10fa0:	df000215 	stw	fp,8(sp)
   10fa4:	df000204 	addi	fp,sp,8
   10fa8:	e13fff15 	stw	r4,-4(fp)
   10fac:	e17ffe15 	stw	r5,-8(fp)
	if (frequency != new_frequency)
   10fb0:	e0bfff17 	ldw	r2,-4(fp)
   10fb4:	10800217 	ldw	r2,8(r2)
   10fb8:	e0fffe17 	ldw	r3,-8(fp)
   10fbc:	18800826 	beq	r3,r2,10fe0 <_ZN5Plant5Motor12setFrequencyEm+0x44>
	{
		IOWR_32DIRECT(base_address_first_word, 0, new_frequency);
   10fc0:	e0bfff17 	ldw	r2,-4(fp)
   10fc4:	10800017 	ldw	r2,0(r2)
   10fc8:	1007883a 	mov	r3,r2
   10fcc:	e0bffe17 	ldw	r2,-8(fp)
   10fd0:	18800035 	stwio	r2,0(r3)
		frequency = new_frequency;
   10fd4:	e0bfff17 	ldw	r2,-4(fp)
   10fd8:	e0fffe17 	ldw	r3,-8(fp)
   10fdc:	10c00215 	stw	r3,8(r2)
	}
}
   10fe0:	0001883a 	nop
   10fe4:	e037883a 	mov	sp,fp
   10fe8:	df000017 	ldw	fp,0(sp)
   10fec:	dec00104 	addi	sp,sp,4
   10ff0:	f800283a 	ret

00010ff4 <_ZN5Plant5Motor13setSecondWordEm>:

void  Plant::Motor::setSecondWord(uint32_t new_word)
{
   10ff4:	defffd04 	addi	sp,sp,-12
   10ff8:	df000215 	stw	fp,8(sp)
   10ffc:	df000204 	addi	fp,sp,8
   11000:	e13fff15 	stw	r4,-4(fp)
   11004:	e17ffe15 	stw	r5,-8(fp)
	if (second_word != new_word)
   11008:	e0bfff17 	ldw	r2,-4(fp)
   1100c:	10800317 	ldw	r2,12(r2)
   11010:	e0fffe17 	ldw	r3,-8(fp)
   11014:	18800826 	beq	r3,r2,11038 <_ZN5Plant5Motor13setSecondWordEm+0x44>
	{
		IOWR_32DIRECT(base_address_second_word, 0, new_word);
   11018:	e0bfff17 	ldw	r2,-4(fp)
   1101c:	10800117 	ldw	r2,4(r2)
   11020:	1007883a 	mov	r3,r2
   11024:	e0bffe17 	ldw	r2,-8(fp)
   11028:	18800035 	stwio	r2,0(r3)
		second_word = new_word;
   1102c:	e0bfff17 	ldw	r2,-4(fp)
   11030:	e0fffe17 	ldw	r3,-8(fp)
   11034:	10c00315 	stw	r3,12(r2)
	}
}
   11038:	0001883a 	nop
   1103c:	e037883a 	mov	sp,fp
   11040:	df000017 	ldw	fp,0(sp)
   11044:	dec00104 	addi	sp,sp,4
   11048:	f800283a 	ret

0001104c <_ZN5Plant5Motor4stopEv>:

void Plant::Motor::stop()
{
   1104c:	defffe04 	addi	sp,sp,-8
   11050:	df000115 	stw	fp,4(sp)
   11054:	df000104 	addi	fp,sp,4
   11058:	e13fff15 	stw	r4,-4(fp)
	// Set all values to zero.
	IOWR_32DIRECT(base_address_first_word, 0, 0);
   1105c:	e0bfff17 	ldw	r2,-4(fp)
   11060:	10800017 	ldw	r2,0(r2)
   11064:	0007883a 	mov	r3,zero
   11068:	10c00035 	stwio	r3,0(r2)
	IOWR_32DIRECT(base_address_second_word, 0, 0);
   1106c:	e0bfff17 	ldw	r2,-4(fp)
   11070:	10800117 	ldw	r2,4(r2)
   11074:	0007883a 	mov	r3,zero
   11078:	10c00035 	stwio	r3,0(r2)
}
   1107c:	0001883a 	nop
   11080:	e037883a 	mov	sp,fp
   11084:	df000017 	ldw	fp,0(sp)
   11088:	dec00104 	addi	sp,sp,4
   1108c:	f800283a 	ret

00011090 <_ZN6Serial4UART10uart_0_isrEPv>:
std::array<uint8_t, Serial::MESSAGE_SIZE> Serial::UART::rx_data;
alt_u8 Serial::UART::rx_len = 0;
std::function<void(Serial::rx_message &received_message)> Serial::UART::callback;

void Serial::UART::uart_0_isr(void *)
{
   11090:	defffa04 	addi	sp,sp,-24
   11094:	dfc00515 	stw	ra,20(sp)
   11098:	df000415 	stw	fp,16(sp)
   1109c:	dc000315 	stw	r16,12(sp)
   110a0:	df000404 	addi	fp,sp,16
   110a4:	e13ffc15 	stw	r4,-16(fp)
	// Check if the UART buffer is empty or if there are more messages waiting.
	alt_u16 status = IORD_ALTERA_AVALON_UART_STATUS(UART_0_BASE);
   110a8:	008000b4 	movhi	r2,2
   110ac:	108a0237 	ldwio	r2,10248(r2)
   110b0:	e0bffe8d 	sth	r2,-6(fp)

	if(status & ALTERA_AVALON_UART_STATUS_RRDY_MSK)
   110b4:	e0bffe8b 	ldhu	r2,-6(fp)
   110b8:	1080200c 	andi	r2,r2,128
   110bc:	10001326 	beq	r2,zero,1110c <_ZN6Serial4UART10uart_0_isrEPv+0x7c>
	{
		rx_data[rx_len] = IORD_ALTERA_AVALON_UART_RXDATA(UART_0_BASE);
   110c0:	008000b4 	movhi	r2,2
   110c4:	140a0037 	ldwio	r16,10240(r2)
   110c8:	d0a1f543 	ldbu	r2,-30763(gp)
   110cc:	10803fcc 	andi	r2,r2,255
   110d0:	100b883a 	mov	r5,r2
   110d4:	d121f444 	addi	r4,gp,-30767
   110d8:	00114f80 	call	114f8 <_ZNSt5arrayIhLj4EEixEj>
   110dc:	8007883a 	mov	r3,r16
   110e0:	10c00005 	stb	r3,0(r2)
		rx_len ++ ;
   110e4:	d0a1f543 	ldbu	r2,-30763(gp)
   110e8:	10800044 	addi	r2,r2,1
   110ec:	d0a1f545 	stb	r2,-30763(gp)

		if (rx_len >= MESSAGE_SIZE)
   110f0:	d0a1f543 	ldbu	r2,-30763(gp)
   110f4:	10803fcc 	andi	r2,r2,255
   110f8:	10800130 	cmpltui	r2,r2,4
   110fc:	1000031e 	bne	r2,zero,1110c <_ZN6Serial4UART10uart_0_isrEPv+0x7c>
		{
			uart_ready = true;
   11100:	00800044 	movi	r2,1
   11104:	d0a1f405 	stb	r2,-30768(gp)
			rx_len = 0;
   11108:	d021f545 	stb	zero,-30763(gp)
		}
	}

	if (uart_ready)
   1110c:	d0a1f403 	ldbu	r2,-30768(gp)
   11110:	10803fcc 	andi	r2,r2,255
   11114:	10000e26 	beq	r2,zero,11150 <_ZN6Serial4UART10uart_0_isrEPv+0xc0>
	{
		uart_ready = 0;
   11118:	d021f405 	stb	zero,-30768(gp)

		Serial::rx_message received_message;
		std::memcpy(&received_message, &rx_data, MESSAGE_SIZE);
   1111c:	d0a1f443 	ldbu	r2,-30767(gp)
   11120:	e0bffd05 	stb	r2,-12(fp)
   11124:	d0a1f483 	ldbu	r2,-30766(gp)
   11128:	e0bffd45 	stb	r2,-11(fp)
   1112c:	d0a1f4c3 	ldbu	r2,-30765(gp)
   11130:	e0bffd85 	stb	r2,-10(fp)
   11134:	d0a1f503 	ldbu	r2,-30764(gp)
   11138:	e0bffdc5 	stb	r2,-9(fp)

		callback(received_message);
   1113c:	e0bffd04 	addi	r2,fp,-12
   11140:	100b883a 	mov	r5,r2
   11144:	01000074 	movhi	r4,1
   11148:	211fb804 	addi	r4,r4,32480
   1114c:	00115340 	call	11534 <_ZNKSt8functionIFvRN6Serial10rx_messageEEEclES2_>
	}
}
   11150:	0001883a 	nop
   11154:	e6ffff04 	addi	sp,fp,-4
   11158:	dfc00217 	ldw	ra,8(sp)
   1115c:	df000117 	ldw	fp,4(sp)
   11160:	dc000017 	ldw	r16,0(sp)
   11164:	dec00304 	addi	sp,sp,12
   11168:	f800283a 	ret

0001116c <_ZN6Serial4UARTC1ESt8functionIFvRNS_10rx_messageEEE>:

Serial::UART::UART(std::function<void(Serial::rx_message &received_message)> func)
   1116c:	defffa04 	addi	sp,sp,-24
   11170:	dfc00515 	stw	ra,20(sp)
   11174:	df000415 	stw	fp,16(sp)
   11178:	df000404 	addi	fp,sp,16
   1117c:	e13ffe15 	stw	r4,-8(fp)
   11180:	e17ffd15 	stw	r5,-12(fp)
{
	callback = func;
   11184:	e17ffd17 	ldw	r5,-12(fp)
   11188:	01000074 	movhi	r4,1
   1118c:	211fb804 	addi	r4,r4,32480
   11190:	00115ac0 	call	115ac <_ZNSt8functionIFvRN6Serial10rx_messageEEEaSERKS4_>

	// Clear status flag.
	IOWR_ALTERA_AVALON_UART_STATUS(UART_0_BASE, 0x00);
   11194:	0007883a 	mov	r3,zero
   11198:	008000b4 	movhi	r2,2
   1119c:	10ca0235 	stwio	r3,10248(r2)

	// Read the useless value in the empty receive register.
	IORD_ALTERA_AVALON_UART_RXDATA(UART_0_BASE);
   111a0:	008000b4 	movhi	r2,2
   111a4:	108a0037 	ldwio	r2,10240(r2)

	// Setup RX IRQ routine.
	alt_u16 control = ALTERA_AVALON_UART_CONTROL_RRDY_MSK | ALTERA_AVALON_UART_CONTROL_E_MSK;
   111a8:	00806004 	movi	r2,384
   111ac:	e0bfff8d 	sth	r2,-2(fp)
	IOWR_ALTERA_AVALON_UART_CONTROL (UART_0_BASE, control);
   111b0:	e0ffff8b 	ldhu	r3,-2(fp)
   111b4:	008000b4 	movhi	r2,2
   111b8:	10ca0335 	stwio	r3,10252(r2)

	// Install IRQ service routine.
    alt_ic_isr_register(UART_0_IRQ_INTERRUPT_CONTROLLER_ID, UART_0_IRQ, uart_0_isr, NULL, NULL);
   111bc:	d8000015 	stw	zero,0(sp)
   111c0:	000f883a 	mov	r7,zero
   111c4:	01800074 	movhi	r6,1
   111c8:	31842404 	addi	r6,r6,4240
   111cc:	014000c4 	movi	r5,3
   111d0:	0009883a 	mov	r4,zero
   111d4:	0014d8c0 	call	14d8c <alt_ic_isr_register>

    // Enable interrupt.
	IOWR_ALTERA_AVALON_UART_CONTROL(UART_0_BASE, ALTERA_AVALON_UART_CONTROL_RRDY_MSK);
   111d8:	00c02004 	movi	r3,128
   111dc:	008000b4 	movhi	r2,2
   111e0:	10ca0335 	stwio	r3,10252(r2)
}
   111e4:	0001883a 	nop
   111e8:	e037883a 	mov	sp,fp
   111ec:	dfc00117 	ldw	ra,4(sp)
   111f0:	df000017 	ldw	fp,0(sp)
   111f4:	dec00204 	addi	sp,sp,8
   111f8:	f800283a 	ret

000111fc <_ZN6Serial4UART8sendDataENS_10tx_messageE>:


void Serial::UART::sendData(tx_message msg)
{
   111fc:	defff604 	addi	sp,sp,-40
   11200:	dfc00915 	stw	ra,36(sp)
   11204:	df000815 	stw	fp,32(sp)
   11208:	df000804 	addi	fp,sp,32
   1120c:	e13ff915 	stw	r4,-28(fp)
   11210:	e17ff815 	stw	r5,-32(fp)
	// Convert the message to an array.
	std::array<uint8_t, 4> data	= convertToArray(msg);
   11214:	e17ff817 	ldw	r5,-32(fp)
   11218:	e13ff917 	ldw	r4,-28(fp)
   1121c:	00112e80 	call	112e8 <_ZN6Serial4UART14convertToArrayENS_10tx_messageE>
   11220:	e0bffac5 	stb	r2,-21(fp)
   11224:	1006d23a 	srli	r3,r2,8
   11228:	1809883a 	mov	r4,r3
   1122c:	00ffffc4 	movi	r3,-1
   11230:	20c6703a 	and	r3,r4,r3
   11234:	e0fffb05 	stb	r3,-20(fp)
   11238:	1006d43a 	srli	r3,r2,16
   1123c:	1809883a 	mov	r4,r3
   11240:	00ffffc4 	movi	r3,-1
   11244:	20c6703a 	and	r3,r4,r3
   11248:	e0fffb45 	stb	r3,-19(fp)
   1124c:	1004d63a 	srli	r2,r2,24
   11250:	e0bffb85 	stb	r2,-18(fp)

	for (uint8_t data_byte : data)
   11254:	e0bffac4 	addi	r2,fp,-21
   11258:	e0bffd15 	stw	r2,-12(fp)
   1125c:	e13ffd17 	ldw	r4,-12(fp)
   11260:	00116080 	call	11608 <_ZNSt5arrayIhLj4EE5beginEv>
   11264:	e0bfff15 	stw	r2,-4(fp)
   11268:	e13ffd17 	ldw	r4,-12(fp)
   1126c:	00116380 	call	11638 <_ZNSt5arrayIhLj4EE3endEv>
   11270:	e0bffc15 	stw	r2,-16(fp)
   11274:	e0ffff17 	ldw	r3,-4(fp)
   11278:	e0bffc17 	ldw	r2,-16(fp)
   1127c:	18801426 	beq	r3,r2,112d0 <_ZN6Serial4UART8sendDataENS_10tx_messageE+0xd4>
   11280:	e0bfff17 	ldw	r2,-4(fp)
   11284:	10800003 	ldbu	r2,0(r2)
   11288:	e0bffbc5 	stb	r2,-17(fp)
	{
		alt_u8 status = IORD_ALTERA_AVALON_UART_STATUS (UART_0_BASE);
   1128c:	008000b4 	movhi	r2,2
   11290:	108a0237 	ldwio	r2,10248(r2)
   11294:	e0bffec5 	stb	r2,-5(fp)

		// Wait for sending to finish.
		while (! (status & ALTERA_AVALON_UART_STATUS_TRDY_MSK))
   11298:	e0bffec3 	ldbu	r2,-5(fp)
   1129c:	1080100c 	andi	r2,r2,64
   112a0:	1000041e 	bne	r2,zero,112b4 <_ZN6Serial4UART8sendDataENS_10tx_messageE+0xb8>
		{
			status = IORD_ALTERA_AVALON_UART_STATUS (UART_0_BASE);
   112a4:	008000b4 	movhi	r2,2
   112a8:	108a0237 	ldwio	r2,10248(r2)
   112ac:	e0bffec5 	stb	r2,-5(fp)
		while (! (status & ALTERA_AVALON_UART_STATUS_TRDY_MSK))
   112b0:	003ff906 	br	11298 <_ZN6Serial4UART8sendDataENS_10tx_messageE+0x9c>
		}

		IOWR_ALTERA_AVALON_UART_TXDATA(UART_0_BASE, data_byte);
   112b4:	e0fffbc3 	ldbu	r3,-17(fp)
   112b8:	008000b4 	movhi	r2,2
   112bc:	10ca0135 	stwio	r3,10244(r2)
	for (uint8_t data_byte : data)
   112c0:	e0bfff17 	ldw	r2,-4(fp)
   112c4:	10800044 	addi	r2,r2,1
   112c8:	e0bfff15 	stw	r2,-4(fp)
   112cc:	003fe906 	br	11274 <_ZN6Serial4UART8sendDataENS_10tx_messageE+0x78>
	}
}
   112d0:	0001883a 	nop
   112d4:	e037883a 	mov	sp,fp
   112d8:	dfc00117 	ldw	ra,4(sp)
   112dc:	df000017 	ldw	fp,0(sp)
   112e0:	dec00204 	addi	sp,sp,8
   112e4:	f800283a 	ret

000112e8 <_ZN6Serial4UART14convertToArrayENS_10tx_messageE>:

std::array<uint8_t, 4> Serial::UART::convertToArray(tx_message msg)
{
   112e8:	defff904 	addi	sp,sp,-28
   112ec:	dfc00615 	stw	ra,24(sp)
   112f0:	df000515 	stw	fp,20(sp)
   112f4:	dc000415 	stw	r16,16(sp)
   112f8:	df000504 	addi	fp,sp,20
   112fc:	e13ffc15 	stw	r4,-16(fp)
   11300:	e17ffb15 	stw	r5,-20(fp)
    std::array<uint8_t, 4> temp{};
   11304:	e03ffd15 	stw	zero,-12(fp)
    std::copy(
   11308:	e43ffb04 	addi	r16,fp,-20
   1130c:	84000104 	addi	r16,r16,4
            reinterpret_cast<uint8_t *>(&msg),
            reinterpret_cast<uint8_t *>(&msg) + 4,
            &temp[0]
   11310:	e0bffd04 	addi	r2,fp,-12
   11314:	000b883a 	mov	r5,zero
   11318:	1009883a 	mov	r4,r2
   1131c:	00114f80 	call	114f8 <_ZNSt5arrayIhLj4EEixEj>
   11320:	1007883a 	mov	r3,r2
    std::copy(
   11324:	e0bffb04 	addi	r2,fp,-20
   11328:	180d883a 	mov	r6,r3
   1132c:	800b883a 	mov	r5,r16
   11330:	1009883a 	mov	r4,r2
   11334:	001166c0 	call	1166c <_ZSt4copyIPhS0_ET0_T_S2_S1_>
    );
    return temp;
   11338:	e0bffd17 	ldw	r2,-12(fp)
   1133c:	e0bffe15 	stw	r2,-8(fp)
   11340:	0005883a 	mov	r2,zero
   11344:	e0fffe03 	ldbu	r3,-8(fp)
   11348:	18c03fcc 	andi	r3,r3,255
   1134c:	013fc004 	movi	r4,-256
   11350:	1104703a 	and	r2,r2,r4
   11354:	10c4b03a 	or	r2,r2,r3
   11358:	e0fffe43 	ldbu	r3,-7(fp)
   1135c:	18c03fcc 	andi	r3,r3,255
   11360:	1808923a 	slli	r4,r3,8
   11364:	00fffff4 	movhi	r3,65535
   11368:	18c03fc4 	addi	r3,r3,255
   1136c:	10c4703a 	and	r2,r2,r3
   11370:	1104b03a 	or	r2,r2,r4
   11374:	e0fffe83 	ldbu	r3,-6(fp)
   11378:	18c03fcc 	andi	r3,r3,255
   1137c:	1808943a 	slli	r4,r3,16
   11380:	00ffc074 	movhi	r3,65281
   11384:	18ffffc4 	addi	r3,r3,-1
   11388:	10c4703a 	and	r2,r2,r3
   1138c:	1104b03a 	or	r2,r2,r4
   11390:	e0fffec3 	ldbu	r3,-5(fp)
   11394:	1808963a 	slli	r4,r3,24
   11398:	00c04034 	movhi	r3,256
   1139c:	18ffffc4 	addi	r3,r3,-1
   113a0:	10c4703a 	and	r2,r2,r3
   113a4:	1104b03a 	or	r2,r2,r4
}
   113a8:	e6ffff04 	addi	sp,fp,-4
   113ac:	dfc00217 	ldw	ra,8(sp)
   113b0:	df000117 	ldw	fp,4(sp)
   113b4:	dc000017 	ldw	r16,0(sp)
   113b8:	dec00304 	addi	sp,sp,12
   113bc:	f800283a 	ret

000113c0 <_Z41__static_initialization_and_destruction_0ii>:
   113c0:	defffc04 	addi	sp,sp,-16
   113c4:	dfc00315 	stw	ra,12(sp)
   113c8:	df000215 	stw	fp,8(sp)
   113cc:	df000204 	addi	fp,sp,8
   113d0:	e13fff15 	stw	r4,-4(fp)
   113d4:	e17ffe15 	stw	r5,-8(fp)
   113d8:	e0bfff17 	ldw	r2,-4(fp)
   113dc:	10800058 	cmpnei	r2,r2,1
   113e0:	1000061e 	bne	r2,zero,113fc <_Z41__static_initialization_and_destruction_0ii+0x3c>
   113e4:	e0fffe17 	ldw	r3,-8(fp)
   113e8:	00bfffd4 	movui	r2,65535
   113ec:	1880031e 	bne	r3,r2,113fc <_Z41__static_initialization_and_destruction_0ii+0x3c>
std::function<void(Serial::rx_message &received_message)> Serial::UART::callback;
   113f0:	01000074 	movhi	r4,1
   113f4:	211fb804 	addi	r4,r4,32480
   113f8:	00114c00 	call	114c0 <_ZNSt8functionIFvRN6Serial10rx_messageEEEC1Ev>
   113fc:	e0bfff17 	ldw	r2,-4(fp)
   11400:	1000061e 	bne	r2,zero,1141c <_Z41__static_initialization_and_destruction_0ii+0x5c>
   11404:	e0fffe17 	ldw	r3,-8(fp)
   11408:	00bfffd4 	movui	r2,65535
   1140c:	1880031e 	bne	r3,r2,1141c <_Z41__static_initialization_and_destruction_0ii+0x5c>
   11410:	01000074 	movhi	r4,1
   11414:	211fb804 	addi	r4,r4,32480
   11418:	00107d80 	call	107d8 <_ZNSt8functionIFvRN6Serial10rx_messageEEED1Ev>
}
   1141c:	0001883a 	nop
   11420:	e037883a 	mov	sp,fp
   11424:	dfc00117 	ldw	ra,4(sp)
   11428:	df000017 	ldw	fp,0(sp)
   1142c:	dec00204 	addi	sp,sp,8
   11430:	f800283a 	ret

00011434 <_GLOBAL__sub_I__ZN6Serial4UART10uart_readyE>:
   11434:	defffe04 	addi	sp,sp,-8
   11438:	dfc00115 	stw	ra,4(sp)
   1143c:	df000015 	stw	fp,0(sp)
   11440:	d839883a 	mov	fp,sp
   11444:	017fffd4 	movui	r5,65535
   11448:	01000044 	movi	r4,1
   1144c:	00113c00 	call	113c0 <_Z41__static_initialization_and_destruction_0ii>
   11450:	e037883a 	mov	sp,fp
   11454:	dfc00117 	ldw	ra,4(sp)
   11458:	df000017 	ldw	fp,0(sp)
   1145c:	dec00204 	addi	sp,sp,8
   11460:	f800283a 	ret

00011464 <_GLOBAL__sub_D__ZN6Serial4UART10uart_readyE>:
   11464:	defffe04 	addi	sp,sp,-8
   11468:	dfc00115 	stw	ra,4(sp)
   1146c:	df000015 	stw	fp,0(sp)
   11470:	d839883a 	mov	fp,sp
   11474:	017fffd4 	movui	r5,65535
   11478:	0009883a 	mov	r4,zero
   1147c:	00113c00 	call	113c0 <_Z41__static_initialization_and_destruction_0ii>
   11480:	e037883a 	mov	sp,fp
   11484:	dfc00117 	ldw	ra,4(sp)
   11488:	df000017 	ldw	fp,0(sp)
   1148c:	dec00204 	addi	sp,sp,8
   11490:	f800283a 	ret

00011494 <_ZNKSt14_Function_base8_M_emptyEv>:
    bool _M_empty() const { return !_M_manager; }
   11494:	defffe04 	addi	sp,sp,-8
   11498:	df000115 	stw	fp,4(sp)
   1149c:	df000104 	addi	fp,sp,4
   114a0:	e13fff15 	stw	r4,-4(fp)
   114a4:	e0bfff17 	ldw	r2,-4(fp)
   114a8:	10800217 	ldw	r2,8(r2)
   114ac:	1005003a 	cmpeq	r2,r2,zero
   114b0:	e037883a 	mov	sp,fp
   114b4:	df000017 	ldw	fp,0(sp)
   114b8:	dec00104 	addi	sp,sp,4
   114bc:	f800283a 	ret

000114c0 <_ZNSt8functionIFvRN6Serial10rx_messageEEEC1Ev>:
      function() noexcept
   114c0:	defffd04 	addi	sp,sp,-12
   114c4:	dfc00215 	stw	ra,8(sp)
   114c8:	df000115 	stw	fp,4(sp)
   114cc:	df000104 	addi	fp,sp,4
   114d0:	e13fff15 	stw	r4,-4(fp)
      : _Function_base() { }
   114d4:	e0bfff17 	ldw	r2,-4(fp)
   114d8:	1009883a 	mov	r4,r2
   114dc:	00105ec0 	call	105ec <_ZNSt14_Function_baseC1Ev>
   114e0:	0001883a 	nop
   114e4:	e037883a 	mov	sp,fp
   114e8:	dfc00117 	ldw	ra,4(sp)
   114ec:	df000017 	ldw	fp,0(sp)
   114f0:	dec00204 	addi	sp,sp,8
   114f4:	f800283a 	ret

000114f8 <_ZNSt5arrayIhLj4EEixEj>:
      _GLIBCXX_NODISCARD constexpr bool
      empty() const noexcept { return size() == 0; }

      // Element access.
      _GLIBCXX17_CONSTEXPR reference
      operator[](size_type __n) noexcept
   114f8:	defffc04 	addi	sp,sp,-16
   114fc:	dfc00315 	stw	ra,12(sp)
   11500:	df000215 	stw	fp,8(sp)
   11504:	df000204 	addi	fp,sp,8
   11508:	e13fff15 	stw	r4,-4(fp)
   1150c:	e17ffe15 	stw	r5,-8(fp)
      { return _AT_Type::_S_ref(_M_elems, __n); }
   11510:	e0bfff17 	ldw	r2,-4(fp)
   11514:	e17ffe17 	ldw	r5,-8(fp)
   11518:	1009883a 	mov	r4,r2
   1151c:	00116c80 	call	116c8 <_ZNSt14__array_traitsIhLj4EE6_S_refERA4_Khj>
   11520:	e037883a 	mov	sp,fp
   11524:	dfc00117 	ldw	ra,4(sp)
   11528:	df000017 	ldw	fp,0(sp)
   1152c:	dec00204 	addi	sp,sp,8
   11530:	f800283a 	ret

00011534 <_ZNKSt8functionIFvRN6Serial10rx_messageEEEclES2_>:

  template<typename _Res, typename... _ArgTypes>
    _Res
    function<_Res(_ArgTypes...)>::
   11534:	defffa04 	addi	sp,sp,-24
   11538:	dfc00515 	stw	ra,20(sp)
   1153c:	df000415 	stw	fp,16(sp)
   11540:	dc400315 	stw	r17,12(sp)
   11544:	dc000215 	stw	r16,8(sp)
   11548:	df000404 	addi	fp,sp,16
   1154c:	e13ffd15 	stw	r4,-12(fp)
   11550:	e17ffc15 	stw	r5,-16(fp)
    operator()(_ArgTypes... __args) const
    {
      if (_M_empty())
   11554:	e0bffd17 	ldw	r2,-12(fp)
   11558:	1009883a 	mov	r4,r2
   1155c:	00114940 	call	11494 <_ZNKSt14_Function_base8_M_emptyEv>
   11560:	10803fcc 	andi	r2,r2,255
   11564:	10000126 	beq	r2,zero,1156c <_ZNKSt8functionIFvRN6Serial10rx_messageEEEclES2_+0x38>
	__throw_bad_function_call();
   11568:	00131f80 	call	131f8 <_ZSt25__throw_bad_function_callv>
      return _M_invoker(_M_functor, std::forward<_ArgTypes>(__args)...);
   1156c:	e0bffd17 	ldw	r2,-12(fp)
   11570:	14000317 	ldw	r16,12(r2)
   11574:	e47ffd17 	ldw	r17,-12(fp)
   11578:	e13ffc17 	ldw	r4,-16(fp)
   1157c:	0010b8c0 	call	10b8c <_ZSt7forwardIRN6Serial10rx_messageEEOT_RNSt16remove_referenceIS3_E4typeE>
   11580:	100b883a 	mov	r5,r2
   11584:	8809883a 	mov	r4,r17
   11588:	803ee83a 	callr	r16
   1158c:	0001883a 	nop
    }
   11590:	e6fffe04 	addi	sp,fp,-8
   11594:	dfc00317 	ldw	ra,12(sp)
   11598:	df000217 	ldw	fp,8(sp)
   1159c:	dc400117 	ldw	r17,4(sp)
   115a0:	dc000017 	ldw	r16,0(sp)
   115a4:	dec00404 	addi	sp,sp,16
   115a8:	f800283a 	ret

000115ac <_ZNSt8functionIFvRN6Serial10rx_messageEEEaSERKS4_>:
      operator=(const function& __x)
   115ac:	defff804 	addi	sp,sp,-32
   115b0:	dfc00715 	stw	ra,28(sp)
   115b4:	df000615 	stw	fp,24(sp)
   115b8:	df000604 	addi	fp,sp,24
   115bc:	e13ffb15 	stw	r4,-20(fp)
   115c0:	e17ffa15 	stw	r5,-24(fp)
	function(__x).swap(*this);
   115c4:	e0bffc04 	addi	r2,fp,-16
   115c8:	e17ffa17 	ldw	r5,-24(fp)
   115cc:	1009883a 	mov	r4,r2
   115d0:	00116f80 	call	116f8 <_ZNSt8functionIFvRN6Serial10rx_messageEEEC1ERKS4_>
   115d4:	e0bffc04 	addi	r2,fp,-16
   115d8:	e17ffb17 	ldw	r5,-20(fp)
   115dc:	1009883a 	mov	r4,r2
   115e0:	00118380 	call	11838 <_ZNSt8functionIFvRN6Serial10rx_messageEEE4swapERS4_>
   115e4:	e0bffc04 	addi	r2,fp,-16
   115e8:	1009883a 	mov	r4,r2
   115ec:	00107d80 	call	107d8 <_ZNSt8functionIFvRN6Serial10rx_messageEEED1Ev>
	return *this;
   115f0:	e0bffb17 	ldw	r2,-20(fp)
      }
   115f4:	e037883a 	mov	sp,fp
   115f8:	dfc00117 	ldw	ra,4(sp)
   115fc:	df000017 	ldw	fp,0(sp)
   11600:	dec00204 	addi	sp,sp,8
   11604:	f800283a 	ret

00011608 <_ZNSt5arrayIhLj4EE5beginEv>:
      begin() noexcept
   11608:	defffd04 	addi	sp,sp,-12
   1160c:	dfc00215 	stw	ra,8(sp)
   11610:	df000115 	stw	fp,4(sp)
   11614:	df000104 	addi	fp,sp,4
   11618:	e13fff15 	stw	r4,-4(fp)
      { return iterator(data()); }
   1161c:	e13fff17 	ldw	r4,-4(fp)
   11620:	00118b40 	call	118b4 <_ZNSt5arrayIhLj4EE4dataEv>
   11624:	e037883a 	mov	sp,fp
   11628:	dfc00117 	ldw	ra,4(sp)
   1162c:	df000017 	ldw	fp,0(sp)
   11630:	dec00204 	addi	sp,sp,8
   11634:	f800283a 	ret

00011638 <_ZNSt5arrayIhLj4EE3endEv>:
      end() noexcept
   11638:	defffd04 	addi	sp,sp,-12
   1163c:	dfc00215 	stw	ra,8(sp)
   11640:	df000115 	stw	fp,4(sp)
   11644:	df000104 	addi	fp,sp,4
   11648:	e13fff15 	stw	r4,-4(fp)
      { return iterator(data() + _Nm); }
   1164c:	e13fff17 	ldw	r4,-4(fp)
   11650:	00118b40 	call	118b4 <_ZNSt5arrayIhLj4EE4dataEv>
   11654:	10800104 	addi	r2,r2,4
   11658:	e037883a 	mov	sp,fp
   1165c:	dfc00117 	ldw	ra,4(sp)
   11660:	df000017 	ldw	fp,0(sp)
   11664:	dec00204 	addi	sp,sp,8
   11668:	f800283a 	ret

0001166c <_ZSt4copyIPhS0_ET0_T_S2_S1_>:
   *  within [first,last).
  */
  template<typename _II, typename _OI>
    _GLIBCXX20_CONSTEXPR
    inline _OI
    copy(_II __first, _II __last, _OI __result)
   1166c:	defffa04 	addi	sp,sp,-24
   11670:	dfc00515 	stw	ra,20(sp)
   11674:	df000415 	stw	fp,16(sp)
   11678:	dc000315 	stw	r16,12(sp)
   1167c:	df000404 	addi	fp,sp,16
   11680:	e13ffe15 	stw	r4,-8(fp)
   11684:	e17ffd15 	stw	r5,-12(fp)
   11688:	e1bffc15 	stw	r6,-16(fp)
      __glibcxx_function_requires(_OutputIteratorConcept<_OI,
	    typename iterator_traits<_II>::value_type>)
      __glibcxx_requires_can_increment_range(__first, __last, __result);

      return std::__copy_move_a<__is_move_iterator<_II>::__value>
	     (std::__miter_base(__first), std::__miter_base(__last), __result);
   1168c:	e13ffe17 	ldw	r4,-8(fp)
   11690:	00118e80 	call	118e8 <_ZSt12__miter_baseIPhET_S1_>
   11694:	1021883a 	mov	r16,r2
   11698:	e13ffd17 	ldw	r4,-12(fp)
   1169c:	00118e80 	call	118e8 <_ZSt12__miter_baseIPhET_S1_>
   116a0:	e1bffc17 	ldw	r6,-16(fp)
   116a4:	100b883a 	mov	r5,r2
   116a8:	8009883a 	mov	r4,r16
   116ac:	001190c0 	call	1190c <_ZSt13__copy_move_aILb0EPhS0_ET1_T0_S2_S1_>
    }
   116b0:	e6ffff04 	addi	sp,fp,-4
   116b4:	dfc00217 	ldw	ra,8(sp)
   116b8:	df000117 	ldw	fp,4(sp)
   116bc:	dc000017 	ldw	r16,0(sp)
   116c0:	dec00304 	addi	sp,sp,12
   116c4:	f800283a 	ret

000116c8 <_ZNSt14__array_traitsIhLj4EE6_S_refERA4_Khj>:
      _S_ref(const _Type& __t, std::size_t __n) noexcept
   116c8:	defffd04 	addi	sp,sp,-12
   116cc:	df000215 	stw	fp,8(sp)
   116d0:	df000204 	addi	fp,sp,8
   116d4:	e13fff15 	stw	r4,-4(fp)
   116d8:	e17ffe15 	stw	r5,-8(fp)
      { return const_cast<_Tp&>(__t[__n]); }
   116dc:	e0ffff17 	ldw	r3,-4(fp)
   116e0:	e0bffe17 	ldw	r2,-8(fp)
   116e4:	1885883a 	add	r2,r3,r2
   116e8:	e037883a 	mov	sp,fp
   116ec:	df000017 	ldw	fp,0(sp)
   116f0:	dec00104 	addi	sp,sp,4
   116f4:	f800283a 	ret

000116f8 <_ZNSt8functionIFvRN6Serial10rx_messageEEEC1ERKS4_>:
    function<_Res(_ArgTypes...)>::
   116f8:	deffe604 	addi	sp,sp,-104
   116fc:	dfc01915 	stw	ra,100(sp)
   11700:	df001815 	stw	fp,96(sp)
   11704:	ddc01715 	stw	r23,92(sp)
   11708:	dd801615 	stw	r22,88(sp)
   1170c:	dd401515 	stw	r21,84(sp)
   11710:	dd001415 	stw	r20,80(sp)
   11714:	dcc01315 	stw	r19,76(sp)
   11718:	dc801215 	stw	r18,72(sp)
   1171c:	dc401115 	stw	r17,68(sp)
   11720:	dc001015 	stw	r16,64(sp)
   11724:	df001804 	addi	fp,sp,96
   11728:	e13ff715 	stw	r4,-36(fp)
   1172c:	e17ff615 	stw	r5,-40(fp)
   11730:	00800074 	movhi	r2,1
   11734:	10888604 	addi	r2,r2,8728
   11738:	e0bfef15 	stw	r2,-68(fp)
   1173c:	00800074 	movhi	r2,1
   11740:	109abe04 	addi	r2,r2,27384
   11744:	e0bff015 	stw	r2,-64(fp)
   11748:	e0bff104 	addi	r2,fp,-60
   1174c:	17000015 	stw	fp,0(r2)
   11750:	00c00074 	movhi	r3,1
   11754:	18c5f304 	addi	r3,r3,6092
   11758:	10c00115 	stw	r3,4(r2)
   1175c:	16c00215 	stw	sp,8(r2)
   11760:	e0bfe904 	addi	r2,fp,-92
   11764:	1009883a 	mov	r4,r2
   11768:	00142280 	call	14228 <_Unwind_SjLj_Register>
    : _Function_base()
   1176c:	e0bff717 	ldw	r2,-36(fp)
   11770:	1009883a 	mov	r4,r2
   11774:	00105ec0 	call	105ec <_ZNSt14_Function_baseC1Ev>
      if (static_cast<bool>(__x))
   11778:	e13ff617 	ldw	r4,-40(fp)
   1177c:	00119940 	call	11994 <_ZNKSt8functionIFvRN6Serial10rx_messageEEEcvbEv>
   11780:	10803fcc 	andi	r2,r2,255
   11784:	10001b26 	beq	r2,zero,117f4 <_ZNSt8functionIFvRN6Serial10rx_messageEEEC1ERKS4_+0xfc>
	  __x._M_manager(_M_functor, __x._M_functor, __clone_functor);
   11788:	e0bff617 	ldw	r2,-40(fp)
   1178c:	10800217 	ldw	r2,8(r2)
   11790:	e13ff717 	ldw	r4,-36(fp)
   11794:	e17ff617 	ldw	r5,-40(fp)
   11798:	00c00044 	movi	r3,1
   1179c:	e0ffea15 	stw	r3,-88(fp)
   117a0:	01800084 	movi	r6,2
   117a4:	103ee83a 	callr	r2
	  _M_invoker = __x._M_invoker;
   117a8:	e0bff617 	ldw	r2,-40(fp)
   117ac:	10c00317 	ldw	r3,12(r2)
   117b0:	e0bff717 	ldw	r2,-36(fp)
   117b4:	10c00315 	stw	r3,12(r2)
	  _M_manager = __x._M_manager;
   117b8:	e0bff617 	ldw	r2,-40(fp)
   117bc:	10c00217 	ldw	r3,8(r2)
   117c0:	e0bff717 	ldw	r2,-36(fp)
   117c4:	10c00215 	stw	r3,8(r2)
    }
   117c8:	00000a06 	br	117f4 <_ZNSt8functionIFvRN6Serial10rx_messageEEEC1ERKS4_+0xfc>
    : _Function_base()
   117cc:	e0bfeb17 	ldw	r2,-84(fp)
   117d0:	e0bfe815 	stw	r2,-96(fp)
   117d4:	e0bff717 	ldw	r2,-36(fp)
   117d8:	1009883a 	mov	r4,r2
   117dc:	00106180 	call	10618 <_ZNSt14_Function_baseD1Ev>
   117e0:	e0ffe817 	ldw	r3,-96(fp)
   117e4:	00bfffc4 	movi	r2,-1
   117e8:	e0bfea15 	stw	r2,-88(fp)
   117ec:	1809883a 	mov	r4,r3
   117f0:	00144100 	call	14410 <_Unwind_SjLj_Resume>
    }
   117f4:	0001883a 	nop
   117f8:	e0bfe904 	addi	r2,fp,-92
   117fc:	1009883a 	mov	r4,r2
   11800:	00142400 	call	14240 <_Unwind_SjLj_Unregister>
   11804:	e6fff804 	addi	sp,fp,-32
   11808:	dfc00917 	ldw	ra,36(sp)
   1180c:	df000817 	ldw	fp,32(sp)
   11810:	ddc00717 	ldw	r23,28(sp)
   11814:	dd800617 	ldw	r22,24(sp)
   11818:	dd400517 	ldw	r21,20(sp)
   1181c:	dd000417 	ldw	r20,16(sp)
   11820:	dcc00317 	ldw	r19,12(sp)
   11824:	dc800217 	ldw	r18,8(sp)
   11828:	dc400117 	ldw	r17,4(sp)
   1182c:	dc000017 	ldw	r16,0(sp)
   11830:	dec00a04 	addi	sp,sp,40
   11834:	f800283a 	ret

00011838 <_ZNSt8functionIFvRN6Serial10rx_messageEEE4swapERS4_>:
      void swap(function& __x) noexcept
   11838:	defffc04 	addi	sp,sp,-16
   1183c:	dfc00315 	stw	ra,12(sp)
   11840:	df000215 	stw	fp,8(sp)
   11844:	df000204 	addi	fp,sp,8
   11848:	e13fff15 	stw	r4,-4(fp)
   1184c:	e17ffe15 	stw	r5,-8(fp)
	std::swap(_M_functor, __x._M_functor);
   11850:	e0bfff17 	ldw	r2,-4(fp)
   11854:	e0fffe17 	ldw	r3,-8(fp)
   11858:	180b883a 	mov	r5,r3
   1185c:	1009883a 	mov	r4,r2
   11860:	00119f00 	call	119f0 <_ZSt4swapISt9_Any_dataENSt9enable_ifIXsrSt6__and_IJSt6__not_ISt15__is_tuple_likeIT_EESt21is_move_constructibleIS5_ESt18is_move_assignableIS5_EEE5valueEvE4typeERS5_SF_>
	std::swap(_M_manager, __x._M_manager);
   11864:	e0bfff17 	ldw	r2,-4(fp)
   11868:	10c00204 	addi	r3,r2,8
   1186c:	e0bffe17 	ldw	r2,-8(fp)
   11870:	10800204 	addi	r2,r2,8
   11874:	100b883a 	mov	r5,r2
   11878:	1809883a 	mov	r4,r3
   1187c:	0011aa00 	call	11aa0 <_ZSt4swapIPFbRSt9_Any_dataRKS0_St18_Manager_operationEENSt9enable_ifIXsrSt6__and_IJSt6__not_ISt15__is_tuple_likeIT_EESt21is_move_constructibleISB_ESt18is_move_assignableISB_EEE5valueEvE4typeERSB_SL_>
	std::swap(_M_invoker, __x._M_invoker);
   11880:	e0bfff17 	ldw	r2,-4(fp)
   11884:	10c00304 	addi	r3,r2,12
   11888:	e0bffe17 	ldw	r2,-8(fp)
   1188c:	10800304 	addi	r2,r2,12
   11890:	100b883a 	mov	r5,r2
   11894:	1809883a 	mov	r4,r3
   11898:	0011b300 	call	11b30 <_ZSt4swapIPFvRKSt9_Any_dataRN6Serial10rx_messageEEENSt9enable_ifIXsrSt6__and_IJSt6__not_ISt15__is_tuple_likeIT_EESt21is_move_constructibleISC_ESt18is_move_assignableISC_EEE5valueEvE4typeERSC_SM_>
      }
   1189c:	0001883a 	nop
   118a0:	e037883a 	mov	sp,fp
   118a4:	dfc00117 	ldw	ra,4(sp)
   118a8:	df000017 	ldw	fp,0(sp)
   118ac:	dec00204 	addi	sp,sp,8
   118b0:	f800283a 	ret

000118b4 <_ZNSt5arrayIhLj4EE4dataEv>:
	return _Nm ? _AT_Type::_S_ref(_M_elems, _Nm - 1)
 	           : _AT_Type::_S_ref(_M_elems, 0);
      }

      _GLIBCXX17_CONSTEXPR pointer
      data() noexcept
   118b4:	defffd04 	addi	sp,sp,-12
   118b8:	dfc00215 	stw	ra,8(sp)
   118bc:	df000115 	stw	fp,4(sp)
   118c0:	df000104 	addi	fp,sp,4
   118c4:	e13fff15 	stw	r4,-4(fp)
      { return _AT_Type::_S_ptr(_M_elems); }
   118c8:	e0bfff17 	ldw	r2,-4(fp)
   118cc:	1009883a 	mov	r4,r2
   118d0:	0011b9c0 	call	11b9c <_ZNSt14__array_traitsIhLj4EE6_S_ptrERA4_Kh>
   118d4:	e037883a 	mov	sp,fp
   118d8:	dfc00117 	ldw	ra,4(sp)
   118dc:	df000017 	ldw	fp,0(sp)
   118e0:	dec00204 	addi	sp,sp,8
   118e4:	f800283a 	ret

000118e8 <_ZSt12__miter_baseIPhET_S1_>:
  // Fallback implementation of the function in bits/stl_iterator.h used to
  // remove the move_iterator wrapper.
  template<typename _Iterator>
    _GLIBCXX20_CONSTEXPR
    inline _Iterator
    __miter_base(_Iterator __it)
   118e8:	defffe04 	addi	sp,sp,-8
   118ec:	df000115 	stw	fp,4(sp)
   118f0:	df000104 	addi	fp,sp,4
   118f4:	e13fff15 	stw	r4,-4(fp)
    { return __it; }
   118f8:	e0bfff17 	ldw	r2,-4(fp)
   118fc:	e037883a 	mov	sp,fp
   11900:	df000017 	ldw	fp,0(sp)
   11904:	dec00104 	addi	sp,sp,4
   11908:	f800283a 	ret

0001190c <_ZSt13__copy_move_aILb0EPhS0_ET1_T0_S2_S1_>:
    __copy_move_a(_II __first, _II __last, _OI __result)
   1190c:	defff904 	addi	sp,sp,-28
   11910:	dfc00615 	stw	ra,24(sp)
   11914:	df000515 	stw	fp,20(sp)
   11918:	dc400415 	stw	r17,16(sp)
   1191c:	dc000315 	stw	r16,12(sp)
   11920:	df000504 	addi	fp,sp,20
   11924:	e13ffd15 	stw	r4,-12(fp)
   11928:	e17ffc15 	stw	r5,-16(fp)
   1192c:	e1bffb15 	stw	r6,-20(fp)
      return std::__niter_wrap(__result,
   11930:	e13ffd17 	ldw	r4,-12(fp)
   11934:	0011bc00 	call	11bc0 <_ZSt12__niter_baseIPhET_S1_>
   11938:	1021883a 	mov	r16,r2
   1193c:	e13ffc17 	ldw	r4,-16(fp)
   11940:	0011bc00 	call	11bc0 <_ZSt12__niter_baseIPhET_S1_>
   11944:	1023883a 	mov	r17,r2
   11948:	e0bffb17 	ldw	r2,-20(fp)
   1194c:	1009883a 	mov	r4,r2
   11950:	0011bc00 	call	11bc0 <_ZSt12__niter_baseIPhET_S1_>
   11954:	100d883a 	mov	r6,r2
   11958:	880b883a 	mov	r5,r17
   1195c:	8009883a 	mov	r4,r16
   11960:	0011be40 	call	11be4 <_ZSt14__copy_move_a1ILb0EPhS0_ET1_T0_S2_S1_>
   11964:	1007883a 	mov	r3,r2
   11968:	e0bffb04 	addi	r2,fp,-20
   1196c:	180b883a 	mov	r5,r3
   11970:	1009883a 	mov	r4,r2
   11974:	0011c240 	call	11c24 <_ZSt12__niter_wrapIPhET_RKS1_S1_>
    }
   11978:	e6fffe04 	addi	sp,fp,-8
   1197c:	dfc00317 	ldw	ra,12(sp)
   11980:	df000217 	ldw	fp,8(sp)
   11984:	dc400117 	ldw	r17,4(sp)
   11988:	dc000017 	ldw	r16,0(sp)
   1198c:	dec00404 	addi	sp,sp,16
   11990:	f800283a 	ret

00011994 <_ZNKSt8functionIFvRN6Serial10rx_messageEEEcvbEv>:
      explicit operator bool() const noexcept
   11994:	defffd04 	addi	sp,sp,-12
   11998:	dfc00215 	stw	ra,8(sp)
   1199c:	df000115 	stw	fp,4(sp)
   119a0:	df000104 	addi	fp,sp,4
   119a4:	e13fff15 	stw	r4,-4(fp)
      { return !_M_empty(); }
   119a8:	e0bfff17 	ldw	r2,-4(fp)
   119ac:	1009883a 	mov	r4,r2
   119b0:	00114940 	call	11494 <_ZNKSt14_Function_base8_M_emptyEv>
   119b4:	1080005c 	xori	r2,r2,1
   119b8:	e037883a 	mov	sp,fp
   119bc:	dfc00117 	ldw	ra,4(sp)
   119c0:	df000017 	ldw	fp,0(sp)
   119c4:	dec00204 	addi	sp,sp,8
   119c8:	f800283a 	ret

000119cc <_ZSt4moveIRSt9_Any_dataEONSt16remove_referenceIT_E4typeEOS3_>:
    move(_Tp&& __t) noexcept
   119cc:	defffe04 	addi	sp,sp,-8
   119d0:	df000115 	stw	fp,4(sp)
   119d4:	df000104 	addi	fp,sp,4
   119d8:	e13fff15 	stw	r4,-4(fp)
    { return static_cast<typename std::remove_reference<_Tp>::type&&>(__t); }
   119dc:	e0bfff17 	ldw	r2,-4(fp)
   119e0:	e037883a 	mov	sp,fp
   119e4:	df000017 	ldw	fp,0(sp)
   119e8:	dec00104 	addi	sp,sp,4
   119ec:	f800283a 	ret

000119f0 <_ZSt4swapISt9_Any_dataENSt9enable_ifIXsrSt6__and_IJSt6__not_ISt15__is_tuple_likeIT_EESt21is_move_constructibleIS5_ESt18is_move_assignableIS5_EEE5valueEvE4typeERS5_SF_>:
			      is_move_constructible<_Tp>,
			      is_move_assignable<_Tp>>::value>::type
#else
    void
#endif
    swap(_Tp& __a, _Tp& __b)
   119f0:	defffa04 	addi	sp,sp,-24
   119f4:	dfc00515 	stw	ra,20(sp)
   119f8:	df000415 	stw	fp,16(sp)
   119fc:	df000404 	addi	fp,sp,16
   11a00:	e13ffd15 	stw	r4,-12(fp)
   11a04:	e17ffc15 	stw	r5,-16(fp)
    {
#if __cplusplus < 201103L
      // concept requirements
      __glibcxx_function_requires(_SGIAssignableConcept<_Tp>)
#endif
      _Tp __tmp = _GLIBCXX_MOVE(__a);
   11a08:	e13ffd17 	ldw	r4,-12(fp)
   11a0c:	00119cc0 	call	119cc <_ZSt4moveIRSt9_Any_dataEONSt16remove_referenceIT_E4typeEOS3_>
   11a10:	10c00017 	ldw	r3,0(r2)
   11a14:	e0fffe15 	stw	r3,-8(fp)
   11a18:	10800117 	ldw	r2,4(r2)
   11a1c:	e0bfff15 	stw	r2,-4(fp)
      __a = _GLIBCXX_MOVE(__b);
   11a20:	e13ffc17 	ldw	r4,-16(fp)
   11a24:	00119cc0 	call	119cc <_ZSt4moveIRSt9_Any_dataEONSt16remove_referenceIT_E4typeEOS3_>
   11a28:	1007883a 	mov	r3,r2
   11a2c:	e0bffd17 	ldw	r2,-12(fp)
   11a30:	19000017 	ldw	r4,0(r3)
   11a34:	11000015 	stw	r4,0(r2)
   11a38:	18c00117 	ldw	r3,4(r3)
   11a3c:	10c00115 	stw	r3,4(r2)
      __b = _GLIBCXX_MOVE(__tmp);
   11a40:	e0bffe04 	addi	r2,fp,-8
   11a44:	1009883a 	mov	r4,r2
   11a48:	00119cc0 	call	119cc <_ZSt4moveIRSt9_Any_dataEONSt16remove_referenceIT_E4typeEOS3_>
   11a4c:	1007883a 	mov	r3,r2
   11a50:	e0bffc17 	ldw	r2,-16(fp)
   11a54:	19000017 	ldw	r4,0(r3)
   11a58:	11000015 	stw	r4,0(r2)
   11a5c:	18c00117 	ldw	r3,4(r3)
   11a60:	10c00115 	stw	r3,4(r2)
    }
   11a64:	0001883a 	nop
   11a68:	e037883a 	mov	sp,fp
   11a6c:	dfc00117 	ldw	ra,4(sp)
   11a70:	df000017 	ldw	fp,0(sp)
   11a74:	dec00204 	addi	sp,sp,8
   11a78:	f800283a 	ret

00011a7c <_ZSt4moveIRPFbRSt9_Any_dataRKS0_St18_Manager_operationEEONSt16remove_referenceIT_E4typeEOS9_>:
    move(_Tp&& __t) noexcept
   11a7c:	defffe04 	addi	sp,sp,-8
   11a80:	df000115 	stw	fp,4(sp)
   11a84:	df000104 	addi	fp,sp,4
   11a88:	e13fff15 	stw	r4,-4(fp)
    { return static_cast<typename std::remove_reference<_Tp>::type&&>(__t); }
   11a8c:	e0bfff17 	ldw	r2,-4(fp)
   11a90:	e037883a 	mov	sp,fp
   11a94:	df000017 	ldw	fp,0(sp)
   11a98:	dec00104 	addi	sp,sp,4
   11a9c:	f800283a 	ret

00011aa0 <_ZSt4swapIPFbRSt9_Any_dataRKS0_St18_Manager_operationEENSt9enable_ifIXsrSt6__and_IJSt6__not_ISt15__is_tuple_likeIT_EESt21is_move_constructibleISB_ESt18is_move_assignableISB_EEE5valueEvE4typeERSB_SL_>:
    swap(_Tp& __a, _Tp& __b)
   11aa0:	defffb04 	addi	sp,sp,-20
   11aa4:	dfc00415 	stw	ra,16(sp)
   11aa8:	df000315 	stw	fp,12(sp)
   11aac:	df000304 	addi	fp,sp,12
   11ab0:	e13ffe15 	stw	r4,-8(fp)
   11ab4:	e17ffd15 	stw	r5,-12(fp)
      _Tp __tmp = _GLIBCXX_MOVE(__a);
   11ab8:	e13ffe17 	ldw	r4,-8(fp)
   11abc:	0011a7c0 	call	11a7c <_ZSt4moveIRPFbRSt9_Any_dataRKS0_St18_Manager_operationEEONSt16remove_referenceIT_E4typeEOS9_>
   11ac0:	10800017 	ldw	r2,0(r2)
   11ac4:	e0bfff15 	stw	r2,-4(fp)
      __a = _GLIBCXX_MOVE(__b);
   11ac8:	e13ffd17 	ldw	r4,-12(fp)
   11acc:	0011a7c0 	call	11a7c <_ZSt4moveIRPFbRSt9_Any_dataRKS0_St18_Manager_operationEEONSt16remove_referenceIT_E4typeEOS9_>
   11ad0:	10c00017 	ldw	r3,0(r2)
   11ad4:	e0bffe17 	ldw	r2,-8(fp)
   11ad8:	10c00015 	stw	r3,0(r2)
      __b = _GLIBCXX_MOVE(__tmp);
   11adc:	e0bfff04 	addi	r2,fp,-4
   11ae0:	1009883a 	mov	r4,r2
   11ae4:	0011a7c0 	call	11a7c <_ZSt4moveIRPFbRSt9_Any_dataRKS0_St18_Manager_operationEEONSt16remove_referenceIT_E4typeEOS9_>
   11ae8:	10c00017 	ldw	r3,0(r2)
   11aec:	e0bffd17 	ldw	r2,-12(fp)
   11af0:	10c00015 	stw	r3,0(r2)
    }
   11af4:	0001883a 	nop
   11af8:	e037883a 	mov	sp,fp
   11afc:	dfc00117 	ldw	ra,4(sp)
   11b00:	df000017 	ldw	fp,0(sp)
   11b04:	dec00204 	addi	sp,sp,8
   11b08:	f800283a 	ret

00011b0c <_ZSt4moveIRPFvRKSt9_Any_dataRN6Serial10rx_messageEEEONSt16remove_referenceIT_E4typeEOSA_>:
    move(_Tp&& __t) noexcept
   11b0c:	defffe04 	addi	sp,sp,-8
   11b10:	df000115 	stw	fp,4(sp)
   11b14:	df000104 	addi	fp,sp,4
   11b18:	e13fff15 	stw	r4,-4(fp)
    { return static_cast<typename std::remove_reference<_Tp>::type&&>(__t); }
   11b1c:	e0bfff17 	ldw	r2,-4(fp)
   11b20:	e037883a 	mov	sp,fp
   11b24:	df000017 	ldw	fp,0(sp)
   11b28:	dec00104 	addi	sp,sp,4
   11b2c:	f800283a 	ret

00011b30 <_ZSt4swapIPFvRKSt9_Any_dataRN6Serial10rx_messageEEENSt9enable_ifIXsrSt6__and_IJSt6__not_ISt15__is_tuple_likeIT_EESt21is_move_constructibleISC_ESt18is_move_assignableISC_EEE5valueEvE4typeERSC_SM_>:
    swap(_Tp& __a, _Tp& __b)
   11b30:	defffb04 	addi	sp,sp,-20
   11b34:	dfc00415 	stw	ra,16(sp)
   11b38:	df000315 	stw	fp,12(sp)
   11b3c:	df000304 	addi	fp,sp,12
   11b40:	e13ffe15 	stw	r4,-8(fp)
   11b44:	e17ffd15 	stw	r5,-12(fp)
      _Tp __tmp = _GLIBCXX_MOVE(__a);
   11b48:	e13ffe17 	ldw	r4,-8(fp)
   11b4c:	0011b0c0 	call	11b0c <_ZSt4moveIRPFvRKSt9_Any_dataRN6Serial10rx_messageEEEONSt16remove_referenceIT_E4typeEOSA_>
   11b50:	10800017 	ldw	r2,0(r2)
   11b54:	e0bfff15 	stw	r2,-4(fp)
      __a = _GLIBCXX_MOVE(__b);
   11b58:	e13ffd17 	ldw	r4,-12(fp)
   11b5c:	0011b0c0 	call	11b0c <_ZSt4moveIRPFvRKSt9_Any_dataRN6Serial10rx_messageEEEONSt16remove_referenceIT_E4typeEOSA_>
   11b60:	10c00017 	ldw	r3,0(r2)
   11b64:	e0bffe17 	ldw	r2,-8(fp)
   11b68:	10c00015 	stw	r3,0(r2)
      __b = _GLIBCXX_MOVE(__tmp);
   11b6c:	e0bfff04 	addi	r2,fp,-4
   11b70:	1009883a 	mov	r4,r2
   11b74:	0011b0c0 	call	11b0c <_ZSt4moveIRPFvRKSt9_Any_dataRN6Serial10rx_messageEEEONSt16remove_referenceIT_E4typeEOSA_>
   11b78:	10c00017 	ldw	r3,0(r2)
   11b7c:	e0bffd17 	ldw	r2,-12(fp)
   11b80:	10c00015 	stw	r3,0(r2)
    }
   11b84:	0001883a 	nop
   11b88:	e037883a 	mov	sp,fp
   11b8c:	dfc00117 	ldw	ra,4(sp)
   11b90:	df000017 	ldw	fp,0(sp)
   11b94:	dec00204 	addi	sp,sp,8
   11b98:	f800283a 	ret

00011b9c <_ZNSt14__array_traitsIhLj4EE6_S_ptrERA4_Kh>:
      _S_ptr(const _Type& __t) noexcept
   11b9c:	defffe04 	addi	sp,sp,-8
   11ba0:	df000115 	stw	fp,4(sp)
   11ba4:	df000104 	addi	fp,sp,4
   11ba8:	e13fff15 	stw	r4,-4(fp)
      { return const_cast<_Tp*>(__t); }
   11bac:	e0bfff17 	ldw	r2,-4(fp)
   11bb0:	e037883a 	mov	sp,fp
   11bb4:	df000017 	ldw	fp,0(sp)
   11bb8:	dec00104 	addi	sp,sp,4
   11bbc:	f800283a 	ret

00011bc0 <_ZSt12__niter_baseIPhET_S1_>:
    __niter_base(_Iterator __it)
   11bc0:	defffe04 	addi	sp,sp,-8
   11bc4:	df000115 	stw	fp,4(sp)
   11bc8:	df000104 	addi	fp,sp,4
   11bcc:	e13fff15 	stw	r4,-4(fp)
    { return __it; }
   11bd0:	e0bfff17 	ldw	r2,-4(fp)
   11bd4:	e037883a 	mov	sp,fp
   11bd8:	df000017 	ldw	fp,0(sp)
   11bdc:	dec00104 	addi	sp,sp,4
   11be0:	f800283a 	ret

00011be4 <_ZSt14__copy_move_a1ILb0EPhS0_ET1_T0_S2_S1_>:
    __copy_move_a1(_II __first, _II __last, _OI __result)
   11be4:	defffb04 	addi	sp,sp,-20
   11be8:	dfc00415 	stw	ra,16(sp)
   11bec:	df000315 	stw	fp,12(sp)
   11bf0:	df000304 	addi	fp,sp,12
   11bf4:	e13fff15 	stw	r4,-4(fp)
   11bf8:	e17ffe15 	stw	r5,-8(fp)
   11bfc:	e1bffd15 	stw	r6,-12(fp)
    { return std::__copy_move_a2<_IsMove>(__first, __last, __result); }
   11c00:	e1bffd17 	ldw	r6,-12(fp)
   11c04:	e17ffe17 	ldw	r5,-8(fp)
   11c08:	e13fff17 	ldw	r4,-4(fp)
   11c0c:	0011c4c0 	call	11c4c <_ZSt14__copy_move_a2ILb0EPhS0_ET1_T0_S2_S1_>
   11c10:	e037883a 	mov	sp,fp
   11c14:	dfc00117 	ldw	ra,4(sp)
   11c18:	df000017 	ldw	fp,0(sp)
   11c1c:	dec00204 	addi	sp,sp,8
   11c20:	f800283a 	ret

00011c24 <_ZSt12__niter_wrapIPhET_RKS1_S1_>:
    __niter_wrap(const _Iterator&, _Iterator __res)
   11c24:	defffd04 	addi	sp,sp,-12
   11c28:	df000215 	stw	fp,8(sp)
   11c2c:	df000204 	addi	fp,sp,8
   11c30:	e13fff15 	stw	r4,-4(fp)
   11c34:	e17ffe15 	stw	r5,-8(fp)
    { return __res; }
   11c38:	e0bffe17 	ldw	r2,-8(fp)
   11c3c:	e037883a 	mov	sp,fp
   11c40:	df000017 	ldw	fp,0(sp)
   11c44:	dec00104 	addi	sp,sp,4
   11c48:	f800283a 	ret

00011c4c <_ZSt14__copy_move_a2ILb0EPhS0_ET1_T0_S2_S1_>:
    __copy_move_a2(_II __first, _II __last, _OI __result)
   11c4c:	defffb04 	addi	sp,sp,-20
   11c50:	dfc00415 	stw	ra,16(sp)
   11c54:	df000315 	stw	fp,12(sp)
   11c58:	df000304 	addi	fp,sp,12
   11c5c:	e13fff15 	stw	r4,-4(fp)
   11c60:	e17ffe15 	stw	r5,-8(fp)
   11c64:	e1bffd15 	stw	r6,-12(fp)
			      _Category>::__copy_m(__first, __last, __result);
   11c68:	e1bffd17 	ldw	r6,-12(fp)
   11c6c:	e17ffe17 	ldw	r5,-8(fp)
   11c70:	e13fff17 	ldw	r4,-4(fp)
   11c74:	0011c8c0 	call	11c8c <_ZNSt11__copy_moveILb0ELb1ESt26random_access_iterator_tagE8__copy_mIhEEPT_PKS3_S6_S4_>
    }
   11c78:	e037883a 	mov	sp,fp
   11c7c:	dfc00117 	ldw	ra,4(sp)
   11c80:	df000017 	ldw	fp,0(sp)
   11c84:	dec00204 	addi	sp,sp,8
   11c88:	f800283a 	ret

00011c8c <_ZNSt11__copy_moveILb0ELb1ESt26random_access_iterator_tagE8__copy_mIhEEPT_PKS3_S6_S4_>:
	__copy_m(const _Tp* __first, const _Tp* __last, _Tp* __result)
   11c8c:	defffa04 	addi	sp,sp,-24
   11c90:	dfc00515 	stw	ra,20(sp)
   11c94:	df000415 	stw	fp,16(sp)
   11c98:	df000404 	addi	fp,sp,16
   11c9c:	e13ffe15 	stw	r4,-8(fp)
   11ca0:	e17ffd15 	stw	r5,-12(fp)
   11ca4:	e1bffc15 	stw	r6,-16(fp)
	  const ptrdiff_t _Num = __last - __first;
   11ca8:	e0fffd17 	ldw	r3,-12(fp)
   11cac:	e0bffe17 	ldw	r2,-8(fp)
   11cb0:	1885c83a 	sub	r2,r3,r2
   11cb4:	e0bfff15 	stw	r2,-4(fp)
	  if (_Num)
   11cb8:	e0bfff17 	ldw	r2,-4(fp)
   11cbc:	10000526 	beq	r2,zero,11cd4 <_ZNSt11__copy_moveILb0ELb1ESt26random_access_iterator_tagE8__copy_mIhEEPT_PKS3_S6_S4_+0x48>
	    __builtin_memmove(__result, __first, sizeof(_Tp) * _Num);
   11cc0:	e0bfff17 	ldw	r2,-4(fp)
   11cc4:	100d883a 	mov	r6,r2
   11cc8:	e17ffe17 	ldw	r5,-8(fp)
   11ccc:	e13ffc17 	ldw	r4,-16(fp)
   11cd0:	001456c0 	call	1456c <memmove>
	  return __result + _Num;
   11cd4:	e0bfff17 	ldw	r2,-4(fp)
   11cd8:	e0fffc17 	ldw	r3,-16(fp)
   11cdc:	1885883a 	add	r2,r3,r2
	}
   11ce0:	e037883a 	mov	sp,fp
   11ce4:	dfc00117 	ldw	ra,4(sp)
   11ce8:	df000017 	ldw	fp,0(sp)
   11cec:	dec00204 	addi	sp,sp,8
   11cf0:	f800283a 	ret

00011cf4 <_ZL16get_adjusted_ptrPKSt9type_infoS1_PPv>:
   11cf4:	28800017 	ldw	r2,0(r5)
   11cf8:	30c00017 	ldw	r3,0(r6)
   11cfc:	defffb04 	addi	sp,sp,-20
   11d00:	10800217 	ldw	r2,8(r2)
   11d04:	dc800315 	stw	r18,12(sp)
   11d08:	dc400215 	stw	r17,8(sp)
   11d0c:	dc000115 	stw	r16,4(sp)
   11d10:	dfc00415 	stw	ra,16(sp)
   11d14:	2023883a 	mov	r17,r4
   11d18:	d8c00015 	stw	r3,0(sp)
   11d1c:	2809883a 	mov	r4,r5
   11d20:	2821883a 	mov	r16,r5
   11d24:	3025883a 	mov	r18,r6
   11d28:	103ee83a 	callr	r2
   11d2c:	10803fcc 	andi	r2,r2,255
   11d30:	10000326 	beq	r2,zero,11d40 <_ZL16get_adjusted_ptrPKSt9type_infoS1_PPv+0x4c>
   11d34:	d8800017 	ldw	r2,0(sp)
   11d38:	10800017 	ldw	r2,0(r2)
   11d3c:	d8800015 	stw	r2,0(sp)
   11d40:	88800017 	ldw	r2,0(r17)
   11d44:	01c00044 	movi	r7,1
   11d48:	d80d883a 	mov	r6,sp
   11d4c:	10800417 	ldw	r2,16(r2)
   11d50:	800b883a 	mov	r5,r16
   11d54:	8809883a 	mov	r4,r17
   11d58:	103ee83a 	callr	r2
   11d5c:	10c03fcc 	andi	r3,r2,255
   11d60:	18000226 	beq	r3,zero,11d6c <_ZL16get_adjusted_ptrPKSt9type_infoS1_PPv+0x78>
   11d64:	d8c00017 	ldw	r3,0(sp)
   11d68:	90c00015 	stw	r3,0(r18)
   11d6c:	dfc00417 	ldw	ra,16(sp)
   11d70:	dc800317 	ldw	r18,12(sp)
   11d74:	dc400217 	ldw	r17,8(sp)
   11d78:	dc000117 	ldw	r16,4(sp)
   11d7c:	dec00504 	addi	sp,sp,20
   11d80:	f800283a 	ret

00011d84 <_ZL28read_encoded_value_with_basehjPKhPj>:
   11d84:	20803fcc 	andi	r2,r4,255
   11d88:	10801418 	cmpnei	r2,r2,80
   11d8c:	10002c26 	beq	r2,zero,11e40 <_ZL28read_encoded_value_with_basehjPKhPj+0xbc>
   11d90:	208003cc 	andi	r2,r4,15
   11d94:	10c00368 	cmpgeui	r3,r2,13
   11d98:	1800711e 	bne	r3,zero,11f60 <_ZL28read_encoded_value_with_basehjPKhPj+0x1dc>
   11d9c:	100490ba 	slli	r2,r2,2
   11da0:	00c00074 	movhi	r3,1
   11da4:	10c7883a 	add	r3,r2,r3
   11da8:	18876c17 	ldw	r2,7600(r3)
   11dac:	1000683a 	jmp	r2
   11db0:	00011de4 	muli	zero,zero,1143
   11db4:	00011ed4 	movui	zero,1147
   11db8:	00011e98 	cmpnei	zero,zero,1146
   11dbc:	00011de4 	muli	zero,zero,1143
   11dc0:	00011e68 	cmpgeui	zero,zero,1145
   11dc4:	00011f60 	cmpeqi	zero,zero,1149
   11dc8:	00011f60 	cmpeqi	zero,zero,1149
   11dcc:	00011f60 	cmpeqi	zero,zero,1149
   11dd0:	00011f60 	cmpeqi	zero,zero,1149
   11dd4:	00011f0c 	andi	zero,zero,1148
   11dd8:	00011eb0 	cmpltui	zero,zero,1146
   11ddc:	00011de4 	muli	zero,zero,1143
   11de0:	00011e68 	cmpgeui	zero,zero,1145
   11de4:	32000043 	ldbu	r8,1(r6)
   11de8:	30800083 	ldbu	r2,2(r6)
   11dec:	30c000c3 	ldbu	r3,3(r6)
   11df0:	32400003 	ldbu	r9,0(r6)
   11df4:	4010923a 	slli	r8,r8,8
   11df8:	1004943a 	slli	r2,r2,16
   11dfc:	1806963a 	slli	r3,r3,24
   11e00:	4250b03a 	or	r8,r8,r9
   11e04:	1204b03a 	or	r2,r2,r8
   11e08:	1886b03a 	or	r3,r3,r2
   11e0c:	30800104 	addi	r2,r6,4
   11e10:	18000926 	beq	r3,zero,11e38 <_ZL28read_encoded_value_with_basehjPKhPj+0xb4>
   11e14:	22001c0c 	andi	r8,r4,112
   11e18:	42000418 	cmpnei	r8,r8,16
   11e1c:	4000011e 	bne	r8,zero,11e24 <_ZL28read_encoded_value_with_basehjPKhPj+0xa0>
   11e20:	300b883a 	mov	r5,r6
   11e24:	21003fcc 	andi	r4,r4,255
   11e28:	2100201c 	xori	r4,r4,128
   11e2c:	213fe004 	addi	r4,r4,-128
   11e30:	1947883a 	add	r3,r3,r5
   11e34:	20000916 	blt	r4,zero,11e5c <_ZL28read_encoded_value_with_basehjPKhPj+0xd8>
   11e38:	38c00015 	stw	r3,0(r7)
   11e3c:	f800283a 	ret
   11e40:	308000c4 	addi	r2,r6,3
   11e44:	01bfff04 	movi	r6,-4
   11e48:	1184703a 	and	r2,r2,r6
   11e4c:	10c00017 	ldw	r3,0(r2)
   11e50:	10800104 	addi	r2,r2,4
   11e54:	38c00015 	stw	r3,0(r7)
   11e58:	f800283a 	ret
   11e5c:	18c00017 	ldw	r3,0(r3)
   11e60:	38c00015 	stw	r3,0(r7)
   11e64:	f800283a 	ret
   11e68:	32000043 	ldbu	r8,1(r6)
   11e6c:	30800083 	ldbu	r2,2(r6)
   11e70:	30c000c3 	ldbu	r3,3(r6)
   11e74:	32400003 	ldbu	r9,0(r6)
   11e78:	4010923a 	slli	r8,r8,8
   11e7c:	1004943a 	slli	r2,r2,16
   11e80:	1806963a 	slli	r3,r3,24
   11e84:	4250b03a 	or	r8,r8,r9
   11e88:	1204b03a 	or	r2,r2,r8
   11e8c:	1886b03a 	or	r3,r3,r2
   11e90:	30800204 	addi	r2,r6,8
   11e94:	003fde06 	br	11e10 <_ZL28read_encoded_value_with_basehjPKhPj+0x8c>
   11e98:	30c00043 	ldbu	r3,1(r6)
   11e9c:	32000003 	ldbu	r8,0(r6)
   11ea0:	30800084 	addi	r2,r6,2
   11ea4:	1806923a 	slli	r3,r3,8
   11ea8:	1a06b03a 	or	r3,r3,r8
   11eac:	003fd806 	br	11e10 <_ZL28read_encoded_value_with_basehjPKhPj+0x8c>
   11eb0:	30c00043 	ldbu	r3,1(r6)
   11eb4:	32000003 	ldbu	r8,0(r6)
   11eb8:	30800084 	addi	r2,r6,2
   11ebc:	1806923a 	slli	r3,r3,8
   11ec0:	1a06b03a 	or	r3,r3,r8
   11ec4:	18ffffcc 	andi	r3,r3,65535
   11ec8:	18e0001c 	xori	r3,r3,32768
   11ecc:	18e00004 	addi	r3,r3,-32768
   11ed0:	003fcf06 	br	11e10 <_ZL28read_encoded_value_with_basehjPKhPj+0x8c>
   11ed4:	3005883a 	mov	r2,r6
   11ed8:	0007883a 	mov	r3,zero
   11edc:	0015883a 	mov	r10,zero
   11ee0:	12000003 	ldbu	r8,0(r2)
   11ee4:	10800044 	addi	r2,r2,1
   11ee8:	42401fcc 	andi	r9,r8,127
   11eec:	4a92983a 	sll	r9,r9,r10
   11ef0:	42003fcc 	andi	r8,r8,255
   11ef4:	4200201c 	xori	r8,r8,128
   11ef8:	423fe004 	addi	r8,r8,-128
   11efc:	1a46b03a 	or	r3,r3,r9
   11f00:	528001c4 	addi	r10,r10,7
   11f04:	403ff616 	blt	r8,zero,11ee0 <_ZL28read_encoded_value_with_basehjPKhPj+0x15c>
   11f08:	003fc106 	br	11e10 <_ZL28read_encoded_value_with_basehjPKhPj+0x8c>
   11f0c:	3005883a 	mov	r2,r6
   11f10:	0007883a 	mov	r3,zero
   11f14:	0013883a 	mov	r9,zero
   11f18:	12800003 	ldbu	r10,0(r2)
   11f1c:	10800044 	addi	r2,r2,1
   11f20:	52001fcc 	andi	r8,r10,127
   11f24:	4250983a 	sll	r8,r8,r9
   11f28:	52c03fcc 	andi	r11,r10,255
   11f2c:	5ac0201c 	xori	r11,r11,128
   11f30:	5affe004 	addi	r11,r11,-128
   11f34:	1a06b03a 	or	r3,r3,r8
   11f38:	4a4001c4 	addi	r9,r9,7
   11f3c:	583ff616 	blt	r11,zero,11f18 <_ZL28read_encoded_value_with_basehjPKhPj+0x194>
   11f40:	4a000828 	cmpgeui	r8,r9,32
   11f44:	403fb21e 	bne	r8,zero,11e10 <_ZL28read_encoded_value_with_basehjPKhPj+0x8c>
   11f48:	5280100c 	andi	r10,r10,64
   11f4c:	503fb026 	beq	r10,zero,11e10 <_ZL28read_encoded_value_with_basehjPKhPj+0x8c>
   11f50:	023fffc4 	movi	r8,-1
   11f54:	4252983a 	sll	r9,r8,r9
   11f58:	1a46b03a 	or	r3,r3,r9
   11f5c:	003fad06 	br	11e14 <_ZL28read_encoded_value_with_basehjPKhPj+0x90>
   11f60:	deffff04 	addi	sp,sp,-4
   11f64:	dfc00015 	stw	ra,0(sp)
   11f68:	00145340 	call	14534 <abort>

00011f6c <_ZL21base_of_encoded_valuehP15_Unwind_Context>:
   11f6c:	20803fcc 	andi	r2,r4,255
   11f70:	10803fe0 	cmpeqi	r2,r2,255
   11f74:	1000161e 	bne	r2,zero,11fd0 <_ZL21base_of_encoded_valuehP15_Unwind_Context+0x64>
   11f78:	2007883a 	mov	r3,r4
   11f7c:	18801c0c 	andi	r2,r3,112
   11f80:	2809883a 	mov	r4,r5
   11f84:	11400c20 	cmpeqi	r5,r2,48
   11f88:	2800131e 	bne	r5,zero,11fd8 <_ZL21base_of_encoded_valuehP15_Unwind_Context+0x6c>
   11f8c:	11400c68 	cmpgeui	r5,r2,49
   11f90:	2800031e 	bne	r5,zero,11fa0 <_ZL21base_of_encoded_valuehP15_Unwind_Context+0x34>
   11f94:	11400820 	cmpeqi	r5,r2,32
   11f98:	28000426 	beq	r5,zero,11fac <_ZL21base_of_encoded_valuehP15_Unwind_Context+0x40>
   11f9c:	00142fc1 	jmpi	142fc <_Unwind_GetTextRelBase>
   11fa0:	10c01020 	cmpeqi	r3,r2,64
   11fa4:	18000826 	beq	r3,zero,11fc8 <_ZL21base_of_encoded_valuehP15_Unwind_Context+0x5c>
   11fa8:	00142e41 	jmpi	142e4 <_Unwind_GetRegionStart>
   11fac:	10800868 	cmpgeui	r2,r2,33
   11fb0:	1000021e 	bne	r2,zero,11fbc <_ZL21base_of_encoded_valuehP15_Unwind_Context+0x50>
   11fb4:	18c0180c 	andi	r3,r3,96
   11fb8:	18000526 	beq	r3,zero,11fd0 <_ZL21base_of_encoded_valuehP15_Unwind_Context+0x64>
   11fbc:	deffff04 	addi	sp,sp,-4
   11fc0:	dfc00015 	stw	ra,0(sp)
   11fc4:	00145340 	call	14534 <abort>
   11fc8:	10801420 	cmpeqi	r2,r2,80
   11fcc:	103ffb26 	beq	r2,zero,11fbc <_ZL21base_of_encoded_valuehP15_Unwind_Context+0x50>
   11fd0:	0005883a 	mov	r2,zero
   11fd4:	f800283a 	ret
   11fd8:	00142f41 	jmpi	142f4 <_Unwind_GetDataRelBase>

00011fdc <_ZL17parse_lsda_headerP15_Unwind_ContextPKhP16lsda_header_info>:
   11fdc:	defffb04 	addi	sp,sp,-20
   11fe0:	dc800215 	stw	r18,8(sp)
   11fe4:	dc400115 	stw	r17,4(sp)
   11fe8:	dc000015 	stw	r16,0(sp)
   11fec:	dfc00415 	stw	ra,16(sp)
   11ff0:	dcc00315 	stw	r19,12(sp)
   11ff4:	2025883a 	mov	r18,r4
   11ff8:	2821883a 	mov	r16,r5
   11ffc:	3023883a 	mov	r17,r6
   12000:	20003d26 	beq	r4,zero,120f8 <_ZL17parse_lsda_headerP15_Unwind_ContextPKhP16lsda_header_info+0x11c>
   12004:	00142e40 	call	142e4 <_Unwind_GetRegionStart>
   12008:	88800015 	stw	r2,0(r17)
   1200c:	84c00003 	ldbu	r19,0(r16)
   12010:	84000044 	addi	r16,r16,1
   12014:	98c03fe0 	cmpeqi	r3,r19,255
   12018:	18002d26 	beq	r3,zero,120d0 <_ZL17parse_lsda_headerP15_Unwind_ContextPKhP16lsda_header_info+0xf4>
   1201c:	88800115 	stw	r2,4(r17)
   12020:	81000003 	ldbu	r4,0(r16)
   12024:	80800044 	addi	r2,r16,1
   12028:	20c03fcc 	andi	r3,r4,255
   1202c:	89000505 	stb	r4,20(r17)
   12030:	18c03fe0 	cmpeqi	r3,r3,255
   12034:	1800321e 	bne	r3,zero,12100 <_ZL17parse_lsda_headerP15_Unwind_ContextPKhP16lsda_header_info+0x124>
   12038:	000d883a 	mov	r6,zero
   1203c:	000b883a 	mov	r5,zero
   12040:	10c00003 	ldbu	r3,0(r2)
   12044:	10800044 	addi	r2,r2,1
   12048:	19001fcc 	andi	r4,r3,127
   1204c:	2148983a 	sll	r4,r4,r5
   12050:	18c03fcc 	andi	r3,r3,255
   12054:	18c0201c 	xori	r3,r3,128
   12058:	18ffe004 	addi	r3,r3,-128
   1205c:	310cb03a 	or	r6,r6,r4
   12060:	294001c4 	addi	r5,r5,7
   12064:	183ff616 	blt	r3,zero,12040 <_ZL17parse_lsda_headerP15_Unwind_ContextPKhP16lsda_header_info+0x64>
   12068:	118d883a 	add	r6,r2,r6
   1206c:	89800315 	stw	r6,12(r17)
   12070:	10c00003 	ldbu	r3,0(r2)
   12074:	000f883a 	mov	r7,zero
   12078:	10800044 	addi	r2,r2,1
   1207c:	88c00545 	stb	r3,21(r17)
   12080:	000b883a 	mov	r5,zero
   12084:	10c00003 	ldbu	r3,0(r2)
   12088:	10800044 	addi	r2,r2,1
   1208c:	19001fcc 	andi	r4,r3,127
   12090:	2148983a 	sll	r4,r4,r5
   12094:	18c03fcc 	andi	r3,r3,255
   12098:	18c0201c 	xori	r3,r3,128
   1209c:	18ffe004 	addi	r3,r3,-128
   120a0:	390eb03a 	or	r7,r7,r4
   120a4:	294001c4 	addi	r5,r5,7
   120a8:	183ff616 	blt	r3,zero,12084 <_ZL17parse_lsda_headerP15_Unwind_ContextPKhP16lsda_header_info+0xa8>
   120ac:	11cf883a 	add	r7,r2,r7
   120b0:	89c00415 	stw	r7,16(r17)
   120b4:	dfc00417 	ldw	ra,16(sp)
   120b8:	dcc00317 	ldw	r19,12(sp)
   120bc:	dc800217 	ldw	r18,8(sp)
   120c0:	dc400117 	ldw	r17,4(sp)
   120c4:	dc000017 	ldw	r16,0(sp)
   120c8:	dec00504 	addi	sp,sp,20
   120cc:	f800283a 	ret
   120d0:	900b883a 	mov	r5,r18
   120d4:	9809883a 	mov	r4,r19
   120d8:	0011f6c0 	call	11f6c <_ZL21base_of_encoded_valuehP15_Unwind_Context>
   120dc:	800d883a 	mov	r6,r16
   120e0:	89c00104 	addi	r7,r17,4
   120e4:	100b883a 	mov	r5,r2
   120e8:	9809883a 	mov	r4,r19
   120ec:	0011d840 	call	11d84 <_ZL28read_encoded_value_with_basehjPKhPj>
   120f0:	1021883a 	mov	r16,r2
   120f4:	003fca06 	br	12020 <_ZL17parse_lsda_headerP15_Unwind_ContextPKhP16lsda_header_info+0x44>
   120f8:	0005883a 	mov	r2,zero
   120fc:	003fc206 	br	12008 <_ZL17parse_lsda_headerP15_Unwind_ContextPKhP16lsda_header_info+0x2c>
   12100:	88000315 	stw	zero,12(r17)
   12104:	003fda06 	br	12070 <_ZL17parse_lsda_headerP15_Unwind_ContextPKhP16lsda_header_info+0x94>

00012108 <_ZL20check_exception_specP16lsda_header_infoPKSt9type_infoPvl>:
   12108:	defffa04 	addi	sp,sp,-24
   1210c:	dc000215 	stw	r16,8(sp)
   12110:	24000317 	ldw	r16,12(r4)
   12114:	01ce303a 	nor	r7,zero,r7
   12118:	dc800415 	stw	r18,16(sp)
   1211c:	dc400315 	stw	r17,12(sp)
   12120:	dfc00515 	stw	ra,20(sp)
   12124:	2025883a 	mov	r18,r4
   12128:	2823883a 	mov	r17,r5
   1212c:	d9800015 	stw	r6,0(sp)
   12130:	81e1883a 	add	r16,r16,r7
   12134:	000f883a 	mov	r7,zero
   12138:	000d883a 	mov	r6,zero
   1213c:	80800003 	ldbu	r2,0(r16)
   12140:	84000044 	addi	r16,r16,1
   12144:	10c01fcc 	andi	r3,r2,127
   12148:	1986983a 	sll	r3,r3,r6
   1214c:	10803fcc 	andi	r2,r2,255
   12150:	1080201c 	xori	r2,r2,128
   12154:	10bfe004 	addi	r2,r2,-128
   12158:	38ceb03a 	or	r7,r7,r3
   1215c:	318001c4 	addi	r6,r6,7
   12160:	103ff616 	blt	r2,zero,1213c <_ZL20check_exception_specP16lsda_header_infoPKSt9type_infoPvl+0x34>
   12164:	38002926 	beq	r7,zero,1220c <_ZL20check_exception_specP16lsda_header_infoPKSt9type_infoPvl+0x104>
   12168:	90800503 	ldbu	r2,20(r18)
   1216c:	11003fcc 	andi	r4,r2,255
   12170:	20c03fe0 	cmpeqi	r3,r4,255
   12174:	1800231e 	bne	r3,zero,12204 <_ZL20check_exception_specP16lsda_header_infoPKSt9type_infoPvl+0xfc>
   12178:	108001cc 	andi	r2,r2,7
   1217c:	10c000a0 	cmpeqi	r3,r2,2
   12180:	18001d1e 	bne	r3,zero,121f8 <_ZL20check_exception_specP16lsda_header_infoPKSt9type_infoPvl+0xf0>
   12184:	10c000e8 	cmpgeui	r3,r2,3
   12188:	18001726 	beq	r3,zero,121e8 <_ZL20check_exception_specP16lsda_header_infoPKSt9type_infoPvl+0xe0>
   1218c:	10c000e0 	cmpeqi	r3,r2,3
   12190:	1800161e 	bne	r3,zero,121ec <_ZL20check_exception_specP16lsda_header_infoPKSt9type_infoPvl+0xe4>
   12194:	10800120 	cmpeqi	r2,r2,4
   12198:	10001e26 	beq	r2,zero,12214 <_ZL20check_exception_specP16lsda_header_infoPKSt9type_infoPvl+0x10c>
   1219c:	380e90fa 	slli	r7,r7,3
   121a0:	01c5c83a 	sub	r2,zero,r7
   121a4:	91800317 	ldw	r6,12(r18)
   121a8:	91400217 	ldw	r5,8(r18)
   121ac:	d9c00104 	addi	r7,sp,4
   121b0:	308d883a 	add	r6,r6,r2
   121b4:	0011d840 	call	11d84 <_ZL28read_encoded_value_with_basehjPKhPj>
   121b8:	d9000117 	ldw	r4,4(sp)
   121bc:	d80d883a 	mov	r6,sp
   121c0:	880b883a 	mov	r5,r17
   121c4:	0011cf40 	call	11cf4 <_ZL16get_adjusted_ptrPKSt9type_infoS1_PPv>
   121c8:	10c03fcc 	andi	r3,r2,255
   121cc:	183fd926 	beq	r3,zero,12134 <_ZL20check_exception_specP16lsda_header_infoPKSt9type_infoPvl+0x2c>
   121d0:	dfc00517 	ldw	ra,20(sp)
   121d4:	dc800417 	ldw	r18,16(sp)
   121d8:	dc400317 	ldw	r17,12(sp)
   121dc:	dc000217 	ldw	r16,8(sp)
   121e0:	dec00604 	addi	sp,sp,24
   121e4:	f800283a 	ret
   121e8:	10000a1e 	bne	r2,zero,12214 <_ZL20check_exception_specP16lsda_header_infoPKSt9type_infoPvl+0x10c>
   121ec:	380e90ba 	slli	r7,r7,2
   121f0:	01c5c83a 	sub	r2,zero,r7
   121f4:	003feb06 	br	121a4 <_ZL20check_exception_specP16lsda_header_infoPKSt9type_infoPvl+0x9c>
   121f8:	39cf883a 	add	r7,r7,r7
   121fc:	01c5c83a 	sub	r2,zero,r7
   12200:	003fe806 	br	121a4 <_ZL20check_exception_specP16lsda_header_infoPKSt9type_infoPvl+0x9c>
   12204:	0005883a 	mov	r2,zero
   12208:	003fe606 	br	121a4 <_ZL20check_exception_specP16lsda_header_infoPKSt9type_infoPvl+0x9c>
   1220c:	0005883a 	mov	r2,zero
   12210:	003fef06 	br	121d0 <_ZL20check_exception_specP16lsda_header_infoPKSt9type_infoPvl+0xc8>
   12214:	00145340 	call	14534 <abort>

00012218 <__gxx_personality_sj0>:
   12218:	deffdb04 	addi	sp,sp,-148
   1221c:	02000074 	movhi	r8,1
   12220:	00c00074 	movhi	r3,1
   12224:	00800074 	movhi	r2,1
   12228:	108a2304 	addi	r2,r2,10380
   1222c:	d9000015 	stw	r4,0(sp)
   12230:	42088604 	addi	r8,r8,8728
   12234:	18dac004 	addi	r3,r3,27392
   12238:	d9000d04 	addi	r4,sp,52
   1223c:	d8801615 	stw	r2,88(sp)
   12240:	dfc02415 	stw	ra,144(sp)
   12244:	df002315 	stw	fp,140(sp)
   12248:	d9400315 	stw	r5,12(sp)
   1224c:	d9800115 	stw	r6,4(sp)
   12250:	d9c00215 	stw	r7,8(sp)
   12254:	da001315 	stw	r8,76(sp)
   12258:	d8c01415 	stw	r3,80(sp)
   1225c:	df001515 	stw	fp,84(sp)
   12260:	dec01715 	stw	sp,92(sp)
   12264:	00142280 	call	14228 <_Unwind_SjLj_Register>
   12268:	d8800017 	ldw	r2,0(sp)
   1226c:	d8001a15 	stw	zero,104(sp)
   12270:	d8001b15 	stw	zero,108(sp)
   12274:	10800058 	cmpnei	r2,r2,1
   12278:	1000471e 	bne	r2,zero,12398 <__gxx_personality_sj0+0x180>
   1227c:	d9800117 	ldw	r6,4(sp)
   12280:	00af3574 	movhi	r2,48341
   12284:	10b54004 	addi	r2,r2,-11008
   12288:	3085883a 	add	r2,r6,r2
   1228c:	d8800715 	stw	r2,28(sp)
   12290:	1185803a 	cmpltu	r2,r2,r6
   12294:	d9800217 	ldw	r6,8(sp)
   12298:	00ee2cb4 	movhi	r3,47282
   1229c:	d9000317 	ldw	r4,12(sp)
   122a0:	18eaaf04 	addi	r3,r3,-21828
   122a4:	30c7883a 	add	r3,r6,r3
   122a8:	10c7883a 	add	r3,r2,r3
   122ac:	21000198 	cmpnei	r4,r4,6
   122b0:	d8c00615 	stw	r3,24(sp)
   122b4:	2000011e 	bne	r4,zero,122bc <__gxx_personality_sj0+0xa4>
   122b8:	1800d026 	beq	r3,zero,125fc <__gxx_personality_sj0+0x3e4>
   122bc:	d9002617 	ldw	r4,152(sp)
   122c0:	00bfffc4 	movi	r2,-1
   122c4:	d8800e15 	stw	r2,56(sp)
   122c8:	00142d80 	call	142d8 <_Unwind_GetLanguageSpecificData>
   122cc:	d8800515 	stw	r2,20(sp)
   122d0:	10005d26 	beq	r2,zero,12448 <__gxx_personality_sj0+0x230>
   122d4:	d9400517 	ldw	r5,20(sp)
   122d8:	d9002617 	ldw	r4,152(sp)
   122dc:	d9801d04 	addi	r6,sp,116
   122e0:	00bfffc4 	movi	r2,-1
   122e4:	d8800e15 	stw	r2,56(sp)
   122e8:	0011fdc0 	call	11fdc <_ZL17parse_lsda_headerP15_Unwind_ContextPKhP16lsda_header_info>
   122ec:	d9002203 	ldbu	r4,136(sp)
   122f0:	d9402617 	ldw	r5,152(sp)
   122f4:	d8800015 	stw	r2,0(sp)
   122f8:	0011f6c0 	call	11f6c <_ZL21base_of_encoded_valuehP15_Unwind_Context>
   122fc:	d9002617 	ldw	r4,152(sp)
   12300:	d9401b04 	addi	r5,sp,108
   12304:	d8801f15 	stw	r2,124(sp)
   12308:	00142a80 	call	142a8 <_Unwind_GetIPInfo>
   1230c:	d8c01b17 	ldw	r3,108(sp)
   12310:	d8800115 	stw	r2,4(sp)
   12314:	18004f26 	beq	r3,zero,12454 <__gxx_personality_sj0+0x23c>
   12318:	d8800117 	ldw	r2,4(sp)
   1231c:	10004a16 	blt	r2,zero,12448 <__gxx_personality_sj0+0x230>
   12320:	1000381e 	bne	r2,zero,12404 <__gxx_personality_sj0+0x1ec>
   12324:	d8000415 	stw	zero,16(sp)
   12328:	d8000215 	stw	zero,8(sp)
   1232c:	00800044 	movi	r2,1
   12330:	d8c00317 	ldw	r3,12(sp)
   12334:	18c0004c 	andi	r3,r3,1
   12338:	1801061e 	bne	r3,zero,12754 <__gxx_personality_sj0+0x53c>
   1233c:	d8c00317 	ldw	r3,12(sp)
   12340:	18c0020c 	andi	r3,r3,8
   12344:	18010a26 	beq	r3,zero,12770 <__gxx_personality_sj0+0x558>
   12348:	10800058 	cmpnei	r2,r2,1
   1234c:	10015126 	beq	r2,zero,12894 <__gxx_personality_sj0+0x67c>
   12350:	d8800417 	ldw	r2,16(sp)
   12354:	10014a16 	blt	r2,zero,12880 <__gxx_personality_sj0+0x668>
   12358:	d9002617 	ldw	r4,152(sp)
   1235c:	d9802517 	ldw	r6,148(sp)
   12360:	00bfffc4 	movi	r2,-1
   12364:	000b883a 	mov	r5,zero
   12368:	d8800e15 	stw	r2,56(sp)
   1236c:	00142800 	call	14280 <_Unwind_SetGR>
   12370:	d9800417 	ldw	r6,16(sp)
   12374:	d9002617 	ldw	r4,152(sp)
   12378:	01400044 	movi	r5,1
   1237c:	00142800 	call	14280 <_Unwind_SetGR>
   12380:	d9400117 	ldw	r5,4(sp)
   12384:	d9002617 	ldw	r4,152(sp)
   12388:	00142c80 	call	142c8 <_Unwind_SetIP>
   1238c:	008001c4 	movi	r2,7
   12390:	d8800015 	stw	r2,0(sp)
   12394:	00000206 	br	123a0 <__gxx_personality_sj0+0x188>
   12398:	008000c4 	movi	r2,3
   1239c:	d8800015 	stw	r2,0(sp)
   123a0:	d9000d04 	addi	r4,sp,52
   123a4:	00142400 	call	14240 <_Unwind_SjLj_Unregister>
   123a8:	d8800017 	ldw	r2,0(sp)
   123ac:	dfc02417 	ldw	ra,144(sp)
   123b0:	df002317 	ldw	fp,140(sp)
   123b4:	dec02504 	addi	sp,sp,148
   123b8:	f800283a 	ret
   123bc:	000b883a 	mov	r5,zero
   123c0:	0009883a 	mov	r4,zero
   123c4:	d8c00017 	ldw	r3,0(sp)
   123c8:	18800003 	ldbu	r2,0(r3)
   123cc:	18c00044 	addi	r3,r3,1
   123d0:	d8c00015 	stw	r3,0(sp)
   123d4:	10c01fcc 	andi	r3,r2,127
   123d8:	1906983a 	sll	r3,r3,r4
   123dc:	10803fcc 	andi	r2,r2,255
   123e0:	1080201c 	xori	r2,r2,128
   123e4:	10bfe004 	addi	r2,r2,-128
   123e8:	28cab03a 	or	r5,r5,r3
   123ec:	210001c4 	addi	r4,r4,7
   123f0:	103ff416 	blt	r2,zero,123c4 <__gxx_personality_sj0+0x1ac>
   123f4:	d8800117 	ldw	r2,4(sp)
   123f8:	10bfffc4 	addi	r2,r2,-1
   123fc:	d8800115 	stw	r2,4(sp)
   12400:	10001726 	beq	r2,zero,12460 <__gxx_personality_sj0+0x248>
   12404:	000d883a 	mov	r6,zero
   12408:	0009883a 	mov	r4,zero
   1240c:	d8c00017 	ldw	r3,0(sp)
   12410:	18800003 	ldbu	r2,0(r3)
   12414:	18c00044 	addi	r3,r3,1
   12418:	d8c00015 	stw	r3,0(sp)
   1241c:	10c01fcc 	andi	r3,r2,127
   12420:	1906983a 	sll	r3,r3,r4
   12424:	10803fcc 	andi	r2,r2,255
   12428:	1080201c 	xori	r2,r2,128
   1242c:	10bfe004 	addi	r2,r2,-128
   12430:	30ccb03a 	or	r6,r6,r3
   12434:	210001c4 	addi	r4,r4,7
   12438:	103ff416 	blt	r2,zero,1240c <__gxx_personality_sj0+0x1f4>
   1243c:	003fdf06 	br	123bc <__gxx_personality_sj0+0x1a4>
   12440:	d88008c3 	ldbu	r2,35(sp)
   12444:	10008c1e 	bne	r2,zero,12678 <__gxx_personality_sj0+0x460>
   12448:	00800204 	movi	r2,8
   1244c:	d8800015 	stw	r2,0(sp)
   12450:	003fd306 	br	123a0 <__gxx_personality_sj0+0x188>
   12454:	10bfffc4 	addi	r2,r2,-1
   12458:	d8800115 	stw	r2,4(sp)
   1245c:	003fae06 	br	12318 <__gxx_personality_sj0+0x100>
   12460:	30800044 	addi	r2,r6,1
   12464:	d8800a15 	stw	r2,40(sp)
   12468:	283ff626 	beq	r5,zero,12444 <__gxx_personality_sj0+0x22c>
   1246c:	d8800a17 	ldw	r2,40(sp)
   12470:	103ff526 	beq	r2,zero,12448 <__gxx_personality_sj0+0x230>
   12474:	d8802117 	ldw	r2,132(sp)
   12478:	297fffc4 	addi	r5,r5,-1
   1247c:	1145883a 	add	r2,r2,r5
   12480:	d8800215 	stw	r2,8(sp)
   12484:	10007c26 	beq	r2,zero,12678 <__gxx_personality_sj0+0x460>
   12488:	d8800317 	ldw	r2,12(sp)
   1248c:	1080020c 	andi	r2,r2,8
   12490:	d8800b15 	stw	r2,44(sp)
   12494:	1000bf1e 	bne	r2,zero,12794 <__gxx_personality_sj0+0x57c>
   12498:	d8800617 	ldw	r2,24(sp)
   1249c:	1000e526 	beq	r2,zero,12834 <__gxx_personality_sj0+0x61c>
   124a0:	00800074 	movhi	r2,1
   124a4:	109db804 	addi	r2,r2,30432
   124a8:	d8800915 	stw	r2,36(sp)
   124ac:	d8800717 	ldw	r2,28(sp)
   124b0:	d80008c5 	stb	zero,35(sp)
   124b4:	108000a8 	cmpgeui	r2,r2,2
   124b8:	d8800c15 	stw	r2,48(sp)
   124bc:	d8800217 	ldw	r2,8(sp)
   124c0:	000f883a 	mov	r7,zero
   124c4:	0007883a 	mov	r3,zero
   124c8:	d8800015 	stw	r2,0(sp)
   124cc:	d8800017 	ldw	r2,0(sp)
   124d0:	11000003 	ldbu	r4,0(r2)
   124d4:	10800044 	addi	r2,r2,1
   124d8:	d8800015 	stw	r2,0(sp)
   124dc:	20801fcc 	andi	r2,r4,127
   124e0:	10c4983a 	sll	r2,r2,r3
   124e4:	21403fcc 	andi	r5,r4,255
   124e8:	2940201c 	xori	r5,r5,128
   124ec:	297fe004 	addi	r5,r5,-128
   124f0:	388eb03a 	or	r7,r7,r2
   124f4:	18c001c4 	addi	r3,r3,7
   124f8:	283ff416 	blt	r5,zero,124cc <__gxx_personality_sj0+0x2b4>
   124fc:	18800828 	cmpgeui	r2,r3,32
   12500:	1000061e 	bne	r2,zero,1251c <__gxx_personality_sj0+0x304>
   12504:	2100100c 	andi	r4,r4,64
   12508:	20000426 	beq	r4,zero,1251c <__gxx_personality_sj0+0x304>
   1250c:	00800044 	movi	r2,1
   12510:	10c6983a 	sll	r3,r2,r3
   12514:	00c7c83a 	sub	r3,zero,r3
   12518:	38ceb03a 	or	r7,r7,r3
   1251c:	d9400017 	ldw	r5,0(sp)
   12520:	d9c00415 	stw	r7,16(sp)
   12524:	d8000115 	stw	zero,4(sp)
   12528:	0007883a 	mov	r3,zero
   1252c:	29000003 	ldbu	r4,0(r5)
   12530:	da000117 	ldw	r8,4(sp)
   12534:	29400044 	addi	r5,r5,1
   12538:	20801fcc 	andi	r2,r4,127
   1253c:	10c4983a 	sll	r2,r2,r3
   12540:	21803fcc 	andi	r6,r4,255
   12544:	3180201c 	xori	r6,r6,128
   12548:	4084b03a 	or	r2,r8,r2
   1254c:	31bfe004 	addi	r6,r6,-128
   12550:	d8800115 	stw	r2,4(sp)
   12554:	18c001c4 	addi	r3,r3,7
   12558:	303ff416 	blt	r6,zero,1252c <__gxx_personality_sj0+0x314>
   1255c:	18800828 	cmpgeui	r2,r3,32
   12560:	1000081e 	bne	r2,zero,12584 <__gxx_personality_sj0+0x36c>
   12564:	2100100c 	andi	r4,r4,64
   12568:	20000626 	beq	r4,zero,12584 <__gxx_personality_sj0+0x36c>
   1256c:	00800044 	movi	r2,1
   12570:	10c6983a 	sll	r3,r2,r3
   12574:	d8800117 	ldw	r2,4(sp)
   12578:	00c7c83a 	sub	r3,zero,r3
   1257c:	10c4b03a 	or	r2,r2,r3
   12580:	d8800115 	stw	r2,4(sp)
   12584:	38004726 	beq	r7,zero,126a4 <__gxx_personality_sj0+0x48c>
   12588:	01c04916 	blt	zero,r7,126b0 <__gxx_personality_sj0+0x498>
   1258c:	d8800917 	ldw	r2,36(sp)
   12590:	10000426 	beq	r2,zero,125a4 <__gxx_personality_sj0+0x38c>
   12594:	d8800b17 	ldw	r2,44(sp)
   12598:	1000021e 	bne	r2,zero,125a4 <__gxx_personality_sj0+0x38c>
   1259c:	d8800617 	ldw	r2,24(sp)
   125a0:	10008026 	beq	r2,zero,127a4 <__gxx_personality_sj0+0x58c>
   125a4:	d8802017 	ldw	r2,128(sp)
   125a8:	01ce303a 	nor	r7,zero,r7
   125ac:	000b883a 	mov	r5,zero
   125b0:	11cf883a 	add	r7,r2,r7
   125b4:	0009883a 	mov	r4,zero
   125b8:	38800003 	ldbu	r2,0(r7)
   125bc:	39c00044 	addi	r7,r7,1
   125c0:	10c01fcc 	andi	r3,r2,127
   125c4:	1906983a 	sll	r3,r3,r4
   125c8:	10803fcc 	andi	r2,r2,255
   125cc:	1080201c 	xori	r2,r2,128
   125d0:	10bfe004 	addi	r2,r2,-128
   125d4:	28cab03a 	or	r5,r5,r3
   125d8:	210001c4 	addi	r4,r4,7
   125dc:	103ff616 	blt	r2,zero,125b8 <__gxx_personality_sj0+0x3a0>
   125e0:	28005126 	beq	r5,zero,12728 <__gxx_personality_sj0+0x510>
   125e4:	d8800117 	ldw	r2,4(sp)
   125e8:	103f9526 	beq	r2,zero,12440 <__gxx_personality_sj0+0x228>
   125ec:	d8c00017 	ldw	r3,0(sp)
   125f0:	1885883a 	add	r2,r3,r2
   125f4:	d8800215 	stw	r2,8(sp)
   125f8:	003fb006 	br	124bc <__gxx_personality_sj0+0x2a4>
   125fc:	d8800717 	ldw	r2,28(sp)
   12600:	108000a8 	cmpgeui	r2,r2,2
   12604:	103f2d1e 	bne	r2,zero,122bc <__gxx_personality_sj0+0xa4>
   12608:	d8802517 	ldw	r2,148(sp)
   1260c:	10bffe17 	ldw	r2,-8(r2)
   12610:	d8800115 	stw	r2,4(sp)
   12614:	10005d26 	beq	r2,zero,1278c <__gxx_personality_sj0+0x574>
   12618:	d8802517 	ldw	r2,148(sp)
   1261c:	10bffb17 	ldw	r2,-20(r2)
   12620:	d8800415 	stw	r2,16(sp)
   12624:	d8802517 	ldw	r2,148(sp)
   12628:	10bffd17 	ldw	r2,-12(r2)
   1262c:	d8800515 	stw	r2,20(sp)
   12630:	d8800417 	ldw	r2,16(sp)
   12634:	103f480e 	bge	r2,zero,12358 <__gxx_personality_sj0+0x140>
   12638:	d9002617 	ldw	r4,152(sp)
   1263c:	d9400517 	ldw	r5,20(sp)
   12640:	d9801d04 	addi	r6,sp,116
   12644:	00bfffc4 	movi	r2,-1
   12648:	d8800e15 	stw	r2,56(sp)
   1264c:	0011fdc0 	call	11fdc <_ZL17parse_lsda_headerP15_Unwind_ContextPKhP16lsda_header_info>
   12650:	d9402617 	ldw	r5,152(sp)
   12654:	d9002203 	ldbu	r4,136(sp)
   12658:	0011f6c0 	call	11f6c <_ZL21base_of_encoded_valuehP15_Unwind_Context>
   1265c:	d9002203 	ldbu	r4,136(sp)
   12660:	d9402617 	ldw	r5,152(sp)
   12664:	d8801f15 	stw	r2,124(sp)
   12668:	0011f6c0 	call	11f6c <_ZL21base_of_encoded_valuehP15_Unwind_Context>
   1266c:	d8c02517 	ldw	r3,148(sp)
   12670:	18bffe15 	stw	r2,-8(r3)
   12674:	003f3806 	br	12358 <__gxx_personality_sj0+0x140>
   12678:	d8800317 	ldw	r2,12(sp)
   1267c:	1080004c 	andi	r2,r2,1
   12680:	103f711e 	bne	r2,zero,12448 <__gxx_personality_sj0+0x230>
   12684:	d8800317 	ldw	r2,12(sp)
   12688:	1080020c 	andi	r2,r2,8
   1268c:	d8800415 	stw	r2,16(sp)
   12690:	10008126 	beq	r2,zero,12898 <__gxx_personality_sj0+0x680>
   12694:	d8800a17 	ldw	r2,40(sp)
   12698:	d8000415 	stw	zero,16(sp)
   1269c:	d8800115 	stw	r2,4(sp)
   126a0:	003f2d06 	br	12358 <__gxx_personality_sj0+0x140>
   126a4:	00800044 	movi	r2,1
   126a8:	d88008c5 	stb	r2,35(sp)
   126ac:	003fcd06 	br	125e4 <__gxx_personality_sj0+0x3cc>
   126b0:	d8802203 	ldbu	r2,136(sp)
   126b4:	11003fcc 	andi	r4,r2,255
   126b8:	20c03fe0 	cmpeqi	r3,r4,255
   126bc:	18002a1e 	bne	r3,zero,12768 <__gxx_personality_sj0+0x550>
   126c0:	108001cc 	andi	r2,r2,7
   126c4:	10c000a0 	cmpeqi	r3,r2,2
   126c8:	18001f1e 	bne	r3,zero,12748 <__gxx_personality_sj0+0x530>
   126cc:	10c000e8 	cmpgeui	r3,r2,3
   126d0:	18001926 	beq	r3,zero,12738 <__gxx_personality_sj0+0x520>
   126d4:	10c000e0 	cmpeqi	r3,r2,3
   126d8:	1800181e 	bne	r3,zero,1273c <__gxx_personality_sj0+0x524>
   126dc:	10800120 	cmpeqi	r2,r2,4
   126e0:	10007026 	beq	r2,zero,128a4 <__gxx_personality_sj0+0x68c>
   126e4:	380490fa 	slli	r2,r7,3
   126e8:	0085c83a 	sub	r2,zero,r2
   126ec:	d9802017 	ldw	r6,128(sp)
   126f0:	d9401f17 	ldw	r5,124(sp)
   126f4:	d9c01c04 	addi	r7,sp,112
   126f8:	308d883a 	add	r6,r6,r2
   126fc:	00bfffc4 	movi	r2,-1
   12700:	d8800e15 	stw	r2,56(sp)
   12704:	0011d840 	call	11d84 <_ZL28read_encoded_value_with_basehjPKhPj>
   12708:	d9001c17 	ldw	r4,112(sp)
   1270c:	20000626 	beq	r4,zero,12728 <__gxx_personality_sj0+0x510>
   12710:	d9400917 	ldw	r5,36(sp)
   12714:	283fb326 	beq	r5,zero,125e4 <__gxx_personality_sj0+0x3cc>
   12718:	d9801a04 	addi	r6,sp,104
   1271c:	0011cf40 	call	11cf4 <_ZL16get_adjusted_ptrPKSt9type_infoS1_PPv>
   12720:	10803fcc 	andi	r2,r2,255
   12724:	103faf26 	beq	r2,zero,125e4 <__gxx_personality_sj0+0x3cc>
   12728:	d8800a17 	ldw	r2,40(sp)
   1272c:	d8800115 	stw	r2,4(sp)
   12730:	008000c4 	movi	r2,3
   12734:	003efe06 	br	12330 <__gxx_personality_sj0+0x118>
   12738:	10005a1e 	bne	r2,zero,128a4 <__gxx_personality_sj0+0x68c>
   1273c:	380490ba 	slli	r2,r7,2
   12740:	0085c83a 	sub	r2,zero,r2
   12744:	003fe906 	br	126ec <__gxx_personality_sj0+0x4d4>
   12748:	39cf883a 	add	r7,r7,r7
   1274c:	01c5c83a 	sub	r2,zero,r7
   12750:	003fe606 	br	126ec <__gxx_personality_sj0+0x4d4>
   12754:	d8800617 	ldw	r2,24(sp)
   12758:	10002326 	beq	r2,zero,127e8 <__gxx_personality_sj0+0x5d0>
   1275c:	00800184 	movi	r2,6
   12760:	d8800015 	stw	r2,0(sp)
   12764:	003f0e06 	br	123a0 <__gxx_personality_sj0+0x188>
   12768:	0005883a 	mov	r2,zero
   1276c:	003fdf06 	br	126ec <__gxx_personality_sj0+0x4d4>
   12770:	d8c00617 	ldw	r3,24(sp)
   12774:	183ef41e 	bne	r3,zero,12348 <__gxx_personality_sj0+0x130>
   12778:	d8c00717 	ldw	r3,28(sp)
   1277c:	18c000a8 	cmpgeui	r3,r3,2
   12780:	183ef11e 	bne	r3,zero,12348 <__gxx_personality_sj0+0x130>
   12784:	10800060 	cmpeqi	r2,r2,1
   12788:	103fa926 	beq	r2,zero,12630 <__gxx_personality_sj0+0x418>
   1278c:	d9002517 	ldw	r4,148(sp)
   12790:	00137b80 	call	137b8 <__cxa_call_terminate>
   12794:	00800074 	movhi	r2,1
   12798:	109db604 	addi	r2,r2,30424
   1279c:	d8800915 	stw	r2,36(sp)
   127a0:	003f4206 	br	124ac <__gxx_personality_sj0+0x294>
   127a4:	d8800c17 	ldw	r2,48(sp)
   127a8:	103f7e1e 	bne	r2,zero,125a4 <__gxx_personality_sj0+0x38c>
   127ac:	d9801a17 	ldw	r6,104(sp)
   127b0:	d9400917 	ldw	r5,36(sp)
   127b4:	00bfffc4 	movi	r2,-1
   127b8:	d9001d04 	addi	r4,sp,116
   127bc:	d8800e15 	stw	r2,56(sp)
   127c0:	00121080 	call	12108 <_ZL20check_exception_specP16lsda_header_infoPKSt9type_infoPvl>
   127c4:	10803fcc 	andi	r2,r2,255
   127c8:	103f861e 	bne	r2,zero,125e4 <__gxx_personality_sj0+0x3cc>
   127cc:	d8800317 	ldw	r2,12(sp)
   127d0:	1080004c 	andi	r2,r2,1
   127d4:	1000271e 	bne	r2,zero,12874 <__gxx_personality_sj0+0x65c>
   127d8:	d8800a17 	ldw	r2,40(sp)
   127dc:	d8800115 	stw	r2,4(sp)
   127e0:	008000c4 	movi	r2,3
   127e4:	003fe406 	br	12778 <__gxx_personality_sj0+0x560>
   127e8:	d8800717 	ldw	r2,28(sp)
   127ec:	108000a8 	cmpgeui	r2,r2,2
   127f0:	103fda1e 	bne	r2,zero,1275c <__gxx_personality_sj0+0x544>
   127f4:	d8802517 	ldw	r2,148(sp)
   127f8:	d8c00417 	ldw	r3,16(sp)
   127fc:	10fffb15 	stw	r3,-20(r2)
   12800:	d8c00217 	ldw	r3,8(sp)
   12804:	10fffc15 	stw	r3,-16(r2)
   12808:	d8c00517 	ldw	r3,20(sp)
   1280c:	10fffd15 	stw	r3,-12(r2)
   12810:	d8c02517 	ldw	r3,148(sp)
   12814:	d8801a17 	ldw	r2,104(sp)
   12818:	18bfff15 	stw	r2,-4(r3)
   1281c:	1805883a 	mov	r2,r3
   12820:	d8c00117 	ldw	r3,4(sp)
   12824:	10fffe15 	stw	r3,-8(r2)
   12828:	00800184 	movi	r2,6
   1282c:	d8800015 	stw	r2,0(sp)
   12830:	003edb06 	br	123a0 <__gxx_personality_sj0+0x188>
   12834:	d8800717 	ldw	r2,28(sp)
   12838:	108000a8 	cmpgeui	r2,r2,2
   1283c:	103f181e 	bne	r2,zero,124a0 <__gxx_personality_sj0+0x288>
   12840:	d8802517 	ldw	r2,148(sp)
   12844:	10800003 	ldbu	r2,0(r2)
   12848:	1080004c 	andi	r2,r2,1
   1284c:	10000626 	beq	r2,zero,12868 <__gxx_personality_sj0+0x650>
   12850:	d8802517 	ldw	r2,148(sp)
   12854:	10bff517 	ldw	r2,-44(r2)
   12858:	10fff017 	ldw	r3,-64(r2)
   1285c:	d8801a15 	stw	r2,104(sp)
   12860:	d8c00915 	stw	r3,36(sp)
   12864:	003f1106 	br	124ac <__gxx_personality_sj0+0x294>
   12868:	d8802517 	ldw	r2,148(sp)
   1286c:	10800504 	addi	r2,r2,20
   12870:	003ff906 	br	12858 <__gxx_personality_sj0+0x640>
   12874:	d8800a17 	ldw	r2,40(sp)
   12878:	d8800115 	stw	r2,4(sp)
   1287c:	003fdd06 	br	127f4 <__gxx_personality_sj0+0x5dc>
   12880:	00800044 	movi	r2,1
   12884:	d8800e15 	stw	r2,56(sp)
   12888:	0012b180 	call	12b18 <_ZSt10unexpectedv>
   1288c:	d9000f17 	ldw	r4,60(sp)
   12890:	00138180 	call	13818 <__cxa_begin_catch>
   12894:	0012af40 	call	12af4 <_ZSt9terminatev>
   12898:	d8800a17 	ldw	r2,40(sp)
   1289c:	d8800115 	stw	r2,4(sp)
   128a0:	003ead06 	br	12358 <__gxx_personality_sj0+0x140>
   128a4:	00bfffc4 	movi	r2,-1
   128a8:	d8800e15 	stw	r2,56(sp)
   128ac:	00145340 	call	14534 <abort>

000128b0 <__cxa_call_unexpected>:
   128b0:	deffe704 	addi	sp,sp,-100
   128b4:	01400074 	movhi	r5,1
   128b8:	00c00074 	movhi	r3,1
   128bc:	00800074 	movhi	r2,1
   128c0:	29488604 	addi	r5,r5,8728
   128c4:	18dac404 	addi	r3,r3,27408
   128c8:	108a4c04 	addi	r2,r2,10544
   128cc:	d9000015 	stw	r4,0(sp)
   128d0:	d9000404 	addi	r4,sp,16
   128d4:	d9400a15 	stw	r5,40(sp)
   128d8:	d8c00b15 	stw	r3,44(sp)
   128dc:	dfc01815 	stw	ra,96(sp)
   128e0:	d8800d15 	stw	r2,52(sp)
   128e4:	df001715 	stw	fp,92(sp)
   128e8:	df000c15 	stw	fp,48(sp)
   128ec:	dec00e15 	stw	sp,56(sp)
   128f0:	00142280 	call	14228 <_Unwind_SjLj_Register>
   128f4:	d9000017 	ldw	r4,0(sp)
   128f8:	00138180 	call	13818 <__cxa_begin_catch>
   128fc:	d8c00017 	ldw	r3,0(sp)
   12900:	197ffd17 	ldw	r5,-12(r3)
   12904:	18bffe17 	ldw	r2,-8(r3)
   12908:	193ff717 	ldw	r4,-36(r3)
   1290c:	d9400115 	stw	r5,4(sp)
   12910:	197ffb17 	ldw	r5,-20(r3)
   12914:	18fff817 	ldw	r3,-32(r3)
   12918:	d8801315 	stw	r2,76(sp)
   1291c:	00800044 	movi	r2,1
   12920:	d9400015 	stw	r5,0(sp)
   12924:	d8c00215 	stw	r3,8(sp)
   12928:	d8800515 	stw	r2,20(sp)
   1292c:	0012b080 	call	12b08 <_ZN10__cxxabiv112__unexpectedEPFvvE>
   12930:	d8c00617 	ldw	r3,24(sp)
   12934:	d8800517 	ldw	r2,20(sp)
   12938:	d8c00315 	stw	r3,12(sp)
   1293c:	10002b1e 	bne	r2,zero,129ec <__cxa_call_unexpected+0x13c>
   12940:	d9000317 	ldw	r4,12(sp)
   12944:	00138180 	call	13818 <__cxa_begin_catch>
   12948:	0013a100 	call	13a10 <__cxa_get_globals_fast>
   1294c:	10800017 	ldw	r2,0(r2)
   12950:	10c00b03 	ldbu	r3,44(r2)
   12954:	18c0004c 	andi	r3,r3,1
   12958:	18002e26 	beq	r3,zero,12a14 <__cxa_call_unexpected+0x164>
   1295c:	10800017 	ldw	r2,0(r2)
   12960:	d8800315 	stw	r2,12(sp)
   12964:	d9400117 	ldw	r5,4(sp)
   12968:	00800084 	movi	r2,2
   1296c:	d9801104 	addi	r6,sp,68
   12970:	0009883a 	mov	r4,zero
   12974:	d8800515 	stw	r2,20(sp)
   12978:	0011fdc0 	call	11fdc <_ZL17parse_lsda_headerP15_Unwind_ContextPKhP16lsda_header_info>
   1297c:	d9800317 	ldw	r6,12(sp)
   12980:	d9c00017 	ldw	r7,0(sp)
   12984:	d9001104 	addi	r4,sp,68
   12988:	317ff017 	ldw	r5,-64(r6)
   1298c:	00121080 	call	12108 <_ZL20check_exception_specP16lsda_header_infoPKSt9type_infoPvl>
   12990:	10803fcc 	andi	r2,r2,255
   12994:	1000221e 	bne	r2,zero,12a20 <__cxa_call_unexpected+0x170>
   12998:	d9c00017 	ldw	r7,0(sp)
   1299c:	01400074 	movhi	r5,1
   129a0:	00800084 	movi	r2,2
   129a4:	000d883a 	mov	r6,zero
   129a8:	295b7604 	addi	r5,r5,28120
   129ac:	d9001104 	addi	r4,sp,68
   129b0:	d8800515 	stw	r2,20(sp)
   129b4:	00121080 	call	12108 <_ZL20check_exception_specP16lsda_header_infoPKSt9type_infoPvl>
   129b8:	10803fcc 	andi	r2,r2,255
   129bc:	10001926 	beq	r2,zero,12a24 <__cxa_call_unexpected+0x174>
   129c0:	01000104 	movi	r4,4
   129c4:	00136640 	call	13664 <__cxa_allocate_exception>
   129c8:	1009883a 	mov	r4,r2
   129cc:	00800074 	movhi	r2,1
   129d0:	01800074 	movhi	r6,1
   129d4:	01400074 	movhi	r5,1
   129d8:	109b9104 	addi	r2,r2,28228
   129dc:	318e7104 	addi	r6,r6,14788
   129e0:	295b7604 	addi	r5,r5,28120
   129e4:	20800015 	stw	r2,0(r4)
   129e8:	0012c580 	call	12c58 <__cxa_throw>
   129ec:	10bfffc4 	addi	r2,r2,-1
   129f0:	10000126 	beq	r2,zero,129f8 <__cxa_call_unexpected+0x148>
   129f4:	003b68fa 	trap	3
   129f8:	d8000515 	stw	zero,20(sp)
   129fc:	00138d00 	call	138d0 <__cxa_end_catch>
   12a00:	00138d00 	call	138d0 <__cxa_end_catch>
   12a04:	d9000317 	ldw	r4,12(sp)
   12a08:	00bfffc4 	movi	r2,-1
   12a0c:	d8800515 	stw	r2,20(sp)
   12a10:	00144100 	call	14410 <_Unwind_SjLj_Resume>
   12a14:	10801004 	addi	r2,r2,64
   12a18:	d8800315 	stw	r2,12(sp)
   12a1c:	003fd106 	br	12964 <__cxa_call_unexpected+0xb4>
   12a20:	0012cb80 	call	12cb8 <__cxa_rethrow>
   12a24:	d9000217 	ldw	r4,8(sp)
   12a28:	0012a2c0 	call	12a2c <_ZN10__cxxabiv111__terminateEPFvvE>

00012a2c <_ZN10__cxxabiv111__terminateEPFvvE>:
   12a2c:	deffef04 	addi	sp,sp,-68
   12a30:	01400074 	movhi	r5,1
   12a34:	00c00074 	movhi	r3,1
   12a38:	00800074 	movhi	r2,1
   12a3c:	200d883a 	mov	r6,r4
   12a40:	108aa204 	addi	r2,r2,10888
   12a44:	29488604 	addi	r5,r5,8728
   12a48:	18dac804 	addi	r3,r3,27424
   12a4c:	d9000204 	addi	r4,sp,8
   12a50:	d8800b15 	stw	r2,44(sp)
   12a54:	dfc01015 	stw	ra,64(sp)
   12a58:	df000f15 	stw	fp,60(sp)
   12a5c:	d9800015 	stw	r6,0(sp)
   12a60:	d9400815 	stw	r5,32(sp)
   12a64:	d8c00915 	stw	r3,36(sp)
   12a68:	df000a15 	stw	fp,40(sp)
   12a6c:	dec00c15 	stw	sp,48(sp)
   12a70:	00142280 	call	14228 <_Unwind_SjLj_Register>
   12a74:	00800044 	movi	r2,1
   12a78:	d8800315 	stw	r2,12(sp)
   12a7c:	d8800017 	ldw	r2,0(sp)
   12a80:	103ee83a 	callr	r2
   12a84:	00145340 	call	14534 <abort>
   12a88:	d8c00417 	ldw	r3,16(sp)
   12a8c:	d8800317 	ldw	r2,12(sp)
   12a90:	d8c00015 	stw	r3,0(sp)
   12a94:	d8c00517 	ldw	r3,20(sp)
   12a98:	d8c00115 	stw	r3,4(sp)
   12a9c:	1000051e 	bne	r2,zero,12ab4 <_ZN10__cxxabiv111__terminateEPFvvE+0x88>
   12aa0:	d9000017 	ldw	r4,0(sp)
   12aa4:	00138180 	call	13818 <__cxa_begin_catch>
   12aa8:	00800084 	movi	r2,2
   12aac:	d8800315 	stw	r2,12(sp)
   12ab0:	00145340 	call	14534 <abort>
   12ab4:	10bfffc4 	addi	r2,r2,-1
   12ab8:	10000126 	beq	r2,zero,12ac0 <_ZN10__cxxabiv111__terminateEPFvvE+0x94>
   12abc:	003b68fa 	trap	3
   12ac0:	d8000315 	stw	zero,12(sp)
   12ac4:	00138d00 	call	138d0 <__cxa_end_catch>
   12ac8:	d8c00117 	ldw	r3,4(sp)
   12acc:	18bfffe0 	cmpeqi	r2,r3,-1
   12ad0:	10000426 	beq	r2,zero,12ae4 <_ZN10__cxxabiv111__terminateEPFvvE+0xb8>
   12ad4:	d8800117 	ldw	r2,4(sp)
   12ad8:	d9000017 	ldw	r4,0(sp)
   12adc:	d8800315 	stw	r2,12(sp)
   12ae0:	00128b00 	call	128b0 <__cxa_call_unexpected>
   12ae4:	d9000017 	ldw	r4,0(sp)
   12ae8:	00bfffc4 	movi	r2,-1
   12aec:	d8800315 	stw	r2,12(sp)
   12af0:	00144100 	call	14410 <_Unwind_SjLj_Resume>

00012af4 <_ZSt9terminatev>:
   12af4:	00800074 	movhi	r2,1
   12af8:	111dba17 	ldw	r4,30440(r2)
   12afc:	deffff04 	addi	sp,sp,-4
   12b00:	dfc00015 	stw	ra,0(sp)
   12b04:	0012a2c0 	call	12a2c <_ZN10__cxxabiv111__terminateEPFvvE>

00012b08 <_ZN10__cxxabiv112__unexpectedEPFvvE>:
   12b08:	deffff04 	addi	sp,sp,-4
   12b0c:	dfc00015 	stw	ra,0(sp)
   12b10:	203ee83a 	callr	r4
   12b14:	0012af40 	call	12af4 <_ZSt9terminatev>

00012b18 <_ZSt10unexpectedv>:
   12b18:	00800074 	movhi	r2,1
   12b1c:	111db117 	ldw	r4,30404(r2)
   12b20:	deffff04 	addi	sp,sp,-4
   12b24:	dfc00015 	stw	ra,0(sp)
   12b28:	0012b080 	call	12b08 <_ZN10__cxxabiv112__unexpectedEPFvvE>

00012b2c <_ZSt13set_terminatePFvvE>:
   12b2c:	20000526 	beq	r4,zero,12b44 <_ZSt13set_terminatePFvvE+0x18>
   12b30:	00c00074 	movhi	r3,1
   12b34:	00800074 	movhi	r2,1
   12b38:	109dba17 	ldw	r2,30440(r2)
   12b3c:	191dba15 	stw	r4,30440(r3)
   12b40:	f800283a 	ret
   12b44:	01000074 	movhi	r4,1
   12b48:	21114d04 	addi	r4,r4,17716
   12b4c:	003ff806 	br	12b30 <_ZSt13set_terminatePFvvE+0x4>

00012b50 <_ZSt13get_terminatev>:
   12b50:	00800074 	movhi	r2,1
   12b54:	109dba17 	ldw	r2,30440(r2)
   12b58:	f800283a 	ret

00012b5c <_ZSt14set_unexpectedPFvvE>:
   12b5c:	20000526 	beq	r4,zero,12b74 <_ZSt14set_unexpectedPFvvE+0x18>
   12b60:	00c00074 	movhi	r3,1
   12b64:	00800074 	movhi	r2,1
   12b68:	109db117 	ldw	r2,30404(r2)
   12b6c:	191db115 	stw	r4,30404(r3)
   12b70:	f800283a 	ret
   12b74:	01000074 	movhi	r4,1
   12b78:	210abd04 	addi	r4,r4,10996
   12b7c:	003ff806 	br	12b60 <_ZSt14set_unexpectedPFvvE+0x4>

00012b80 <_ZSt14get_unexpectedv>:
   12b80:	00800074 	movhi	r2,1
   12b84:	109db117 	ldw	r2,30404(r2)
   12b88:	f800283a 	ret

00012b8c <_ZL23__gxx_exception_cleanup19_Unwind_Reason_CodeP17_Unwind_Exception>:
   12b8c:	defffe04 	addi	sp,sp,-8
   12b90:	dfc00115 	stw	ra,4(sp)
   12b94:	dc000015 	stw	r16,0(sp)
   12b98:	210000b0 	cmpltui	r4,r4,2
   12b9c:	20001326 	beq	r4,zero,12bec <_ZL23__gxx_exception_cleanup19_Unwind_Reason_CodeP17_Unwind_Exception+0x60>
   12ba0:	28bff417 	ldw	r2,-48(r5)
   12ba4:	10ffffc4 	addi	r3,r2,-1
   12ba8:	28fff415 	stw	r3,-48(r5)
   12bac:	10800058 	cmpnei	r2,r2,1
   12bb0:	10000426 	beq	r2,zero,12bc4 <_ZL23__gxx_exception_cleanup19_Unwind_Reason_CodeP17_Unwind_Exception+0x38>
   12bb4:	dfc00117 	ldw	ra,4(sp)
   12bb8:	dc000017 	ldw	r16,0(sp)
   12bbc:	dec00204 	addi	sp,sp,8
   12bc0:	f800283a 	ret
   12bc4:	28bff617 	ldw	r2,-40(r5)
   12bc8:	2c000504 	addi	r16,r5,20
   12bcc:	10000226 	beq	r2,zero,12bd8 <_ZL23__gxx_exception_cleanup19_Unwind_Reason_CodeP17_Unwind_Exception+0x4c>
   12bd0:	8009883a 	mov	r4,r16
   12bd4:	103ee83a 	callr	r2
   12bd8:	8009883a 	mov	r4,r16
   12bdc:	dfc00117 	ldw	ra,4(sp)
   12be0:	dc000017 	ldw	r16,0(sp)
   12be4:	dec00204 	addi	sp,sp,8
   12be8:	00136bc1 	jmpi	136bc <__cxa_free_exception>
   12bec:	293ff817 	ldw	r4,-32(r5)
   12bf0:	0012a2c0 	call	12a2c <_ZN10__cxxabiv111__terminateEPFvvE>

00012bf4 <__cxa_init_primary_exception>:
   12bf4:	defffe04 	addi	sp,sp,-8
   12bf8:	dfc00115 	stw	ra,4(sp)
   12bfc:	dc000015 	stw	r16,0(sp)
   12c00:	217ff015 	stw	r5,-64(r4)
   12c04:	21bff115 	stw	r6,-60(r4)
   12c08:	203fef15 	stw	zero,-68(r4)
   12c0c:	2021883a 	mov	r16,r4
   12c10:	0012b800 	call	12b80 <_ZSt14get_unexpectedv>
   12c14:	80bff215 	stw	r2,-56(r16)
   12c18:	0012b500 	call	12b50 <_ZSt13get_terminatev>
   12c1c:	0150caf4 	movhi	r5,17195
   12c20:	0111d3b4 	movhi	r4,18254
   12c24:	00c00074 	movhi	r3,1
   12c28:	294ac004 	addi	r5,r5,11008
   12c2c:	211550c4 	addi	r4,r4,21827
   12c30:	18cae304 	addi	r3,r3,11148
   12c34:	80bff315 	stw	r2,-52(r16)
   12c38:	80bfef04 	addi	r2,r16,-68
   12c3c:	817ffb15 	stw	r5,-20(r16)
   12c40:	813ffc15 	stw	r4,-16(r16)
   12c44:	80fffd15 	stw	r3,-12(r16)
   12c48:	dfc00117 	ldw	ra,4(sp)
   12c4c:	dc000017 	ldw	r16,0(sp)
   12c50:	dec00204 	addi	sp,sp,8
   12c54:	f800283a 	ret

00012c58 <__cxa_throw>:
   12c58:	defffc04 	addi	sp,sp,-16
   12c5c:	dfc00315 	stw	ra,12(sp)
   12c60:	dc800215 	stw	r18,8(sp)
   12c64:	dc400115 	stw	r17,4(sp)
   12c68:	dc000015 	stw	r16,0(sp)
   12c6c:	2823883a 	mov	r17,r5
   12c70:	2021883a 	mov	r16,r4
   12c74:	3025883a 	mov	r18,r6
   12c78:	0013a1c0 	call	13a1c <__cxa_get_globals>
   12c7c:	10c00117 	ldw	r3,4(r2)
   12c80:	900d883a 	mov	r6,r18
   12c84:	880b883a 	mov	r5,r17
   12c88:	18c00044 	addi	r3,r3,1
   12c8c:	8009883a 	mov	r4,r16
   12c90:	10c00115 	stw	r3,4(r2)
   12c94:	0012bf40 	call	12bf4 <__cxa_init_primary_exception>
   12c98:	14000c04 	addi	r16,r2,48
   12c9c:	00c00044 	movi	r3,1
   12ca0:	10c00015 	stw	r3,0(r2)
   12ca4:	8009883a 	mov	r4,r16
   12ca8:	00143040 	call	14304 <_Unwind_SjLj_RaiseException>
   12cac:	8009883a 	mov	r4,r16
   12cb0:	00138180 	call	13818 <__cxa_begin_catch>
   12cb4:	0012af40 	call	12af4 <_ZSt9terminatev>

00012cb8 <__cxa_rethrow>:
   12cb8:	defffe04 	addi	sp,sp,-8
   12cbc:	dfc00115 	stw	ra,4(sp)
   12cc0:	dc000015 	stw	r16,0(sp)
   12cc4:	0013a1c0 	call	13a1c <__cxa_get_globals>
   12cc8:	10c00117 	ldw	r3,4(r2)
   12ccc:	11000017 	ldw	r4,0(r2)
   12cd0:	18c00044 	addi	r3,r3,1
   12cd4:	10c00115 	stw	r3,4(r2)
   12cd8:	20001126 	beq	r4,zero,12d20 <__cxa_rethrow+0x68>
   12cdc:	20c00b17 	ldw	r3,44(r4)
   12ce0:	21800c17 	ldw	r6,48(r4)
   12ce4:	016f3574 	movhi	r5,48341
   12ce8:	29754004 	addi	r5,r5,-11008
   12cec:	01ee2cb4 	movhi	r7,47282
   12cf0:	39eaaf04 	addi	r7,r7,-21828
   12cf4:	194b883a 	add	r5,r3,r5
   12cf8:	28c7803a 	cmpltu	r3,r5,r3
   12cfc:	31cd883a 	add	r6,r6,r7
   12d00:	1987883a 	add	r3,r3,r6
   12d04:	18000726 	beq	r3,zero,12d24 <__cxa_rethrow+0x6c>
   12d08:	10000015 	stw	zero,0(r2)
   12d0c:	24000b04 	addi	r16,r4,44
   12d10:	8009883a 	mov	r4,r16
   12d14:	00144540 	call	14454 <_Unwind_SjLj_Resume_or_Rethrow>
   12d18:	8009883a 	mov	r4,r16
   12d1c:	00138180 	call	13818 <__cxa_begin_catch>
   12d20:	0012af40 	call	12af4 <_ZSt9terminatev>
   12d24:	294000a8 	cmpgeui	r5,r5,2
   12d28:	283ff71e 	bne	r5,zero,12d08 <__cxa_rethrow+0x50>
   12d2c:	20800517 	ldw	r2,20(r4)
   12d30:	0085c83a 	sub	r2,zero,r2
   12d34:	20800515 	stw	r2,20(r4)
   12d38:	003ff406 	br	12d0c <__cxa_rethrow+0x54>

00012d3c <_ZNK10__cxxabiv120__function_type_info15__is_function_pEv>:
   12d3c:	00800044 	movi	r2,1
   12d40:	f800283a 	ret

00012d44 <_ZN10__cxxabiv120__function_type_infoD1Ev>:
   12d44:	00800074 	movhi	r2,1
   12d48:	109afb04 	addi	r2,r2,27628
   12d4c:	20800015 	stw	r2,0(r4)
   12d50:	00131481 	jmpi	13148 <_ZNSt9type_infoD1Ev>

00012d54 <_ZN10__cxxabiv120__function_type_infoD0Ev>:
   12d54:	defffe04 	addi	sp,sp,-8
   12d58:	00800074 	movhi	r2,1
   12d5c:	dc000015 	stw	r16,0(sp)
   12d60:	dfc00115 	stw	ra,4(sp)
   12d64:	109afb04 	addi	r2,r2,27628
   12d68:	20800015 	stw	r2,0(r4)
   12d6c:	2021883a 	mov	r16,r4
   12d70:	00131480 	call	13148 <_ZNSt9type_infoD1Ev>
   12d74:	01400204 	movi	r5,8
   12d78:	8009883a 	mov	r4,r16
   12d7c:	dfc00117 	ldw	ra,4(sp)
   12d80:	dc000017 	ldw	r16,0(sp)
   12d84:	dec00204 	addi	sp,sp,8
   12d88:	00134d41 	jmpi	134d4 <_ZdlPvj>

00012d8c <_ZNK10__cxxabiv119__pointer_type_info14__is_pointer_pEv>:
   12d8c:	00800044 	movi	r2,1
   12d90:	f800283a 	ret

00012d94 <_ZN10__cxxabiv119__pointer_type_infoD1Ev>:
   12d94:	00800074 	movhi	r2,1
   12d98:	109b0f04 	addi	r2,r2,27708
   12d9c:	20800015 	stw	r2,0(r4)
   12da0:	0013a881 	jmpi	13a88 <_ZN10__cxxabiv117__pbase_type_infoD1Ev>

00012da4 <_ZN10__cxxabiv119__pointer_type_infoD0Ev>:
   12da4:	defffe04 	addi	sp,sp,-8
   12da8:	00800074 	movhi	r2,1
   12dac:	dc000015 	stw	r16,0(sp)
   12db0:	dfc00115 	stw	ra,4(sp)
   12db4:	109b0f04 	addi	r2,r2,27708
   12db8:	20800015 	stw	r2,0(r4)
   12dbc:	2021883a 	mov	r16,r4
   12dc0:	0013a880 	call	13a88 <_ZN10__cxxabiv117__pbase_type_infoD1Ev>
   12dc4:	01400404 	movi	r5,16
   12dc8:	8009883a 	mov	r4,r16
   12dcc:	dfc00117 	ldw	ra,4(sp)
   12dd0:	dc000017 	ldw	r16,0(sp)
   12dd4:	dec00204 	addi	sp,sp,8
   12dd8:	00134d41 	jmpi	134d4 <_ZdlPvj>

00012ddc <_ZNK10__cxxabiv119__pointer_type_info15__pointer_catchEPKNS_17__pbase_type_infoEPPvj>:
   12ddc:	defffb04 	addi	sp,sp,-20
   12de0:	dc800315 	stw	r18,12(sp)
   12de4:	dc400215 	stw	r17,8(sp)
   12de8:	dfc00415 	stw	ra,16(sp)
   12dec:	388000a8 	cmpgeui	r2,r7,2
   12df0:	24800317 	ldw	r18,12(r4)
   12df4:	2823883a 	mov	r17,r5
   12df8:	10000a26 	beq	r2,zero,12e24 <_ZNK10__cxxabiv119__pointer_type_info15__pointer_catchEPKNS_17__pbase_type_infoEPPvj+0x48>
   12dfc:	90800017 	ldw	r2,0(r18)
   12e00:	89400317 	ldw	r5,12(r17)
   12e04:	39c00084 	addi	r7,r7,2
   12e08:	10800417 	ldw	r2,16(r2)
   12e0c:	9009883a 	mov	r4,r18
   12e10:	dfc00417 	ldw	ra,16(sp)
   12e14:	dc800317 	ldw	r18,12(sp)
   12e18:	dc400217 	ldw	r17,8(sp)
   12e1c:	dec00504 	addi	sp,sp,20
   12e20:	1000683a 	jmp	r2
   12e24:	00800074 	movhi	r2,1
   12e28:	91000117 	ldw	r4,4(r18)
   12e2c:	115e3917 	ldw	r5,30948(r2)
   12e30:	21400926 	beq	r4,r5,12e58 <_ZNK10__cxxabiv119__pointer_type_info15__pointer_catchEPKNS_17__pbase_type_infoEPPvj+0x7c>
   12e34:	20800007 	ldb	r2,0(r4)
   12e38:	10800aa0 	cmpeqi	r2,r2,42
   12e3c:	103fef1e 	bne	r2,zero,12dfc <_ZNK10__cxxabiv119__pointer_type_info15__pointer_catchEPKNS_17__pbase_type_infoEPPvj+0x20>
   12e40:	d9c00115 	stw	r7,4(sp)
   12e44:	d9800015 	stw	r6,0(sp)
   12e48:	0014bdc0 	call	14bdc <strcmp>
   12e4c:	d9800017 	ldw	r6,0(sp)
   12e50:	d9c00117 	ldw	r7,4(sp)
   12e54:	103fe91e 	bne	r2,zero,12dfc <_ZNK10__cxxabiv119__pointer_type_info15__pointer_catchEPKNS_17__pbase_type_infoEPPvj+0x20>
   12e58:	89000317 	ldw	r4,12(r17)
   12e5c:	20800017 	ldw	r2,0(r4)
   12e60:	10800317 	ldw	r2,12(r2)
   12e64:	103ee83a 	callr	r2
   12e68:	1080005c 	xori	r2,r2,1
   12e6c:	dfc00417 	ldw	ra,16(sp)
   12e70:	dc800317 	ldw	r18,12(sp)
   12e74:	dc400217 	ldw	r17,8(sp)
   12e78:	dec00504 	addi	sp,sp,20
   12e7c:	f800283a 	ret

00012e80 <_ZN10__cxxabiv120__si_class_type_infoD1Ev>:
   12e80:	00800074 	movhi	r2,1
   12e84:	109b2504 	addi	r2,r2,27796
   12e88:	20800015 	stw	r2,0(r4)
   12e8c:	00132bc1 	jmpi	132bc <_ZN10__cxxabiv117__class_type_infoD1Ev>

00012e90 <_ZN10__cxxabiv120__si_class_type_infoD0Ev>:
   12e90:	defffe04 	addi	sp,sp,-8
   12e94:	00800074 	movhi	r2,1
   12e98:	dc000015 	stw	r16,0(sp)
   12e9c:	dfc00115 	stw	ra,4(sp)
   12ea0:	109b2504 	addi	r2,r2,27796
   12ea4:	20800015 	stw	r2,0(r4)
   12ea8:	2021883a 	mov	r16,r4
   12eac:	00132bc0 	call	132bc <_ZN10__cxxabiv117__class_type_infoD1Ev>
   12eb0:	01400304 	movi	r5,12
   12eb4:	8009883a 	mov	r4,r16
   12eb8:	dfc00117 	ldw	ra,4(sp)
   12ebc:	dc000017 	ldw	r16,0(sp)
   12ec0:	dec00204 	addi	sp,sp,8
   12ec4:	00134d41 	jmpi	134d4 <_ZdlPvj>

00012ec8 <_ZNK10__cxxabiv120__si_class_type_info12__do_dyncastEiNS_17__class_type_info10__sub_kindEPKS1_PKvS4_S6_RNS1_16__dyncast_resultE>:
   12ec8:	defff504 	addi	sp,sp,-44
   12ecc:	dcc00415 	stw	r19,16(sp)
   12ed0:	38800117 	ldw	r2,4(r7)
   12ed4:	24c00117 	ldw	r19,4(r4)
   12ed8:	df000915 	stw	fp,36(sp)
   12edc:	dd800715 	stw	r22,28(sp)
   12ee0:	dd400615 	stw	r21,24(sp)
   12ee4:	dd000515 	stw	r20,20(sp)
   12ee8:	dc000115 	stw	r16,4(sp)
   12eec:	dfc00a15 	stw	ra,40(sp)
   12ef0:	ddc00815 	stw	r23,32(sp)
   12ef4:	dc800315 	stw	r18,12(sp)
   12ef8:	dc400215 	stw	r17,8(sp)
   12efc:	dd000b17 	ldw	r20,44(sp)
   12f00:	df000c17 	ldw	fp,48(sp)
   12f04:	dd800d17 	ldw	r22,52(sp)
   12f08:	dd400e17 	ldw	r21,56(sp)
   12f0c:	2821883a 	mov	r16,r5
   12f10:	98800b26 	beq	r19,r2,12f40 <_ZNK10__cxxabiv120__si_class_type_info12__do_dyncastEiNS_17__class_type_info10__sub_kindEPKS1_PKvS4_S6_RNS1_16__dyncast_resultE+0x78>
   12f14:	9dc00007 	ldb	r23,0(r19)
   12f18:	2025883a 	mov	r18,r4
   12f1c:	3823883a 	mov	r17,r7
   12f20:	b8c00aa0 	cmpeqi	r3,r23,42
   12f24:	18001a1e 	bne	r3,zero,12f90 <_ZNK10__cxxabiv120__si_class_type_info12__do_dyncastEiNS_17__class_type_info10__sub_kindEPKS1_PKvS4_S6_RNS1_16__dyncast_resultE+0xc8>
   12f28:	100b883a 	mov	r5,r2
   12f2c:	9809883a 	mov	r4,r19
   12f30:	d9800015 	stw	r6,0(sp)
   12f34:	0014bdc0 	call	14bdc <strcmp>
   12f38:	d9800017 	ldw	r6,0(sp)
   12f3c:	1000141e 	bne	r2,zero,12f90 <_ZNK10__cxxabiv120__si_class_type_info12__do_dyncastEiNS_17__class_type_info10__sub_kindEPKS1_PKvS4_S6_RNS1_16__dyncast_resultE+0xc8>
   12f40:	ad000015 	stw	r20,0(r21)
   12f44:	a9800115 	stw	r6,4(r21)
   12f48:	80003416 	blt	r16,zero,1301c <_ZNK10__cxxabiv120__si_class_type_info12__do_dyncastEiNS_17__class_type_info10__sub_kindEPKS1_PKvS4_S6_RNS1_16__dyncast_resultE+0x154>
   12f4c:	a421883a 	add	r16,r20,r16
   12f50:	b4003026 	beq	r22,r16,13014 <_ZNK10__cxxabiv120__si_class_type_info12__do_dyncastEiNS_17__class_type_info10__sub_kindEPKS1_PKvS4_S6_RNS1_16__dyncast_resultE+0x14c>
   12f54:	00800044 	movi	r2,1
   12f58:	a8800315 	stw	r2,12(r21)
   12f5c:	0005883a 	mov	r2,zero
   12f60:	dfc00a17 	ldw	ra,40(sp)
   12f64:	df000917 	ldw	fp,36(sp)
   12f68:	ddc00817 	ldw	r23,32(sp)
   12f6c:	dd800717 	ldw	r22,28(sp)
   12f70:	dd400617 	ldw	r21,24(sp)
   12f74:	dd000517 	ldw	r20,20(sp)
   12f78:	dcc00417 	ldw	r19,16(sp)
   12f7c:	dc800317 	ldw	r18,12(sp)
   12f80:	dc400217 	ldw	r17,8(sp)
   12f84:	dc000117 	ldw	r16,4(sp)
   12f88:	dec00b04 	addi	sp,sp,44
   12f8c:	f800283a 	ret
   12f90:	a5801526 	beq	r20,r22,12fe8 <_ZNK10__cxxabiv120__si_class_type_info12__do_dyncastEiNS_17__class_type_info10__sub_kindEPKS1_PKvS4_S6_RNS1_16__dyncast_resultE+0x120>
   12f94:	91000217 	ldw	r4,8(r18)
   12f98:	880f883a 	mov	r7,r17
   12f9c:	800b883a 	mov	r5,r16
   12fa0:	20800017 	ldw	r2,0(r4)
   12fa4:	dd400e15 	stw	r21,56(sp)
   12fa8:	dd800d15 	stw	r22,52(sp)
   12fac:	df000c15 	stw	fp,48(sp)
   12fb0:	dd000b15 	stw	r20,44(sp)
   12fb4:	10800717 	ldw	r2,28(r2)
   12fb8:	dfc00a17 	ldw	ra,40(sp)
   12fbc:	df000917 	ldw	fp,36(sp)
   12fc0:	ddc00817 	ldw	r23,32(sp)
   12fc4:	dd800717 	ldw	r22,28(sp)
   12fc8:	dd400617 	ldw	r21,24(sp)
   12fcc:	dd000517 	ldw	r20,20(sp)
   12fd0:	dcc00417 	ldw	r19,16(sp)
   12fd4:	dc800317 	ldw	r18,12(sp)
   12fd8:	dc400217 	ldw	r17,8(sp)
   12fdc:	dc000117 	ldw	r16,4(sp)
   12fe0:	dec00b04 	addi	sp,sp,44
   12fe4:	1000683a 	jmp	r2
   12fe8:	e1400117 	ldw	r5,4(fp)
   12fec:	99400726 	beq	r19,r5,1300c <_ZNK10__cxxabiv120__si_class_type_info12__do_dyncastEiNS_17__class_type_info10__sub_kindEPKS1_PKvS4_S6_RNS1_16__dyncast_resultE+0x144>
   12ff0:	bdc00aa0 	cmpeqi	r23,r23,42
   12ff4:	b83fe71e 	bne	r23,zero,12f94 <_ZNK10__cxxabiv120__si_class_type_info12__do_dyncastEiNS_17__class_type_info10__sub_kindEPKS1_PKvS4_S6_RNS1_16__dyncast_resultE+0xcc>
   12ff8:	9809883a 	mov	r4,r19
   12ffc:	d9800015 	stw	r6,0(sp)
   13000:	0014bdc0 	call	14bdc <strcmp>
   13004:	d9800017 	ldw	r6,0(sp)
   13008:	103fe21e 	bne	r2,zero,12f94 <_ZNK10__cxxabiv120__si_class_type_info12__do_dyncastEiNS_17__class_type_info10__sub_kindEPKS1_PKvS4_S6_RNS1_16__dyncast_resultE+0xcc>
   1300c:	a9800215 	stw	r6,8(r21)
   13010:	003fd206 	br	12f5c <_ZNK10__cxxabiv120__si_class_type_info12__do_dyncastEiNS_17__class_type_info10__sub_kindEPKS1_PKvS4_S6_RNS1_16__dyncast_resultE+0x94>
   13014:	00800184 	movi	r2,6
   13018:	003fcf06 	br	12f58 <_ZNK10__cxxabiv120__si_class_type_info12__do_dyncastEiNS_17__class_type_info10__sub_kindEPKS1_PKvS4_S6_RNS1_16__dyncast_resultE+0x90>
   1301c:	843fff98 	cmpnei	r16,r16,-2
   13020:	803fce1e 	bne	r16,zero,12f5c <_ZNK10__cxxabiv120__si_class_type_info12__do_dyncastEiNS_17__class_type_info10__sub_kindEPKS1_PKvS4_S6_RNS1_16__dyncast_resultE+0x94>
   13024:	003fcb06 	br	12f54 <_ZNK10__cxxabiv120__si_class_type_info12__do_dyncastEiNS_17__class_type_info10__sub_kindEPKS1_PKvS4_S6_RNS1_16__dyncast_resultE+0x8c>

00013028 <_ZNK10__cxxabiv120__si_class_type_info20__do_find_public_srcEiPKvPKNS_17__class_type_infoES2_>:
   13028:	defffa04 	addi	sp,sp,-24
   1302c:	dc800415 	stw	r18,16(sp)
   13030:	dc800617 	ldw	r18,24(sp)
   13034:	dc400315 	stw	r17,12(sp)
   13038:	dc000215 	stw	r16,8(sp)
   1303c:	dfc00515 	stw	ra,20(sp)
   13040:	2021883a 	mov	r16,r4
   13044:	2823883a 	mov	r17,r5
   13048:	91800b26 	beq	r18,r6,13078 <_ZNK10__cxxabiv120__si_class_type_info20__do_find_public_srcEiPKvPKNS_17__class_type_infoES2_+0x50>
   1304c:	81000217 	ldw	r4,8(r16)
   13050:	880b883a 	mov	r5,r17
   13054:	20800017 	ldw	r2,0(r4)
   13058:	dc800615 	stw	r18,24(sp)
   1305c:	10800817 	ldw	r2,32(r2)
   13060:	dfc00517 	ldw	ra,20(sp)
   13064:	dc800417 	ldw	r18,16(sp)
   13068:	dc400317 	ldw	r17,12(sp)
   1306c:	dc000217 	ldw	r16,8(sp)
   13070:	dec00604 	addi	sp,sp,24
   13074:	1000683a 	jmp	r2
   13078:	21000117 	ldw	r4,4(r4)
   1307c:	39400117 	ldw	r5,4(r7)
   13080:	21400926 	beq	r4,r5,130a8 <_ZNK10__cxxabiv120__si_class_type_info20__do_find_public_srcEiPKvPKNS_17__class_type_infoES2_+0x80>
   13084:	20800007 	ldb	r2,0(r4)
   13088:	10800aa0 	cmpeqi	r2,r2,42
   1308c:	103fef1e 	bne	r2,zero,1304c <_ZNK10__cxxabiv120__si_class_type_info20__do_find_public_srcEiPKvPKNS_17__class_type_infoES2_+0x24>
   13090:	d9c00115 	stw	r7,4(sp)
   13094:	d9800015 	stw	r6,0(sp)
   13098:	0014bdc0 	call	14bdc <strcmp>
   1309c:	d9800017 	ldw	r6,0(sp)
   130a0:	d9c00117 	ldw	r7,4(sp)
   130a4:	103fe91e 	bne	r2,zero,1304c <_ZNK10__cxxabiv120__si_class_type_info20__do_find_public_srcEiPKvPKNS_17__class_type_infoES2_+0x24>
   130a8:	00800184 	movi	r2,6
   130ac:	dfc00517 	ldw	ra,20(sp)
   130b0:	dc800417 	ldw	r18,16(sp)
   130b4:	dc400317 	ldw	r17,12(sp)
   130b8:	dc000217 	ldw	r16,8(sp)
   130bc:	dec00604 	addi	sp,sp,24
   130c0:	f800283a 	ret

000130c4 <_ZNK10__cxxabiv120__si_class_type_info11__do_upcastEPKNS_17__class_type_infoEPKvRNS1_15__upcast_resultE>:
   130c4:	defffb04 	addi	sp,sp,-20
   130c8:	dcc00315 	stw	r19,12(sp)
   130cc:	dc800215 	stw	r18,8(sp)
   130d0:	dc400115 	stw	r17,4(sp)
   130d4:	dc000015 	stw	r16,0(sp)
   130d8:	dfc00415 	stw	ra,16(sp)
   130dc:	2025883a 	mov	r18,r4
   130e0:	2827883a 	mov	r19,r5
   130e4:	3021883a 	mov	r16,r6
   130e8:	3823883a 	mov	r17,r7
   130ec:	00133040 	call	13304 <_ZNK10__cxxabiv117__class_type_info11__do_upcastEPKS0_PKvRNS0_15__upcast_resultE>
   130f0:	10c03fcc 	andi	r3,r2,255
   130f4:	18000d1e 	bne	r3,zero,1312c <_ZNK10__cxxabiv120__si_class_type_info11__do_upcastEPKNS_17__class_type_infoEPKvRNS1_15__upcast_resultE+0x68>
   130f8:	91000217 	ldw	r4,8(r18)
   130fc:	880f883a 	mov	r7,r17
   13100:	800d883a 	mov	r6,r16
   13104:	20800017 	ldw	r2,0(r4)
   13108:	980b883a 	mov	r5,r19
   1310c:	10800617 	ldw	r2,24(r2)
   13110:	dfc00417 	ldw	ra,16(sp)
   13114:	dcc00317 	ldw	r19,12(sp)
   13118:	dc800217 	ldw	r18,8(sp)
   1311c:	dc400117 	ldw	r17,4(sp)
   13120:	dc000017 	ldw	r16,0(sp)
   13124:	dec00504 	addi	sp,sp,20
   13128:	1000683a 	jmp	r2
   1312c:	dfc00417 	ldw	ra,16(sp)
   13130:	dcc00317 	ldw	r19,12(sp)
   13134:	dc800217 	ldw	r18,8(sp)
   13138:	dc400117 	ldw	r17,4(sp)
   1313c:	dc000017 	ldw	r16,0(sp)
   13140:	dec00504 	addi	sp,sp,20
   13144:	f800283a 	ret

00013148 <_ZNSt9type_infoD1Ev>:
   13148:	f800283a 	ret

0001314c <_ZNKSt9type_info14__is_pointer_pEv>:
   1314c:	0005883a 	mov	r2,zero
   13150:	f800283a 	ret

00013154 <_ZNKSt9type_info11__do_upcastEPKN10__cxxabiv117__class_type_infoEPPv>:
   13154:	0005883a 	mov	r2,zero
   13158:	f800283a 	ret

0001315c <_ZNSt9type_infoD0Ev>:
   1315c:	01400204 	movi	r5,8
   13160:	00134d41 	jmpi	134d4 <_ZdlPvj>

00013164 <_ZNKSt9type_info10__do_catchEPKS_PPvj>:
   13164:	21000117 	ldw	r4,4(r4)
   13168:	29400117 	ldw	r5,4(r5)
   1316c:	21400c26 	beq	r4,r5,131a0 <_ZNKSt9type_info10__do_catchEPKS_PPvj+0x3c>
   13170:	20800007 	ldb	r2,0(r4)
   13174:	10800aa0 	cmpeqi	r2,r2,42
   13178:	1000071e 	bne	r2,zero,13198 <_ZNKSt9type_info10__do_catchEPKS_PPvj+0x34>
   1317c:	deffff04 	addi	sp,sp,-4
   13180:	dfc00015 	stw	ra,0(sp)
   13184:	0014bdc0 	call	14bdc <strcmp>
   13188:	1005003a 	cmpeq	r2,r2,zero
   1318c:	dfc00017 	ldw	ra,0(sp)
   13190:	dec00104 	addi	sp,sp,4
   13194:	f800283a 	ret
   13198:	0005883a 	mov	r2,zero
   1319c:	f800283a 	ret
   131a0:	00800044 	movi	r2,1
   131a4:	f800283a 	ret

000131a8 <_ZNKSt17bad_function_call4whatEv>:
   131a8:	00800074 	movhi	r2,1
   131ac:	109b3a04 	addi	r2,r2,27880
   131b0:	f800283a 	ret

000131b4 <_ZNSt17bad_function_callD1Ev>:
   131b4:	00800074 	movhi	r2,1
   131b8:	109b4a04 	addi	r2,r2,27944
   131bc:	20800015 	stw	r2,0(r4)
   131c0:	00139c01 	jmpi	139c0 <_ZNSt9exceptionD1Ev>

000131c4 <_ZNSt17bad_function_callD0Ev>:
   131c4:	defffe04 	addi	sp,sp,-8
   131c8:	00800074 	movhi	r2,1
   131cc:	dc000015 	stw	r16,0(sp)
   131d0:	dfc00115 	stw	ra,4(sp)
   131d4:	109b4a04 	addi	r2,r2,27944
   131d8:	20800015 	stw	r2,0(r4)
   131dc:	2021883a 	mov	r16,r4
   131e0:	00139c00 	call	139c0 <_ZNSt9exceptionD1Ev>
   131e4:	8009883a 	mov	r4,r16
   131e8:	dfc00117 	ldw	ra,4(sp)
   131ec:	dc000017 	ldw	r16,0(sp)
   131f0:	dec00204 	addi	sp,sp,8
   131f4:	00134d01 	jmpi	134d0 <_ZdlPv>

000131f8 <_ZSt25__throw_bad_function_callv>:
   131f8:	deffff04 	addi	sp,sp,-4
   131fc:	01000104 	movi	r4,4
   13200:	dfc00015 	stw	ra,0(sp)
   13204:	00136640 	call	13664 <__cxa_allocate_exception>
   13208:	1009883a 	mov	r4,r2
   1320c:	00800074 	movhi	r2,1
   13210:	01800074 	movhi	r6,1
   13214:	01400074 	movhi	r5,1
   13218:	109b4a04 	addi	r2,r2,27944
   1321c:	318c6d04 	addi	r6,r6,12724
   13220:	295b4504 	addi	r5,r5,27924
   13224:	20800015 	stw	r2,0(r4)
   13228:	0012c580 	call	12c58 <__cxa_throw>

0001322c <_ZNK10__cxxabiv117__class_type_info11__do_upcastEPKS0_PPv>:
   1322c:	20800017 	ldw	r2,0(r4)
   13230:	defffa04 	addi	sp,sp,-24
   13234:	dc000415 	stw	r16,16(sp)
   13238:	10800617 	ldw	r2,24(r2)
   1323c:	3021883a 	mov	r16,r6
   13240:	31800017 	ldw	r6,0(r6)
   13244:	00c00404 	movi	r3,16
   13248:	dfc00515 	stw	ra,20(sp)
   1324c:	d8000015 	stw	zero,0(sp)
   13250:	d8000115 	stw	zero,4(sp)
   13254:	d8c00215 	stw	r3,8(sp)
   13258:	d8000315 	stw	zero,12(sp)
   1325c:	d80f883a 	mov	r7,sp
   13260:	103ee83a 	callr	r2
   13264:	d8800117 	ldw	r2,4(sp)
   13268:	1080018c 	andi	r2,r2,6
   1326c:	10800198 	cmpnei	r2,r2,6
   13270:	1000071e 	bne	r2,zero,13290 <_ZNK10__cxxabiv117__class_type_info11__do_upcastEPKS0_PPv+0x64>
   13274:	d8c00017 	ldw	r3,0(sp)
   13278:	00800044 	movi	r2,1
   1327c:	80c00015 	stw	r3,0(r16)
   13280:	dfc00517 	ldw	ra,20(sp)
   13284:	dc000417 	ldw	r16,16(sp)
   13288:	dec00604 	addi	sp,sp,24
   1328c:	f800283a 	ret
   13290:	0005883a 	mov	r2,zero
   13294:	dfc00517 	ldw	ra,20(sp)
   13298:	dc000417 	ldw	r16,16(sp)
   1329c:	dec00604 	addi	sp,sp,24
   132a0:	f800283a 	ret

000132a4 <_ZNK10__cxxabiv117__class_type_info20__do_find_public_srcEiPKvPKS0_S2_>:
   132a4:	d8c00017 	ldw	r3,0(sp)
   132a8:	00800044 	movi	r2,1
   132ac:	19800126 	beq	r3,r6,132b4 <_ZNK10__cxxabiv117__class_type_info20__do_find_public_srcEiPKvPKS0_S2_+0x10>
   132b0:	f800283a 	ret
   132b4:	00800184 	movi	r2,6
   132b8:	f800283a 	ret

000132bc <_ZN10__cxxabiv117__class_type_infoD1Ev>:
   132bc:	00800074 	movhi	r2,1
   132c0:	109b5b04 	addi	r2,r2,28012
   132c4:	20800015 	stw	r2,0(r4)
   132c8:	00131481 	jmpi	13148 <_ZNSt9type_infoD1Ev>

000132cc <_ZN10__cxxabiv117__class_type_infoD0Ev>:
   132cc:	defffe04 	addi	sp,sp,-8
   132d0:	00800074 	movhi	r2,1
   132d4:	dc000015 	stw	r16,0(sp)
   132d8:	dfc00115 	stw	ra,4(sp)
   132dc:	109b5b04 	addi	r2,r2,28012
   132e0:	20800015 	stw	r2,0(r4)
   132e4:	2021883a 	mov	r16,r4
   132e8:	00131480 	call	13148 <_ZNSt9type_infoD1Ev>
   132ec:	01400204 	movi	r5,8
   132f0:	8009883a 	mov	r4,r16
   132f4:	dfc00117 	ldw	ra,4(sp)
   132f8:	dc000017 	ldw	r16,0(sp)
   132fc:	dec00204 	addi	sp,sp,8
   13300:	00134d41 	jmpi	134d4 <_ZdlPvj>

00013304 <_ZNK10__cxxabiv117__class_type_info11__do_upcastEPKS0_PKvRNS0_15__upcast_resultE>:
   13304:	21000117 	ldw	r4,4(r4)
   13308:	29400117 	ldw	r5,4(r5)
   1330c:	defffd04 	addi	sp,sp,-12
   13310:	dc400115 	stw	r17,4(sp)
   13314:	dc000015 	stw	r16,0(sp)
   13318:	dfc00215 	stw	ra,8(sp)
   1331c:	3023883a 	mov	r17,r6
   13320:	3821883a 	mov	r16,r7
   13324:	21400526 	beq	r4,r5,1333c <_ZNK10__cxxabiv117__class_type_info11__do_upcastEPKS0_PKvRNS0_15__upcast_resultE+0x38>
   13328:	20800007 	ldb	r2,0(r4)
   1332c:	10800aa0 	cmpeqi	r2,r2,42
   13330:	10000d1e 	bne	r2,zero,13368 <_ZNK10__cxxabiv117__class_type_info11__do_upcastEPKS0_PKvRNS0_15__upcast_resultE+0x64>
   13334:	0014bdc0 	call	14bdc <strcmp>
   13338:	10000b1e 	bne	r2,zero,13368 <_ZNK10__cxxabiv117__class_type_info11__do_upcastEPKS0_PKvRNS0_15__upcast_resultE+0x64>
   1333c:	00800204 	movi	r2,8
   13340:	80800315 	stw	r2,12(r16)
   13344:	00800184 	movi	r2,6
   13348:	80800115 	stw	r2,4(r16)
   1334c:	84400015 	stw	r17,0(r16)
   13350:	00800044 	movi	r2,1
   13354:	dfc00217 	ldw	ra,8(sp)
   13358:	dc400117 	ldw	r17,4(sp)
   1335c:	dc000017 	ldw	r16,0(sp)
   13360:	dec00304 	addi	sp,sp,12
   13364:	f800283a 	ret
   13368:	0005883a 	mov	r2,zero
   1336c:	003ff906 	br	13354 <_ZNK10__cxxabiv117__class_type_info11__do_upcastEPKS0_PKvRNS0_15__upcast_resultE+0x50>

00013370 <_ZNK10__cxxabiv117__class_type_info10__do_catchEPKSt9type_infoPPvj>:
   13370:	defffb04 	addi	sp,sp,-20
   13374:	dc800315 	stw	r18,12(sp)
   13378:	dc400215 	stw	r17,8(sp)
   1337c:	2025883a 	mov	r18,r4
   13380:	2823883a 	mov	r17,r5
   13384:	21000117 	ldw	r4,4(r4)
   13388:	29400117 	ldw	r5,4(r5)
   1338c:	dfc00415 	stw	ra,16(sp)
   13390:	dc000115 	stw	r16,4(sp)
   13394:	21400826 	beq	r4,r5,133b8 <_ZNK10__cxxabiv117__class_type_info10__do_catchEPKSt9type_infoPPvj+0x48>
   13398:	20800007 	ldb	r2,0(r4)
   1339c:	3821883a 	mov	r16,r7
   133a0:	10800aa0 	cmpeqi	r2,r2,42
   133a4:	10000b1e 	bne	r2,zero,133d4 <_ZNK10__cxxabiv117__class_type_info10__do_catchEPKSt9type_infoPPvj+0x64>
   133a8:	d9800015 	stw	r6,0(sp)
   133ac:	0014bdc0 	call	14bdc <strcmp>
   133b0:	d9800017 	ldw	r6,0(sp)
   133b4:	1000071e 	bne	r2,zero,133d4 <_ZNK10__cxxabiv117__class_type_info10__do_catchEPKSt9type_infoPPvj+0x64>
   133b8:	00800044 	movi	r2,1
   133bc:	dfc00417 	ldw	ra,16(sp)
   133c0:	dc800317 	ldw	r18,12(sp)
   133c4:	dc400217 	ldw	r17,8(sp)
   133c8:	dc000117 	ldw	r16,4(sp)
   133cc:	dec00504 	addi	sp,sp,20
   133d0:	f800283a 	ret
   133d4:	81c00128 	cmpgeui	r7,r16,4
   133d8:	38000a1e 	bne	r7,zero,13404 <_ZNK10__cxxabiv117__class_type_info10__do_catchEPKSt9type_infoPPvj+0x94>
   133dc:	88800017 	ldw	r2,0(r17)
   133e0:	900b883a 	mov	r5,r18
   133e4:	8809883a 	mov	r4,r17
   133e8:	10800517 	ldw	r2,20(r2)
   133ec:	dfc00417 	ldw	ra,16(sp)
   133f0:	dc800317 	ldw	r18,12(sp)
   133f4:	dc400217 	ldw	r17,8(sp)
   133f8:	dc000117 	ldw	r16,4(sp)
   133fc:	dec00504 	addi	sp,sp,20
   13400:	1000683a 	jmp	r2
   13404:	0005883a 	mov	r2,zero
   13408:	003fec06 	br	133bc <_ZNK10__cxxabiv117__class_type_info10__do_catchEPKSt9type_infoPPvj+0x4c>

0001340c <_ZNK10__cxxabiv117__class_type_info12__do_dyncastEiNS0_10__sub_kindEPKS0_PKvS3_S5_RNS0_16__dyncast_resultE>:
   1340c:	defffa04 	addi	sp,sp,-24
   13410:	dc400315 	stw	r17,12(sp)
   13414:	d8800817 	ldw	r2,32(sp)
   13418:	dc400617 	ldw	r17,24(sp)
   1341c:	dc800415 	stw	r18,16(sp)
   13420:	dc000215 	stw	r16,8(sp)
   13424:	dfc00515 	stw	ra,20(sp)
   13428:	dc800917 	ldw	r18,36(sp)
   1342c:	21000117 	ldw	r4,4(r4)
   13430:	3021883a 	mov	r16,r6
   13434:	88801226 	beq	r17,r2,13480 <_ZNK10__cxxabiv117__class_type_info12__do_dyncastEiNS0_10__sub_kindEPKS0_PKvS3_S5_RNS0_16__dyncast_resultE+0x74>
   13438:	39400117 	ldw	r5,4(r7)
   1343c:	21400526 	beq	r4,r5,13454 <_ZNK10__cxxabiv117__class_type_info12__do_dyncastEiNS0_10__sub_kindEPKS0_PKvS3_S5_RNS0_16__dyncast_resultE+0x48>
   13440:	20800007 	ldb	r2,0(r4)
   13444:	10800aa0 	cmpeqi	r2,r2,42
   13448:	1000061e 	bne	r2,zero,13464 <_ZNK10__cxxabiv117__class_type_info12__do_dyncastEiNS0_10__sub_kindEPKS0_PKvS3_S5_RNS0_16__dyncast_resultE+0x58>
   1344c:	0014bdc0 	call	14bdc <strcmp>
   13450:	1000041e 	bne	r2,zero,13464 <_ZNK10__cxxabiv117__class_type_info12__do_dyncastEiNS0_10__sub_kindEPKS0_PKvS3_S5_RNS0_16__dyncast_resultE+0x58>
   13454:	00800044 	movi	r2,1
   13458:	94400015 	stw	r17,0(r18)
   1345c:	94000115 	stw	r16,4(r18)
   13460:	90800315 	stw	r2,12(r18)
   13464:	0005883a 	mov	r2,zero
   13468:	dfc00517 	ldw	ra,20(sp)
   1346c:	dc800417 	ldw	r18,16(sp)
   13470:	dc400317 	ldw	r17,12(sp)
   13474:	dc000217 	ldw	r16,8(sp)
   13478:	dec00604 	addi	sp,sp,24
   1347c:	f800283a 	ret
   13480:	d8800717 	ldw	r2,28(sp)
   13484:	11400117 	ldw	r5,4(r2)
   13488:	21400f26 	beq	r4,r5,134c8 <_ZNK10__cxxabiv117__class_type_info12__do_dyncastEiNS0_10__sub_kindEPKS0_PKvS3_S5_RNS0_16__dyncast_resultE+0xbc>
   1348c:	20800007 	ldb	r2,0(r4)
   13490:	10800aa0 	cmpeqi	r2,r2,42
   13494:	1000091e 	bne	r2,zero,134bc <_ZNK10__cxxabiv117__class_type_info12__do_dyncastEiNS0_10__sub_kindEPKS0_PKvS3_S5_RNS0_16__dyncast_resultE+0xb0>
   13498:	d9c00115 	stw	r7,4(sp)
   1349c:	d9000015 	stw	r4,0(sp)
   134a0:	0014bdc0 	call	14bdc <strcmp>
   134a4:	d9000017 	ldw	r4,0(sp)
   134a8:	d9c00117 	ldw	r7,4(sp)
   134ac:	10000626 	beq	r2,zero,134c8 <_ZNK10__cxxabiv117__class_type_info12__do_dyncastEiNS0_10__sub_kindEPKS0_PKvS3_S5_RNS0_16__dyncast_resultE+0xbc>
   134b0:	39400117 	ldw	r5,4(r7)
   134b4:	217fe51e 	bne	r4,r5,1344c <_ZNK10__cxxabiv117__class_type_info12__do_dyncastEiNS0_10__sub_kindEPKS0_PKvS3_S5_RNS0_16__dyncast_resultE+0x40>
   134b8:	003fe606 	br	13454 <_ZNK10__cxxabiv117__class_type_info12__do_dyncastEiNS0_10__sub_kindEPKS0_PKvS3_S5_RNS0_16__dyncast_resultE+0x48>
   134bc:	38800117 	ldw	r2,4(r7)
   134c0:	20bfe81e 	bne	r4,r2,13464 <_ZNK10__cxxabiv117__class_type_info12__do_dyncastEiNS0_10__sub_kindEPKS0_PKvS3_S5_RNS0_16__dyncast_resultE+0x58>
   134c4:	003fe306 	br	13454 <_ZNK10__cxxabiv117__class_type_info12__do_dyncastEiNS0_10__sub_kindEPKS0_PKvS3_S5_RNS0_16__dyncast_resultE+0x48>
   134c8:	94000215 	stw	r16,8(r18)
   134cc:	003fe506 	br	13464 <_ZNK10__cxxabiv117__class_type_info12__do_dyncastEiNS0_10__sub_kindEPKS0_PKvS3_S5_RNS0_16__dyncast_resultE+0x58>

000134d0 <_ZdlPv>:
   134d0:	001455c1 	jmpi	1455c <free>

000134d4 <_ZdlPvj>:
   134d4:	00134d01 	jmpi	134d0 <_ZdlPv>

000134d8 <_ZN12_GLOBAL__N_14pool4freeEPv.constprop.0>:
   134d8:	01400074 	movhi	r5,1
   134dc:	295fbc04 	addi	r5,r5,32496
   134e0:	28c00117 	ldw	r3,4(r5)
   134e4:	223fff04 	addi	r8,r4,-4
   134e8:	18001a26 	beq	r3,zero,13554 <_ZN12_GLOBAL__N_14pool4freeEPv.constprop.0+0x7c>
   134ec:	227fff17 	ldw	r9,-4(r4)
   134f0:	424d883a 	add	r6,r8,r9
   134f4:	30c01736 	bltu	r6,r3,13554 <_ZN12_GLOBAL__N_14pool4freeEPv.constprop.0+0x7c>
   134f8:	18800117 	ldw	r2,4(r3)
   134fc:	19802326 	beq	r3,r6,1358c <_ZN12_GLOBAL__N_14pool4freeEPv.constprop.0+0xb4>
   13500:	01c00074 	movhi	r7,1
   13504:	39dfbd04 	addi	r7,r7,32500
   13508:	10000726 	beq	r2,zero,13528 <_ZN12_GLOBAL__N_14pool4freeEPv.constprop.0+0x50>
   1350c:	3080062e 	bgeu	r6,r2,13528 <_ZN12_GLOBAL__N_14pool4freeEPv.constprop.0+0x50>
   13510:	11400117 	ldw	r5,4(r2)
   13514:	19c00104 	addi	r7,r3,4
   13518:	1007883a 	mov	r3,r2
   1351c:	28001826 	beq	r5,zero,13580 <_ZN12_GLOBAL__N_14pool4freeEPv.constprop.0+0xa8>
   13520:	2805883a 	mov	r2,r5
   13524:	30bffa36 	bltu	r6,r2,13510 <_ZN12_GLOBAL__N_14pool4freeEPv.constprop.0+0x38>
   13528:	30801026 	beq	r6,r2,1356c <_ZN12_GLOBAL__N_14pool4freeEPv.constprop.0+0x94>
   1352c:	38800017 	ldw	r2,0(r7)
   13530:	10c00017 	ldw	r3,0(r2)
   13534:	10cb883a 	add	r5,r2,r3
   13538:	41400926 	beq	r8,r5,13560 <_ZN12_GLOBAL__N_14pool4freeEPv.constprop.0+0x88>
   1353c:	10800117 	ldw	r2,4(r2)
   13540:	227fff15 	stw	r9,-4(r4)
   13544:	20800015 	stw	r2,0(r4)
   13548:	38800017 	ldw	r2,0(r7)
   1354c:	12000115 	stw	r8,4(r2)
   13550:	f800283a 	ret
   13554:	20c00015 	stw	r3,0(r4)
   13558:	2a000115 	stw	r8,4(r5)
   1355c:	f800283a 	ret
   13560:	1a47883a 	add	r3,r3,r9
   13564:	10c00015 	stw	r3,0(r2)
   13568:	f800283a 	ret
   1356c:	31400017 	ldw	r5,0(r6)
   13570:	30800117 	ldw	r2,4(r6)
   13574:	4953883a 	add	r9,r9,r5
   13578:	18800115 	stw	r2,4(r3)
   1357c:	003feb06 	br	1352c <_ZN12_GLOBAL__N_14pool4freeEPv.constprop.0+0x54>
   13580:	0005883a 	mov	r2,zero
   13584:	30bfe91e 	bne	r6,r2,1352c <_ZN12_GLOBAL__N_14pool4freeEPv.constprop.0+0x54>
   13588:	003ff806 	br	1356c <_ZN12_GLOBAL__N_14pool4freeEPv.constprop.0+0x94>
   1358c:	18c00017 	ldw	r3,0(r3)
   13590:	20800015 	stw	r2,0(r4)
   13594:	1a53883a 	add	r9,r3,r9
   13598:	227fff15 	stw	r9,-4(r4)
   1359c:	2a000115 	stw	r8,4(r5)
   135a0:	f800283a 	ret

000135a4 <_ZN12_GLOBAL__N_14pool8allocateEj.constprop.0>:
   135a4:	21000104 	addi	r4,r4,4
   135a8:	20800228 	cmpgeui	r2,r4,8
   135ac:	1000011e 	bne	r2,zero,135b4 <_ZN12_GLOBAL__N_14pool8allocateEj.constprop.0+0x10>
   135b0:	01000204 	movi	r4,8
   135b4:	00800074 	movhi	r2,1
   135b8:	109fbd17 	ldw	r2,32500(r2)
   135bc:	210000c4 	addi	r4,r4,3
   135c0:	00ffff04 	movi	r3,-4
   135c4:	20c8703a 	and	r4,r4,r3
   135c8:	10001026 	beq	r2,zero,1360c <_ZN12_GLOBAL__N_14pool8allocateEj.constprop.0+0x68>
   135cc:	01800074 	movhi	r6,1
   135d0:	319fbd04 	addi	r6,r6,32500
   135d4:	00000206 	br	135e0 <_ZN12_GLOBAL__N_14pool8allocateEj.constprop.0+0x3c>
   135d8:	19800104 	addi	r6,r3,4
   135dc:	10001426 	beq	r2,zero,13630 <_ZN12_GLOBAL__N_14pool8allocateEj.constprop.0+0x8c>
   135e0:	11400017 	ldw	r5,0(r2)
   135e4:	1007883a 	mov	r3,r2
   135e8:	10800117 	ldw	r2,4(r2)
   135ec:	293ffa36 	bltu	r5,r4,135d8 <_ZN12_GLOBAL__N_14pool8allocateEj.constprop.0+0x34>
   135f0:	290fc83a 	sub	r7,r5,r4
   135f4:	3a000228 	cmpgeui	r8,r7,8
   135f8:	4000051e 	bne	r8,zero,13610 <_ZN12_GLOBAL__N_14pool8allocateEj.constprop.0+0x6c>
   135fc:	19400015 	stw	r5,0(r3)
   13600:	30800015 	stw	r2,0(r6)
   13604:	18800104 	addi	r2,r3,4
   13608:	f800283a 	ret
   1360c:	f800283a 	ret
   13610:	190b883a 	add	r5,r3,r4
   13614:	28800115 	stw	r2,4(r5)
   13618:	30c00017 	ldw	r3,0(r6)
   1361c:	29c00015 	stw	r7,0(r5)
   13620:	19000015 	stw	r4,0(r3)
   13624:	31400015 	stw	r5,0(r6)
   13628:	18800104 	addi	r2,r3,4
   1362c:	f800283a 	ret
   13630:	f800283a 	ret

00013634 <_ZN9__gnu_cxx9__freeresEv>:
   13634:	00800074 	movhi	r2,1
   13638:	111fbe17 	ldw	r4,32504(r2)
   1363c:	20000826 	beq	r4,zero,13660 <_ZN9__gnu_cxx9__freeresEv+0x2c>
   13640:	deffff04 	addi	sp,sp,-4
   13644:	dfc00015 	stw	ra,0(sp)
   13648:	001455c0 	call	1455c <free>
   1364c:	00800074 	movhi	r2,1
   13650:	101fbe15 	stw	zero,32504(r2)
   13654:	dfc00017 	ldw	ra,0(sp)
   13658:	dec00104 	addi	sp,sp,4
   1365c:	f800283a 	ret
   13660:	f800283a 	ret

00013664 <__cxa_allocate_exception>:
   13664:	defffe04 	addi	sp,sp,-8
   13668:	dc000015 	stw	r16,0(sp)
   1366c:	24001104 	addi	r16,r4,68
   13670:	8009883a 	mov	r4,r16
   13674:	dfc00115 	stw	ra,4(sp)
   13678:	001454c0 	call	1454c <malloc>
   1367c:	1007883a 	mov	r3,r2
   13680:	10000926 	beq	r2,zero,136a8 <__cxa_allocate_exception+0x44>
   13684:	01801104 	movi	r6,68
   13688:	000b883a 	mov	r5,zero
   1368c:	1809883a 	mov	r4,r3
   13690:	00145cc0 	call	145cc <memset>
   13694:	10801104 	addi	r2,r2,68
   13698:	dfc00117 	ldw	ra,4(sp)
   1369c:	dc000017 	ldw	r16,0(sp)
   136a0:	dec00204 	addi	sp,sp,8
   136a4:	f800283a 	ret
   136a8:	8009883a 	mov	r4,r16
   136ac:	00135a40 	call	135a4 <_ZN12_GLOBAL__N_14pool8allocateEj.constprop.0>
   136b0:	1007883a 	mov	r3,r2
   136b4:	103ff31e 	bne	r2,zero,13684 <__cxa_allocate_exception+0x20>
   136b8:	0012af40 	call	12af4 <_ZSt9terminatev>

000136bc <__cxa_free_exception>:
   136bc:	00800074 	movhi	r2,1
   136c0:	109fbc04 	addi	r2,r2,32496
   136c4:	10c00217 	ldw	r3,8(r2)
   136c8:	213fef04 	addi	r4,r4,-68
   136cc:	1900042e 	bgeu	r3,r4,136e0 <__cxa_free_exception+0x24>
   136d0:	10800317 	ldw	r2,12(r2)
   136d4:	1887883a 	add	r3,r3,r2
   136d8:	20c0012e 	bgeu	r4,r3,136e0 <__cxa_free_exception+0x24>
   136dc:	00134d81 	jmpi	134d8 <_ZN12_GLOBAL__N_14pool4freeEPv.constprop.0>
   136e0:	001455c1 	jmpi	1455c <free>

000136e4 <__cxa_allocate_dependent_exception>:
   136e4:	deffff04 	addi	sp,sp,-4
   136e8:	01001004 	movi	r4,64
   136ec:	dfc00015 	stw	ra,0(sp)
   136f0:	001454c0 	call	1454c <malloc>
   136f4:	1009883a 	mov	r4,r2
   136f8:	10000626 	beq	r2,zero,13714 <__cxa_allocate_dependent_exception+0x30>
   136fc:	01801004 	movi	r6,64
   13700:	000b883a 	mov	r5,zero
   13704:	00145cc0 	call	145cc <memset>
   13708:	dfc00017 	ldw	ra,0(sp)
   1370c:	dec00104 	addi	sp,sp,4
   13710:	f800283a 	ret
   13714:	01001004 	movi	r4,64
   13718:	00135a40 	call	135a4 <_ZN12_GLOBAL__N_14pool8allocateEj.constprop.0>
   1371c:	1009883a 	mov	r4,r2
   13720:	103ff61e 	bne	r2,zero,136fc <__cxa_allocate_dependent_exception+0x18>
   13724:	0012af40 	call	12af4 <_ZSt9terminatev>

00013728 <__cxa_free_dependent_exception>:
   13728:	00c00074 	movhi	r3,1
   1372c:	18dfbc04 	addi	r3,r3,32496
   13730:	19400217 	ldw	r5,8(r3)
   13734:	2005883a 	mov	r2,r4
   13738:	2900042e 	bgeu	r5,r4,1374c <__cxa_free_dependent_exception+0x24>
   1373c:	18c00317 	ldw	r3,12(r3)
   13740:	28cb883a 	add	r5,r5,r3
   13744:	2140012e 	bgeu	r4,r5,1374c <__cxa_free_dependent_exception+0x24>
   13748:	00134d81 	jmpi	134d8 <_ZN12_GLOBAL__N_14pool4freeEPv.constprop.0>
   1374c:	1009883a 	mov	r4,r2
   13750:	001455c1 	jmpi	1455c <free>

00013754 <_GLOBAL__sub_I__ZN9__gnu_cxx9__freeresEv>:
   13754:	defffd04 	addi	sp,sp,-12
   13758:	dc000015 	stw	r16,0(sp)
   1375c:	04000074 	movhi	r16,1
   13760:	dc400115 	stw	r17,4(sp)
   13764:	841fbc04 	addi	r16,r16,32496
   13768:	04424004 	movi	r17,2304
   1376c:	01024004 	movi	r4,2304
   13770:	dfc00215 	stw	ra,8(sp)
   13774:	84400315 	stw	r17,12(r16)
   13778:	001454c0 	call	1454c <malloc>
   1377c:	80800215 	stw	r2,8(r16)
   13780:	10000826 	beq	r2,zero,137a4 <_GLOBAL__sub_I__ZN9__gnu_cxx9__freeresEv+0x50>
   13784:	80800115 	stw	r2,4(r16)
   13788:	14400015 	stw	r17,0(r2)
   1378c:	10000115 	stw	zero,4(r2)
   13790:	dfc00217 	ldw	ra,8(sp)
   13794:	dc400117 	ldw	r17,4(sp)
   13798:	dc000017 	ldw	r16,0(sp)
   1379c:	dec00304 	addi	sp,sp,12
   137a0:	f800283a 	ret
   137a4:	00800074 	movhi	r2,1
   137a8:	101fbf15 	stw	zero,32508(r2)
   137ac:	00800074 	movhi	r2,1
   137b0:	101fbd15 	stw	zero,32500(r2)
   137b4:	003ff606 	br	13790 <_GLOBAL__sub_I__ZN9__gnu_cxx9__freeresEv+0x3c>

000137b8 <__cxa_call_terminate>:
   137b8:	defffe04 	addi	sp,sp,-8
   137bc:	dfc00115 	stw	ra,4(sp)
   137c0:	dc000015 	stw	r16,0(sp)
   137c4:	20000d26 	beq	r4,zero,137fc <__cxa_call_terminate+0x44>
   137c8:	2021883a 	mov	r16,r4
   137cc:	00138180 	call	13818 <__cxa_begin_catch>
   137d0:	80800017 	ldw	r2,0(r16)
   137d4:	81000117 	ldw	r4,4(r16)
   137d8:	00ef3574 	movhi	r3,48341
   137dc:	18f54004 	addi	r3,r3,-11008
   137e0:	016e2cb4 	movhi	r5,47282
   137e4:	296aaf04 	addi	r5,r5,-21828
   137e8:	10c7883a 	add	r3,r2,r3
   137ec:	1885803a 	cmpltu	r2,r3,r2
   137f0:	2149883a 	add	r4,r4,r5
   137f4:	1105883a 	add	r2,r2,r4
   137f8:	10000126 	beq	r2,zero,13800 <__cxa_call_terminate+0x48>
   137fc:	0012af40 	call	12af4 <_ZSt9terminatev>
   13800:	18c000a8 	cmpgeui	r3,r3,2
   13804:	183ffd1e 	bne	r3,zero,137fc <__cxa_call_terminate+0x44>
   13808:	813ff817 	ldw	r4,-32(r16)
   1380c:	0012a2c0 	call	12a2c <_ZN10__cxxabiv111__terminateEPFvvE>

00013810 <__cxa_get_exception_ptr>:
   13810:	20bfff17 	ldw	r2,-4(r4)
   13814:	f800283a 	ret

00013818 <__cxa_begin_catch>:
   13818:	defffe04 	addi	sp,sp,-8
   1381c:	dc000015 	stw	r16,0(sp)
   13820:	dfc00115 	stw	ra,4(sp)
   13824:	2021883a 	mov	r16,r4
   13828:	0013a1c0 	call	13a1c <__cxa_get_globals>
   1382c:	80c00017 	ldw	r3,0(r16)
   13830:	81800117 	ldw	r6,4(r16)
   13834:	012f3574 	movhi	r4,48341
   13838:	21354004 	addi	r4,r4,-11008
   1383c:	016e2cb4 	movhi	r5,47282
   13840:	296aaf04 	addi	r5,r5,-21828
   13844:	1909883a 	add	r4,r3,r4
   13848:	314d883a 	add	r6,r6,r5
   1384c:	20c7803a 	cmpltu	r3,r4,r3
   13850:	1987883a 	add	r3,r3,r6
   13854:	100b883a 	mov	r5,r2
   13858:	81bff504 	addi	r6,r16,-44
   1385c:	10800017 	ldw	r2,0(r2)
   13860:	18000626 	beq	r3,zero,1387c <__cxa_begin_catch+0x64>
   13864:	1000191e 	bne	r2,zero,138cc <__cxa_begin_catch+0xb4>
   13868:	29800015 	stw	r6,0(r5)
   1386c:	dfc00117 	ldw	ra,4(sp)
   13870:	dc000017 	ldw	r16,0(sp)
   13874:	dec00204 	addi	sp,sp,8
   13878:	f800283a 	ret
   1387c:	210000a8 	cmpgeui	r4,r4,2
   13880:	203ff81e 	bne	r4,zero,13864 <__cxa_begin_catch+0x4c>
   13884:	80fffa17 	ldw	r3,-24(r16)
   13888:	18000d16 	blt	r3,zero,138c0 <__cxa_begin_catch+0xa8>
   1388c:	18c00044 	addi	r3,r3,1
   13890:	29000117 	ldw	r4,4(r5)
   13894:	80fffa15 	stw	r3,-24(r16)
   13898:	20ffffc4 	addi	r3,r4,-1
   1389c:	28c00115 	stw	r3,4(r5)
   138a0:	11800226 	beq	r2,r6,138ac <__cxa_begin_catch+0x94>
   138a4:	80bff915 	stw	r2,-28(r16)
   138a8:	29800015 	stw	r6,0(r5)
   138ac:	80bfff17 	ldw	r2,-4(r16)
   138b0:	dfc00117 	ldw	ra,4(sp)
   138b4:	dc000017 	ldw	r16,0(sp)
   138b8:	dec00204 	addi	sp,sp,8
   138bc:	f800283a 	ret
   138c0:	01000044 	movi	r4,1
   138c4:	20c7c83a 	sub	r3,r4,r3
   138c8:	003ff106 	br	13890 <__cxa_begin_catch+0x78>
   138cc:	0012af40 	call	12af4 <_ZSt9terminatev>

000138d0 <__cxa_end_catch>:
   138d0:	deffff04 	addi	sp,sp,-4
   138d4:	dfc00015 	stw	ra,0(sp)
   138d8:	0013a100 	call	13a10 <__cxa_get_globals_fast>
   138dc:	11000017 	ldw	r4,0(r2)
   138e0:	20001426 	beq	r4,zero,13934 <__cxa_end_catch+0x64>
   138e4:	20c00b17 	ldw	r3,44(r4)
   138e8:	21800c17 	ldw	r6,48(r4)
   138ec:	016f3574 	movhi	r5,48341
   138f0:	29754004 	addi	r5,r5,-11008
   138f4:	01ee2cb4 	movhi	r7,47282
   138f8:	39eaaf04 	addi	r7,r7,-21828
   138fc:	194b883a 	add	r5,r3,r5
   13900:	28c7803a 	cmpltu	r3,r5,r3
   13904:	31cd883a 	add	r6,r6,r7
   13908:	1987883a 	add	r3,r3,r6
   1390c:	1800111e 	bne	r3,zero,13954 <__cxa_end_catch+0x84>
   13910:	294000a8 	cmpgeui	r5,r5,2
   13914:	28000f1e 	bne	r5,zero,13954 <__cxa_end_catch+0x84>
   13918:	20c00517 	ldw	r3,20(r4)
   1391c:	18000816 	blt	r3,zero,13940 <__cxa_end_catch+0x70>
   13920:	18ffffc4 	addi	r3,r3,-1
   13924:	18001026 	beq	r3,zero,13968 <__cxa_end_catch+0x98>
   13928:	18bfffd8 	cmpnei	r2,r3,-1
   1392c:	10001426 	beq	r2,zero,13980 <__cxa_end_catch+0xb0>
   13930:	20c00515 	stw	r3,20(r4)
   13934:	dfc00017 	ldw	ra,0(sp)
   13938:	dec00104 	addi	sp,sp,4
   1393c:	f800283a 	ret
   13940:	18c00044 	addi	r3,r3,1
   13944:	183ffa1e 	bne	r3,zero,13930 <__cxa_end_catch+0x60>
   13948:	21400417 	ldw	r5,16(r4)
   1394c:	11400015 	stw	r5,0(r2)
   13950:	003ff706 	br	13930 <__cxa_end_catch+0x60>
   13954:	21000b04 	addi	r4,r4,44
   13958:	10000015 	stw	zero,0(r2)
   1395c:	dfc00017 	ldw	ra,0(sp)
   13960:	dec00104 	addi	sp,sp,4
   13964:	00144941 	jmpi	14494 <_Unwind_DeleteException>
   13968:	20c00417 	ldw	r3,16(r4)
   1396c:	21000b04 	addi	r4,r4,44
   13970:	10c00015 	stw	r3,0(r2)
   13974:	dfc00017 	ldw	ra,0(sp)
   13978:	dec00104 	addi	sp,sp,4
   1397c:	00144941 	jmpi	14494 <_Unwind_DeleteException>
   13980:	0012af40 	call	12af4 <_ZSt9terminatev>

00013984 <_ZSt18uncaught_exceptionv>:
   13984:	deffff04 	addi	sp,sp,-4
   13988:	dfc00015 	stw	ra,0(sp)
   1398c:	0013a1c0 	call	13a1c <__cxa_get_globals>
   13990:	10800117 	ldw	r2,4(r2)
   13994:	1004c03a 	cmpne	r2,r2,zero
   13998:	dfc00017 	ldw	ra,0(sp)
   1399c:	dec00104 	addi	sp,sp,4
   139a0:	f800283a 	ret

000139a4 <_ZSt19uncaught_exceptionsv>:
   139a4:	deffff04 	addi	sp,sp,-4
   139a8:	dfc00015 	stw	ra,0(sp)
   139ac:	0013a1c0 	call	13a1c <__cxa_get_globals>
   139b0:	10800117 	ldw	r2,4(r2)
   139b4:	dfc00017 	ldw	ra,0(sp)
   139b8:	dec00104 	addi	sp,sp,4
   139bc:	f800283a 	ret

000139c0 <_ZNSt9exceptionD1Ev>:
   139c0:	f800283a 	ret

000139c4 <_ZNSt13bad_exceptionD1Ev>:
   139c4:	f800283a 	ret

000139c8 <_ZGTtNKSt9exception4whatEv>:
   139c8:	00800074 	movhi	r2,1
   139cc:	109b6404 	addi	r2,r2,28048
   139d0:	f800283a 	ret

000139d4 <_ZGTtNKSt13bad_exception4whatEv>:
   139d4:	00800074 	movhi	r2,1
   139d8:	109b6804 	addi	r2,r2,28064
   139dc:	f800283a 	ret

000139e0 <_ZNSt9exceptionD0Ev>:
   139e0:	01400104 	movi	r5,4
   139e4:	00134d41 	jmpi	134d4 <_ZdlPvj>

000139e8 <_ZNSt13bad_exceptionD0Ev>:
   139e8:	01400104 	movi	r5,4
   139ec:	00134d41 	jmpi	134d4 <_ZdlPvj>

000139f0 <_ZN10__cxxabiv115__forced_unwindD1Ev>:
   139f0:	f800283a 	ret

000139f4 <_ZN10__cxxabiv115__forced_unwindD0Ev>:
   139f4:	01400104 	movi	r5,4
   139f8:	00134d41 	jmpi	134d4 <_ZdlPvj>

000139fc <_ZN10__cxxabiv119__foreign_exceptionD1Ev>:
   139fc:	f800283a 	ret

00013a00 <_ZN10__cxxabiv119__foreign_exceptionD0Ev>:
   13a00:	01400104 	movi	r5,4
   13a04:	00134d41 	jmpi	134d4 <_ZdlPvj>

00013a08 <_ZGTtNKSt9exceptionD1Ev>:
   13a08:	f800283a 	ret

00013a0c <_ZGTtNKSt13bad_exceptionD1Ev>:
   13a0c:	f800283a 	ret

00013a10 <__cxa_get_globals_fast>:
   13a10:	00800074 	movhi	r2,1
   13a14:	109fa304 	addi	r2,r2,32396
   13a18:	f800283a 	ret

00013a1c <__cxa_get_globals>:
   13a1c:	00800074 	movhi	r2,1
   13a20:	109fa304 	addi	r2,r2,32396
   13a24:	f800283a 	ret

00013a28 <_ZN10__cxxabiv123__fundamental_type_infoD1Ev>:
   13a28:	00800074 	movhi	r2,1
   13a2c:	109bad04 	addi	r2,r2,28340
   13a30:	20800015 	stw	r2,0(r4)
   13a34:	00131481 	jmpi	13148 <_ZNSt9type_infoD1Ev>

00013a38 <_ZN10__cxxabiv123__fundamental_type_infoD0Ev>:
   13a38:	defffe04 	addi	sp,sp,-8
   13a3c:	00800074 	movhi	r2,1
   13a40:	dc000015 	stw	r16,0(sp)
   13a44:	dfc00115 	stw	ra,4(sp)
   13a48:	109bad04 	addi	r2,r2,28340
   13a4c:	20800015 	stw	r2,0(r4)
   13a50:	2021883a 	mov	r16,r4
   13a54:	00131480 	call	13148 <_ZNSt9type_infoD1Ev>
   13a58:	01400204 	movi	r5,8
   13a5c:	8009883a 	mov	r4,r16
   13a60:	dfc00117 	ldw	ra,4(sp)
   13a64:	dc000017 	ldw	r16,0(sp)
   13a68:	dec00204 	addi	sp,sp,8
   13a6c:	00134d41 	jmpi	134d4 <_ZdlPvj>

00013a70 <_ZNK10__cxxabiv117__pbase_type_info15__pointer_catchEPKS0_PPvj>:
   13a70:	21000317 	ldw	r4,12(r4)
   13a74:	29400317 	ldw	r5,12(r5)
   13a78:	39c00084 	addi	r7,r7,2
   13a7c:	20800017 	ldw	r2,0(r4)
   13a80:	10800417 	ldw	r2,16(r2)
   13a84:	1000683a 	jmp	r2

00013a88 <_ZN10__cxxabiv117__pbase_type_infoD1Ev>:
   13a88:	00800074 	movhi	r2,1
   13a8c:	109c8104 	addi	r2,r2,29188
   13a90:	20800015 	stw	r2,0(r4)
   13a94:	00131481 	jmpi	13148 <_ZNSt9type_infoD1Ev>

00013a98 <_ZN10__cxxabiv117__pbase_type_infoD0Ev>:
   13a98:	defffe04 	addi	sp,sp,-8
   13a9c:	00800074 	movhi	r2,1
   13aa0:	dc000015 	stw	r16,0(sp)
   13aa4:	dfc00115 	stw	ra,4(sp)
   13aa8:	109c8104 	addi	r2,r2,29188
   13aac:	20800015 	stw	r2,0(r4)
   13ab0:	2021883a 	mov	r16,r4
   13ab4:	00131480 	call	13148 <_ZNSt9type_infoD1Ev>
   13ab8:	01400404 	movi	r5,16
   13abc:	8009883a 	mov	r4,r16
   13ac0:	dfc00117 	ldw	ra,4(sp)
   13ac4:	dc000017 	ldw	r16,0(sp)
   13ac8:	dec00204 	addi	sp,sp,8
   13acc:	00134d41 	jmpi	134d4 <_ZdlPvj>

00013ad0 <_ZNK10__cxxabiv117__pbase_type_info10__do_catchEPKSt9type_infoPPvj>:
   13ad0:	defff804 	addi	sp,sp,-32
   13ad4:	dcc00315 	stw	r19,12(sp)
   13ad8:	dc400115 	stw	r17,4(sp)
   13adc:	2027883a 	mov	r19,r4
   13ae0:	2c400117 	ldw	r17,4(r5)
   13ae4:	21000117 	ldw	r4,4(r4)
   13ae8:	dfc00715 	stw	ra,28(sp)
   13aec:	dd800615 	stw	r22,24(sp)
   13af0:	dd400515 	stw	r21,20(sp)
   13af4:	dd000415 	stw	r20,16(sp)
   13af8:	dc800215 	stw	r18,8(sp)
   13afc:	dc000015 	stw	r16,0(sp)
   13b00:	24400926 	beq	r4,r17,13b28 <_ZNK10__cxxabiv117__pbase_type_info10__do_catchEPKSt9type_infoPPvj+0x58>
   13b04:	20800007 	ldb	r2,0(r4)
   13b08:	2821883a 	mov	r16,r5
   13b0c:	3025883a 	mov	r18,r6
   13b10:	10800aa0 	cmpeqi	r2,r2,42
   13b14:	3829883a 	mov	r20,r7
   13b18:	10000e1e 	bne	r2,zero,13b54 <_ZNK10__cxxabiv117__pbase_type_info10__do_catchEPKSt9type_infoPPvj+0x84>
   13b1c:	880b883a 	mov	r5,r17
   13b20:	0014bdc0 	call	14bdc <strcmp>
   13b24:	10000b1e 	bne	r2,zero,13b54 <_ZNK10__cxxabiv117__pbase_type_info10__do_catchEPKSt9type_infoPPvj+0x84>
   13b28:	00800044 	movi	r2,1
   13b2c:	dfc00717 	ldw	ra,28(sp)
   13b30:	dd800617 	ldw	r22,24(sp)
   13b34:	dd400517 	ldw	r21,20(sp)
   13b38:	dd000417 	ldw	r20,16(sp)
   13b3c:	dcc00317 	ldw	r19,12(sp)
   13b40:	dc800217 	ldw	r18,8(sp)
   13b44:	dc400117 	ldw	r17,4(sp)
   13b48:	dc000017 	ldw	r16,0(sp)
   13b4c:	dec00804 	addi	sp,sp,32
   13b50:	f800283a 	ret
   13b54:	00800074 	movhi	r2,1
   13b58:	9d400017 	ldw	r21,0(r19)
   13b5c:	115e1117 	ldw	r5,30788(r2)
   13b60:	adbfff17 	ldw	r22,-4(r21)
   13b64:	89403726 	beq	r17,r5,13c44 <_ZNK10__cxxabiv117__pbase_type_info10__do_catchEPKSt9type_infoPPvj+0x174>
   13b68:	88800007 	ldb	r2,0(r17)
   13b6c:	10800aa0 	cmpeqi	r2,r2,42
   13b70:	1000031e 	bne	r2,zero,13b80 <_ZNK10__cxxabiv117__pbase_type_info10__do_catchEPKSt9type_infoPPvj+0xb0>
   13b74:	8809883a 	mov	r4,r17
   13b78:	0014bdc0 	call	14bdc <strcmp>
   13b7c:	10003126 	beq	r2,zero,13c44 <_ZNK10__cxxabiv117__pbase_type_info10__do_catchEPKSt9type_infoPPvj+0x174>
   13b80:	80006926 	beq	r16,zero,13d28 <_ZNK10__cxxabiv117__pbase_type_info10__do_catchEPKSt9type_infoPPvj+0x258>
   13b84:	80800017 	ldw	r2,0(r16)
   13b88:	b1000117 	ldw	r4,4(r22)
   13b8c:	10bfff17 	ldw	r2,-4(r2)
   13b90:	11400117 	ldw	r5,4(r2)
   13b94:	21400526 	beq	r4,r5,13bac <_ZNK10__cxxabiv117__pbase_type_info10__do_catchEPKSt9type_infoPPvj+0xdc>
   13b98:	20800007 	ldb	r2,0(r4)
   13b9c:	10800aa0 	cmpeqi	r2,r2,42
   13ba0:	1000421e 	bne	r2,zero,13cac <_ZNK10__cxxabiv117__pbase_type_info10__do_catchEPKSt9type_infoPPvj+0x1dc>
   13ba4:	0014bdc0 	call	14bdc <strcmp>
   13ba8:	1000401e 	bne	r2,zero,13cac <_ZNK10__cxxabiv117__pbase_type_info10__do_catchEPKSt9type_infoPPvj+0x1dc>
   13bac:	a080004c 	andi	r2,r20,1
   13bb0:	10003e26 	beq	r2,zero,13cac <_ZNK10__cxxabiv117__pbase_type_info10__do_catchEPKSt9type_infoPPvj+0x1dc>
   13bb4:	99000217 	ldw	r4,8(r19)
   13bb8:	81800217 	ldw	r6,8(r16)
   13bbc:	21c0180c 	andi	r7,r4,96
   13bc0:	3080180c 	andi	r2,r6,96
   13bc4:	01ca303a 	nor	r5,zero,r7
   13bc8:	288a703a 	and	r5,r5,r2
   13bcc:	28000126 	beq	r5,zero,13bd4 <_ZNK10__cxxabiv117__pbase_type_info10__do_catchEPKSt9type_infoPPvj+0x104>
   13bd0:	31cc703a 	and	r6,r6,r7
   13bd4:	0084303a 	nor	r2,zero,r2
   13bd8:	0106303a 	nor	r3,zero,r4
   13bdc:	11c4703a 	and	r2,r2,r7
   13be0:	1986703a 	and	r3,r3,r6
   13be4:	10c4b03a 	or	r2,r2,r3
   13be8:	1000301e 	bne	r2,zero,13cac <_ZNK10__cxxabiv117__pbase_type_info10__do_catchEPKSt9type_infoPPvj+0x1dc>
   13bec:	2100004c 	andi	r4,r4,1
   13bf0:	20003c26 	beq	r4,zero,13ce4 <_ZNK10__cxxabiv117__pbase_type_info10__do_catchEPKSt9type_infoPPvj+0x214>
   13bf4:	a8c00617 	ldw	r3,24(r21)
   13bf8:	00800074 	movhi	r2,1
   13bfc:	108e9c04 	addi	r2,r2,14960
   13c00:	18803b1e 	bne	r3,r2,13cf0 <_ZNK10__cxxabiv117__pbase_type_info10__do_catchEPKSt9type_infoPPvj+0x220>
   13c04:	99000317 	ldw	r4,12(r19)
   13c08:	81400317 	ldw	r5,12(r16)
   13c0c:	a1c00084 	addi	r7,r20,2
   13c10:	20800017 	ldw	r2,0(r4)
   13c14:	900d883a 	mov	r6,r18
   13c18:	10800417 	ldw	r2,16(r2)
   13c1c:	dfc00717 	ldw	ra,28(sp)
   13c20:	dd800617 	ldw	r22,24(sp)
   13c24:	dd400517 	ldw	r21,20(sp)
   13c28:	dd000417 	ldw	r20,16(sp)
   13c2c:	dcc00317 	ldw	r19,12(sp)
   13c30:	dc800217 	ldw	r18,8(sp)
   13c34:	dc400117 	ldw	r17,4(sp)
   13c38:	dc000017 	ldw	r16,0(sp)
   13c3c:	dec00804 	addi	sp,sp,32
   13c40:	1000683a 	jmp	r2
   13c44:	00800074 	movhi	r2,1
   13c48:	b4400117 	ldw	r17,4(r22)
   13c4c:	115b0b17 	ldw	r5,27692(r2)
   13c50:	89401c26 	beq	r17,r5,13cc4 <_ZNK10__cxxabiv117__pbase_type_info10__do_catchEPKSt9type_infoPPvj+0x1f4>
   13c54:	88800007 	ldb	r2,0(r17)
   13c58:	10800aa0 	cmpeqi	r2,r2,42
   13c5c:	1000151e 	bne	r2,zero,13cb4 <_ZNK10__cxxabiv117__pbase_type_info10__do_catchEPKSt9type_infoPPvj+0x1e4>
   13c60:	8809883a 	mov	r4,r17
   13c64:	0014bdc0 	call	14bdc <strcmp>
   13c68:	10001626 	beq	r2,zero,13cc4 <_ZNK10__cxxabiv117__pbase_type_info10__do_catchEPKSt9type_infoPPvj+0x1f4>
   13c6c:	00800074 	movhi	r2,1
   13c70:	115c9517 	ldw	r5,29268(r2)
   13c74:	89400326 	beq	r17,r5,13c84 <_ZNK10__cxxabiv117__pbase_type_info10__do_catchEPKSt9type_infoPPvj+0x1b4>
   13c78:	8809883a 	mov	r4,r17
   13c7c:	0014bdc0 	call	14bdc <strcmp>
   13c80:	103fbf1e 	bne	r2,zero,13b80 <_ZNK10__cxxabiv117__pbase_type_info10__do_catchEPKSt9type_infoPPvj+0xb0>
   13c84:	99000317 	ldw	r4,12(r19)
   13c88:	20800017 	ldw	r2,0(r4)
   13c8c:	10800317 	ldw	r2,12(r2)
   13c90:	103ee83a 	callr	r2
   13c94:	10c03fcc 	andi	r3,r2,255
   13c98:	18000d26 	beq	r3,zero,13cd0 <_ZNK10__cxxabiv117__pbase_type_info10__do_catchEPKSt9type_infoPPvj+0x200>
   13c9c:	00c00074 	movhi	r3,1
   13ca0:	18de3b04 	addi	r3,r3,30956
   13ca4:	90c00015 	stw	r3,0(r18)
   13ca8:	003fa006 	br	13b2c <_ZNK10__cxxabiv117__pbase_type_info10__do_catchEPKSt9type_infoPPvj+0x5c>
   13cac:	0005883a 	mov	r2,zero
   13cb0:	003f9e06 	br	13b2c <_ZNK10__cxxabiv117__pbase_type_info10__do_catchEPKSt9type_infoPPvj+0x5c>
   13cb4:	00800074 	movhi	r2,1
   13cb8:	109c9517 	ldw	r2,29268(r2)
   13cbc:	88bfb01e 	bne	r17,r2,13b80 <_ZNK10__cxxabiv117__pbase_type_info10__do_catchEPKSt9type_infoPPvj+0xb0>
   13cc0:	003ff006 	br	13c84 <_ZNK10__cxxabiv117__pbase_type_info10__do_catchEPKSt9type_infoPPvj+0x1b4>
   13cc4:	90000015 	stw	zero,0(r18)
   13cc8:	00800044 	movi	r2,1
   13ccc:	003f9706 	br	13b2c <_ZNK10__cxxabiv117__pbase_type_info10__do_catchEPKSt9type_infoPPvj+0x5c>
   13cd0:	00800074 	movhi	r2,1
   13cd4:	109e3a04 	addi	r2,r2,30952
   13cd8:	90800015 	stw	r2,0(r18)
   13cdc:	00800044 	movi	r2,1
   13ce0:	003f9206 	br	13b2c <_ZNK10__cxxabiv117__pbase_type_info10__do_catchEPKSt9type_infoPPvj+0x5c>
   13ce4:	00bfff84 	movi	r2,-2
   13ce8:	a0a8703a 	and	r20,r20,r2
   13cec:	003fc106 	br	13bf4 <_ZNK10__cxxabiv117__pbase_type_info10__do_catchEPKSt9type_infoPPvj+0x124>
   13cf0:	a00f883a 	mov	r7,r20
   13cf4:	900d883a 	mov	r6,r18
   13cf8:	800b883a 	mov	r5,r16
   13cfc:	9809883a 	mov	r4,r19
   13d00:	dfc00717 	ldw	ra,28(sp)
   13d04:	dd800617 	ldw	r22,24(sp)
   13d08:	dd400517 	ldw	r21,20(sp)
   13d0c:	dd000417 	ldw	r20,16(sp)
   13d10:	dcc00317 	ldw	r19,12(sp)
   13d14:	dc800217 	ldw	r18,8(sp)
   13d18:	dc400117 	ldw	r17,4(sp)
   13d1c:	dc000017 	ldw	r16,0(sp)
   13d20:	dec00804 	addi	sp,sp,32
   13d24:	1800683a 	jmp	r3
   13d28:	0013e580 	call	13e58 <__cxa_bad_typeid>

00013d2c <_ZN10__cxxabiv129__pointer_to_member_type_infoD1Ev>:
   13d2c:	00800074 	movhi	r2,1
   13d30:	109c9904 	addi	r2,r2,29284
   13d34:	20800015 	stw	r2,0(r4)
   13d38:	0013a881 	jmpi	13a88 <_ZN10__cxxabiv117__pbase_type_infoD1Ev>

00013d3c <_ZN10__cxxabiv129__pointer_to_member_type_infoD0Ev>:
   13d3c:	defffe04 	addi	sp,sp,-8
   13d40:	00800074 	movhi	r2,1
   13d44:	dc000015 	stw	r16,0(sp)
   13d48:	dfc00115 	stw	ra,4(sp)
   13d4c:	109c9904 	addi	r2,r2,29284
   13d50:	20800015 	stw	r2,0(r4)
   13d54:	2021883a 	mov	r16,r4
   13d58:	0013a880 	call	13a88 <_ZN10__cxxabiv117__pbase_type_infoD1Ev>
   13d5c:	01400504 	movi	r5,20
   13d60:	8009883a 	mov	r4,r16
   13d64:	dfc00117 	ldw	ra,4(sp)
   13d68:	dc000017 	ldw	r16,0(sp)
   13d6c:	dec00204 	addi	sp,sp,8
   13d70:	00134d41 	jmpi	134d4 <_ZdlPvj>

00013d74 <_ZNK10__cxxabiv129__pointer_to_member_type_info15__pointer_catchEPKNS_17__pbase_type_infoEPPvj>:
   13d74:	20c00417 	ldw	r3,16(r4)
   13d78:	28800417 	ldw	r2,16(r5)
   13d7c:	defffb04 	addi	sp,sp,-20
   13d80:	dc400215 	stw	r17,8(sp)
   13d84:	dc000115 	stw	r16,4(sp)
   13d88:	2023883a 	mov	r17,r4
   13d8c:	2821883a 	mov	r16,r5
   13d90:	19000117 	ldw	r4,4(r3)
   13d94:	11400117 	ldw	r5,4(r2)
   13d98:	dc800315 	stw	r18,12(sp)
   13d9c:	dfc00415 	stw	ra,16(sp)
   13da0:	3825883a 	mov	r18,r7
   13da4:	21400e26 	beq	r4,r5,13de0 <_ZNK10__cxxabiv129__pointer_to_member_type_info15__pointer_catchEPKNS_17__pbase_type_infoEPPvj+0x6c>
   13da8:	20800007 	ldb	r2,0(r4)
   13dac:	d9800015 	stw	r6,0(sp)
   13db0:	10800aa0 	cmpeqi	r2,r2,42
   13db4:	1000031e 	bne	r2,zero,13dc4 <_ZNK10__cxxabiv129__pointer_to_member_type_info15__pointer_catchEPKNS_17__pbase_type_infoEPPvj+0x50>
   13db8:	0014bdc0 	call	14bdc <strcmp>
   13dbc:	d9800017 	ldw	r6,0(sp)
   13dc0:	10000726 	beq	r2,zero,13de0 <_ZNK10__cxxabiv129__pointer_to_member_type_info15__pointer_catchEPKNS_17__pbase_type_infoEPPvj+0x6c>
   13dc4:	0005883a 	mov	r2,zero
   13dc8:	dfc00417 	ldw	ra,16(sp)
   13dcc:	dc800317 	ldw	r18,12(sp)
   13dd0:	dc400217 	ldw	r17,8(sp)
   13dd4:	dc000117 	ldw	r16,4(sp)
   13dd8:	dec00504 	addi	sp,sp,20
   13ddc:	f800283a 	ret
   13de0:	89000317 	ldw	r4,12(r17)
   13de4:	81400317 	ldw	r5,12(r16)
   13de8:	91c00084 	addi	r7,r18,2
   13dec:	20800017 	ldw	r2,0(r4)
   13df0:	10800417 	ldw	r2,16(r2)
   13df4:	dfc00417 	ldw	ra,16(sp)
   13df8:	dc800317 	ldw	r18,12(sp)
   13dfc:	dc400217 	ldw	r17,8(sp)
   13e00:	dc000117 	ldw	r16,4(sp)
   13e04:	dec00504 	addi	sp,sp,20
   13e08:	1000683a 	jmp	r2

00013e0c <__cxa_pure_virtual>:
   13e0c:	deffff04 	addi	sp,sp,-4
   13e10:	dfc00015 	stw	ra,0(sp)
   13e14:	0012af40 	call	12af4 <_ZSt9terminatev>

00013e18 <__cxa_deleted_virtual>:
   13e18:	deffff04 	addi	sp,sp,-4
   13e1c:	dfc00015 	stw	ra,0(sp)
   13e20:	0012af40 	call	12af4 <_ZSt9terminatev>

00013e24 <__cxa_bad_cast>:
   13e24:	deffff04 	addi	sp,sp,-4
   13e28:	01000104 	movi	r4,4
   13e2c:	dfc00015 	stw	ra,0(sp)
   13e30:	00136640 	call	13664 <__cxa_allocate_exception>
   13e34:	1009883a 	mov	r4,r2
   13e38:	00800074 	movhi	r2,1
   13e3c:	01800074 	movhi	r6,1
   13e40:	01400074 	movhi	r5,1
   13e44:	109cc204 	addi	r2,r2,29448
   13e48:	318fc804 	addi	r6,r6,16160
   13e4c:	295cbd04 	addi	r5,r5,29428
   13e50:	20800015 	stw	r2,0(r4)
   13e54:	0012c580 	call	12c58 <__cxa_throw>

00013e58 <__cxa_bad_typeid>:
   13e58:	deffff04 	addi	sp,sp,-4
   13e5c:	01000104 	movi	r4,4
   13e60:	dfc00015 	stw	ra,0(sp)
   13e64:	00136640 	call	13664 <__cxa_allocate_exception>
   13e68:	1009883a 	mov	r4,r2
   13e6c:	00800074 	movhi	r2,1
   13e70:	01800074 	movhi	r6,1
   13e74:	01400074 	movhi	r5,1
   13e78:	109cd204 	addi	r2,r2,29512
   13e7c:	318fdd04 	addi	r6,r6,16244
   13e80:	295ccd04 	addi	r5,r5,29492
   13e84:	20800015 	stw	r2,0(r4)
   13e88:	0012c580 	call	12c58 <__cxa_throw>

00013e8c <__cxa_throw_bad_array_new_length>:
   13e8c:	deffff04 	addi	sp,sp,-4
   13e90:	01000104 	movi	r4,4
   13e94:	dfc00015 	stw	ra,0(sp)
   13e98:	00136640 	call	13664 <__cxa_allocate_exception>
   13e9c:	1009883a 	mov	r4,r2
   13ea0:	00800074 	movhi	r2,1
   13ea4:	01800074 	movhi	r6,1
   13ea8:	01400074 	movhi	r5,1
   13eac:	109cb304 	addi	r2,r2,29388
   13eb0:	318fb304 	addi	r6,r6,16076
   13eb4:	295cae04 	addi	r5,r5,29368
   13eb8:	20800015 	stw	r2,0(r4)
   13ebc:	0012c580 	call	12c58 <__cxa_throw>

00013ec0 <_ZNKSt20bad_array_new_length4whatEv>:
   13ec0:	00800074 	movhi	r2,1
   13ec4:	109ca004 	addi	r2,r2,29312
   13ec8:	f800283a 	ret

00013ecc <_ZNSt20bad_array_new_lengthD1Ev>:
   13ecc:	00800074 	movhi	r2,1
   13ed0:	109cb304 	addi	r2,r2,29388
   13ed4:	20800015 	stw	r2,0(r4)
   13ed8:	0013fc81 	jmpi	13fc8 <_ZNSt9bad_allocD1Ev>

00013edc <_ZNSt20bad_array_new_lengthD0Ev>:
   13edc:	defffe04 	addi	sp,sp,-8
   13ee0:	00800074 	movhi	r2,1
   13ee4:	dc000015 	stw	r16,0(sp)
   13ee8:	dfc00115 	stw	ra,4(sp)
   13eec:	109cb304 	addi	r2,r2,29388
   13ef0:	20800015 	stw	r2,0(r4)
   13ef4:	2021883a 	mov	r16,r4
   13ef8:	0013fc80 	call	13fc8 <_ZNSt9bad_allocD1Ev>
   13efc:	01400104 	movi	r5,4
   13f00:	8009883a 	mov	r4,r16
   13f04:	dfc00117 	ldw	ra,4(sp)
   13f08:	dc000017 	ldw	r16,0(sp)
   13f0c:	dec00204 	addi	sp,sp,8
   13f10:	00134d41 	jmpi	134d4 <_ZdlPvj>

00013f14 <_ZNKSt8bad_cast4whatEv>:
   13f14:	00800074 	movhi	r2,1
   13f18:	109cb604 	addi	r2,r2,29400
   13f1c:	f800283a 	ret

00013f20 <_ZNSt8bad_castD1Ev>:
   13f20:	00800074 	movhi	r2,1
   13f24:	109cc204 	addi	r2,r2,29448
   13f28:	20800015 	stw	r2,0(r4)
   13f2c:	00139c01 	jmpi	139c0 <_ZNSt9exceptionD1Ev>

00013f30 <_ZNSt8bad_castD0Ev>:
   13f30:	defffe04 	addi	sp,sp,-8
   13f34:	00800074 	movhi	r2,1
   13f38:	dc000015 	stw	r16,0(sp)
   13f3c:	dfc00115 	stw	ra,4(sp)
   13f40:	109cc204 	addi	r2,r2,29448
   13f44:	20800015 	stw	r2,0(r4)
   13f48:	2021883a 	mov	r16,r4
   13f4c:	00139c00 	call	139c0 <_ZNSt9exceptionD1Ev>
   13f50:	01400104 	movi	r5,4
   13f54:	8009883a 	mov	r4,r16
   13f58:	dfc00117 	ldw	ra,4(sp)
   13f5c:	dc000017 	ldw	r16,0(sp)
   13f60:	dec00204 	addi	sp,sp,8
   13f64:	00134d41 	jmpi	134d4 <_ZdlPvj>

00013f68 <_ZNKSt10bad_typeid4whatEv>:
   13f68:	00800074 	movhi	r2,1
   13f6c:	109cc504 	addi	r2,r2,29460
   13f70:	f800283a 	ret

00013f74 <_ZNSt10bad_typeidD1Ev>:
   13f74:	00800074 	movhi	r2,1
   13f78:	109cd204 	addi	r2,r2,29512
   13f7c:	20800015 	stw	r2,0(r4)
   13f80:	00139c01 	jmpi	139c0 <_ZNSt9exceptionD1Ev>

00013f84 <_ZNSt10bad_typeidD0Ev>:
   13f84:	defffe04 	addi	sp,sp,-8
   13f88:	00800074 	movhi	r2,1
   13f8c:	dc000015 	stw	r16,0(sp)
   13f90:	dfc00115 	stw	ra,4(sp)
   13f94:	109cd204 	addi	r2,r2,29512
   13f98:	20800015 	stw	r2,0(r4)
   13f9c:	2021883a 	mov	r16,r4
   13fa0:	00139c00 	call	139c0 <_ZNSt9exceptionD1Ev>
   13fa4:	01400104 	movi	r5,4
   13fa8:	8009883a 	mov	r4,r16
   13fac:	dfc00117 	ldw	ra,4(sp)
   13fb0:	dc000017 	ldw	r16,0(sp)
   13fb4:	dec00204 	addi	sp,sp,8
   13fb8:	00134d41 	jmpi	134d4 <_ZdlPvj>

00013fbc <_ZNKSt9bad_alloc4whatEv>:
   13fbc:	00800074 	movhi	r2,1
   13fc0:	109cd504 	addi	r2,r2,29524
   13fc4:	f800283a 	ret

00013fc8 <_ZNSt9bad_allocD1Ev>:
   13fc8:	00800074 	movhi	r2,1
   13fcc:	109ce204 	addi	r2,r2,29576
   13fd0:	20800015 	stw	r2,0(r4)
   13fd4:	00139c01 	jmpi	139c0 <_ZNSt9exceptionD1Ev>

00013fd8 <_ZNSt9bad_allocD0Ev>:
   13fd8:	defffe04 	addi	sp,sp,-8
   13fdc:	00800074 	movhi	r2,1
   13fe0:	dc000015 	stw	r16,0(sp)
   13fe4:	dfc00115 	stw	ra,4(sp)
   13fe8:	109ce204 	addi	r2,r2,29576
   13fec:	20800015 	stw	r2,0(r4)
   13ff0:	2021883a 	mov	r16,r4
   13ff4:	00139c00 	call	139c0 <_ZNSt9exceptionD1Ev>
   13ff8:	01400104 	movi	r5,4
   13ffc:	8009883a 	mov	r4,r16
   14000:	dfc00117 	ldw	ra,4(sp)
   14004:	dc000017 	ldw	r16,0(sp)
   14008:	dec00204 	addi	sp,sp,8
   1400c:	00134d41 	jmpi	134d4 <_ZdlPvj>

00014010 <_Unwind_ForcedUnwind_Phase2>:
   14010:	28800017 	ldw	r2,0(r5)
   14014:	defff504 	addi	sp,sp,-44
   14018:	dd400815 	stw	r21,32(sp)
   1401c:	dd000715 	stw	r20,28(sp)
   14020:	dcc00615 	stw	r19,24(sp)
   14024:	dc800515 	stw	r18,20(sp)
   14028:	dc400415 	stw	r17,16(sp)
   1402c:	dc000315 	stw	r16,12(sp)
   14030:	dfc00a15 	stw	ra,40(sp)
   14034:	dd800915 	stw	r22,36(sp)
   14038:	302b883a 	mov	r21,r6
   1403c:	24c00317 	ldw	r19,12(r4)
   14040:	25000417 	ldw	r20,16(r4)
   14044:	21800017 	ldw	r6,0(r4)
   14048:	21c00117 	ldw	r7,4(r4)
   1404c:	2823883a 	mov	r17,r5
   14050:	2021883a 	mov	r16,r4
   14054:	04800044 	movi	r18,1
   14058:	10001d26 	beq	r2,zero,140d0 <_Unwind_ForcedUnwind_Phase2+0xc0>
   1405c:	15800617 	ldw	r22,24(r2)
   14060:	01400284 	movi	r5,10
   14064:	01000044 	movi	r4,1
   14068:	dd000215 	stw	r20,8(sp)
   1406c:	dc400115 	stw	r17,4(sp)
   14070:	dc000015 	stw	r16,0(sp)
   14074:	983ee83a 	callr	r19
   14078:	01400284 	movi	r5,10
   1407c:	01000044 	movi	r4,1
   14080:	10001a1e 	bne	r2,zero,140ec <_Unwind_ForcedUnwind_Phase2+0xdc>
   14084:	81800017 	ldw	r6,0(r16)
   14088:	81c00117 	ldw	r7,4(r16)
   1408c:	b0000926 	beq	r22,zero,140b4 <_Unwind_ForcedUnwind_Phase2+0xa4>
   14090:	dc400115 	stw	r17,4(sp)
   14094:	dc000015 	stw	r16,0(sp)
   14098:	b03ee83a 	callr	r22
   1409c:	10c001e0 	cmpeqi	r3,r2,7
   140a0:	11000218 	cmpnei	r4,r2,8
   140a4:	18001d1e 	bne	r3,zero,1411c <_Unwind_ForcedUnwind_Phase2+0x10c>
   140a8:	2000101e 	bne	r4,zero,140ec <_Unwind_ForcedUnwind_Phase2+0xdc>
   140ac:	81800017 	ldw	r6,0(r16)
   140b0:	81c00117 	ldw	r7,4(r16)
   140b4:	88800017 	ldw	r2,0(r17)
   140b8:	00c00074 	movhi	r3,1
   140bc:	94800044 	addi	r18,r18,1
   140c0:	10800017 	ldw	r2,0(r2)
   140c4:	189fa515 	stw	r2,32404(r3)
   140c8:	88800015 	stw	r2,0(r17)
   140cc:	103fe31e 	bne	r2,zero,1405c <_Unwind_ForcedUnwind_Phase2+0x4c>
   140d0:	dd000215 	stw	r20,8(sp)
   140d4:	dc400115 	stw	r17,4(sp)
   140d8:	dc000015 	stw	r16,0(sp)
   140dc:	01400684 	movi	r5,26
   140e0:	01000044 	movi	r4,1
   140e4:	983ee83a 	callr	r19
   140e8:	10000b26 	beq	r2,zero,14118 <_Unwind_ForcedUnwind_Phase2+0x108>
   140ec:	00800084 	movi	r2,2
   140f0:	dfc00a17 	ldw	ra,40(sp)
   140f4:	dd800917 	ldw	r22,36(sp)
   140f8:	dd400817 	ldw	r21,32(sp)
   140fc:	dd000717 	ldw	r20,28(sp)
   14100:	dcc00617 	ldw	r19,24(sp)
   14104:	dc800517 	ldw	r18,20(sp)
   14108:	dc400417 	ldw	r17,16(sp)
   1410c:	dc000317 	ldw	r16,12(sp)
   14110:	dec00b04 	addi	sp,sp,44
   14114:	f800283a 	ret
   14118:	00800144 	movi	r2,5
   1411c:	ac800015 	stw	r18,0(r21)
   14120:	003ff306 	br	140f0 <_Unwind_ForcedUnwind_Phase2+0xe0>

00014124 <_Unwind_RaiseException_Phase2>:
   14124:	28800017 	ldw	r2,0(r5)
   14128:	10002f26 	beq	r2,zero,141e8 <_Unwind_RaiseException_Phase2+0xc4>
   1412c:	defff804 	addi	sp,sp,-32
   14130:	dcc00515 	stw	r19,20(sp)
   14134:	dc800415 	stw	r18,16(sp)
   14138:	dc400315 	stw	r17,12(sp)
   1413c:	dc000215 	stw	r16,8(sp)
   14140:	dfc00715 	stw	ra,28(sp)
   14144:	dd000615 	stw	r20,24(sp)
   14148:	2823883a 	mov	r17,r5
   1414c:	2021883a 	mov	r16,r4
   14150:	3027883a 	mov	r19,r6
   14154:	04800044 	movi	r18,1
   14158:	00001306 	br	141a8 <_Unwind_RaiseException_Phase2+0x84>
   1415c:	18000e26 	beq	r3,zero,14198 <_Unwind_RaiseException_Phase2+0x74>
   14160:	01400084 	movi	r5,2
   14164:	0029883a 	mov	r20,zero
   14168:	81800017 	ldw	r6,0(r16)
   1416c:	81c00117 	ldw	r7,4(r16)
   14170:	01000044 	movi	r4,1
   14174:	dc400115 	stw	r17,4(sp)
   14178:	dc000015 	stw	r16,0(sp)
   1417c:	183ee83a 	callr	r3
   14180:	10c001e0 	cmpeqi	r3,r2,7
   14184:	18001a1e 	bne	r3,zero,141f0 <_Unwind_RaiseException_Phase2+0xcc>
   14188:	10800218 	cmpnei	r2,r2,8
   1418c:	10000d1e 	bne	r2,zero,141c4 <_Unwind_RaiseException_Phase2+0xa0>
   14190:	a000191e 	bne	r20,zero,141f8 <_Unwind_RaiseException_Phase2+0xd4>
   14194:	88800017 	ldw	r2,0(r17)
   14198:	10800017 	ldw	r2,0(r2)
   1419c:	94800044 	addi	r18,r18,1
   141a0:	88800015 	stw	r2,0(r17)
   141a4:	10000726 	beq	r2,zero,141c4 <_Unwind_RaiseException_Phase2+0xa0>
   141a8:	81000417 	ldw	r4,16(r16)
   141ac:	10c00617 	ldw	r3,24(r2)
   141b0:	113fea1e 	bne	r2,r4,1415c <_Unwind_RaiseException_Phase2+0x38>
   141b4:	18001026 	beq	r3,zero,141f8 <_Unwind_RaiseException_Phase2+0xd4>
   141b8:	01400184 	movi	r5,6
   141bc:	05000104 	movi	r20,4
   141c0:	003fe906 	br	14168 <_Unwind_RaiseException_Phase2+0x44>
   141c4:	00800084 	movi	r2,2
   141c8:	dfc00717 	ldw	ra,28(sp)
   141cc:	dd000617 	ldw	r20,24(sp)
   141d0:	dcc00517 	ldw	r19,20(sp)
   141d4:	dc800417 	ldw	r18,16(sp)
   141d8:	dc400317 	ldw	r17,12(sp)
   141dc:	dc000217 	ldw	r16,8(sp)
   141e0:	dec00804 	addi	sp,sp,32
   141e4:	f800283a 	ret
   141e8:	00800084 	movi	r2,2
   141ec:	f800283a 	ret
   141f0:	9c800015 	stw	r18,0(r19)
   141f4:	003ff406 	br	141c8 <_Unwind_RaiseException_Phase2+0xa4>
   141f8:	00145340 	call	14534 <abort>

000141fc <uw_install_context.constprop.0.isra.0>:
   141fc:	deffff04 	addi	sp,sp,-4
   14200:	df000015 	stw	fp,0(sp)
   14204:	20800804 	addi	r2,r4,32
   14208:	00c00074 	movhi	r3,1
   1420c:	191fa515 	stw	r4,32404(r3)
   14210:	d839883a 	mov	fp,sp
   14214:	20c00917 	ldw	r3,36(r4)
   14218:	21000817 	ldw	r4,32(r4)
   1421c:	16c00217 	ldw	sp,8(r2)
   14220:	2039883a 	mov	fp,r4
   14224:	1800683a 	jmp	r3

00014228 <_Unwind_SjLj_Register>:
   14228:	00800074 	movhi	r2,1
   1422c:	109fa517 	ldw	r2,32404(r2)
   14230:	20800015 	stw	r2,0(r4)
   14234:	00800074 	movhi	r2,1
   14238:	111fa515 	stw	r4,32404(r2)
   1423c:	f800283a 	ret

00014240 <_Unwind_SjLj_Unregister>:
   14240:	20c00017 	ldw	r3,0(r4)
   14244:	00800074 	movhi	r2,1
   14248:	10dfa515 	stw	r3,32404(r2)
   1424c:	f800283a 	ret

00014250 <_Unwind_GetGR>:
   14250:	29400084 	addi	r5,r5,2
   14254:	20800017 	ldw	r2,0(r4)
   14258:	280a90ba 	slli	r5,r5,2
   1425c:	114b883a 	add	r5,r2,r5
   14260:	28800017 	ldw	r2,0(r5)
   14264:	f800283a 	ret

00014268 <_Unwind_GetCFA>:
   14268:	20800017 	ldw	r2,0(r4)
   1426c:	10000226 	beq	r2,zero,14278 <_Unwind_GetCFA+0x10>
   14270:	10800a17 	ldw	r2,40(r2)
   14274:	f800283a 	ret
   14278:	0005883a 	mov	r2,zero
   1427c:	f800283a 	ret

00014280 <_Unwind_SetGR>:
   14280:	29400084 	addi	r5,r5,2
   14284:	20800017 	ldw	r2,0(r4)
   14288:	280a90ba 	slli	r5,r5,2
   1428c:	114b883a 	add	r5,r2,r5
   14290:	29800015 	stw	r6,0(r5)
   14294:	f800283a 	ret

00014298 <_Unwind_GetIP>:
   14298:	20800017 	ldw	r2,0(r4)
   1429c:	10800117 	ldw	r2,4(r2)
   142a0:	10800044 	addi	r2,r2,1
   142a4:	f800283a 	ret

000142a8 <_Unwind_GetIPInfo>:
   142a8:	20800017 	ldw	r2,0(r4)
   142ac:	28000015 	stw	zero,0(r5)
   142b0:	10000326 	beq	r2,zero,142c0 <_Unwind_GetIPInfo+0x18>
   142b4:	10800117 	ldw	r2,4(r2)
   142b8:	10800044 	addi	r2,r2,1
   142bc:	f800283a 	ret
   142c0:	0005883a 	mov	r2,zero
   142c4:	f800283a 	ret

000142c8 <_Unwind_SetIP>:
   142c8:	20800017 	ldw	r2,0(r4)
   142cc:	297fffc4 	addi	r5,r5,-1
   142d0:	11400115 	stw	r5,4(r2)
   142d4:	f800283a 	ret

000142d8 <_Unwind_GetLanguageSpecificData>:
   142d8:	20800017 	ldw	r2,0(r4)
   142dc:	10800717 	ldw	r2,28(r2)
   142e0:	f800283a 	ret

000142e4 <_Unwind_GetRegionStart>:
   142e4:	0005883a 	mov	r2,zero
   142e8:	f800283a 	ret

000142ec <_Unwind_FindEnclosingFunction>:
   142ec:	0005883a 	mov	r2,zero
   142f0:	f800283a 	ret

000142f4 <_Unwind_GetDataRelBase>:
   142f4:	0005883a 	mov	r2,zero
   142f8:	f800283a 	ret

000142fc <_Unwind_GetTextRelBase>:
   142fc:	0005883a 	mov	r2,zero
   14300:	f800283a 	ret

00014304 <_Unwind_SjLj_RaiseException>:
   14304:	defff804 	addi	sp,sp,-32
   14308:	00800074 	movhi	r2,1
   1430c:	dc400515 	stw	r17,20(sp)
   14310:	145fa517 	ldw	r17,32404(r2)
   14314:	dfc00715 	stw	ra,28(sp)
   14318:	dc800615 	stw	r18,24(sp)
   1431c:	dc000415 	stw	r16,16(sp)
   14320:	dc400215 	stw	r17,8(sp)
   14324:	88001426 	beq	r17,zero,14378 <_Unwind_SjLj_RaiseException+0x74>
   14328:	2021883a 	mov	r16,r4
   1432c:	8805883a 	mov	r2,r17
   14330:	dc800204 	addi	r18,sp,8
   14334:	10800617 	ldw	r2,24(r2)
   14338:	10000b26 	beq	r2,zero,14368 <_Unwind_SjLj_RaiseException+0x64>
   1433c:	81800017 	ldw	r6,0(r16)
   14340:	81c00117 	ldw	r7,4(r16)
   14344:	01400044 	movi	r5,1
   14348:	dc800115 	stw	r18,4(sp)
   1434c:	dc000015 	stw	r16,0(sp)
   14350:	01000044 	movi	r4,1
   14354:	103ee83a 	callr	r2
   14358:	10c001a0 	cmpeqi	r3,r2,6
   1435c:	18000d1e 	bne	r3,zero,14394 <_Unwind_SjLj_RaiseException+0x90>
   14360:	10800218 	cmpnei	r2,r2,8
   14364:	1000171e 	bne	r2,zero,143c4 <_Unwind_SjLj_RaiseException+0xc0>
   14368:	d8800217 	ldw	r2,8(sp)
   1436c:	10800017 	ldw	r2,0(r2)
   14370:	d8800215 	stw	r2,8(sp)
   14374:	103fef1e 	bne	r2,zero,14334 <_Unwind_SjLj_RaiseException+0x30>
   14378:	00800144 	movi	r2,5
